
sht4xx_Temp_Humidity.elf:     file format elf32-littlearm

Sections:
Idx Name          Size      VMA       LMA       File off  Algn
  0 .text         00009478  00000000  00000000  00010000  2**3
                  CONTENTS, ALLOC, LOAD, READONLY, CODE
  1 .ARM.exidx    00000008  00009478  00009478  00019478  2**2
                  CONTENTS, ALLOC, LOAD, READONLY, DATA
  2 .relocate     000009b0  20000000  00009480  00020000  2**3
                  CONTENTS, ALLOC, LOAD, DATA
  3 .bss          00000188  200009b0  00009e30  000209b0  2**2
                  ALLOC
  4 .stack        00002000  20000b38  00009fb8  000209b0  2**0
                  ALLOC
  5 .ARM.attributes 00000028  00000000  00000000  000209b0  2**0
                  CONTENTS, READONLY
  6 .comment      00000059  00000000  00000000  000209d8  2**0
                  CONTENTS, READONLY
  7 .debug_info   0002281c  00000000  00000000  00020a31  2**0
                  CONTENTS, READONLY, DEBUGGING
  8 .debug_abbrev 00002daa  00000000  00000000  0004324d  2**0
                  CONTENTS, READONLY, DEBUGGING
  9 .debug_loc    0000bbf0  00000000  00000000  00045ff7  2**0
                  CONTENTS, READONLY, DEBUGGING
 10 .debug_aranges 00000af8  00000000  00000000  00051be7  2**0
                  CONTENTS, READONLY, DEBUGGING
 11 .debug_ranges 00000b90  00000000  00000000  000526df  2**0
                  CONTENTS, READONLY, DEBUGGING
 12 .debug_macro  00018c01  00000000  00000000  0005326f  2**0
                  CONTENTS, READONLY, DEBUGGING
 13 .debug_line   0000dfeb  00000000  00000000  0006be70  2**0
                  CONTENTS, READONLY, DEBUGGING
 14 .debug_str    000862be  00000000  00000000  00079e5b  2**0
                  CONTENTS, READONLY, DEBUGGING
 15 .debug_frame  00002a14  00000000  00000000  0010011c  2**2
                  CONTENTS, READONLY, DEBUGGING

Disassembly of section .text:

00000000 <exception_table>:
       0:	38 2b 00 20 25 01 00 00 21 01 00 00 21 01 00 00     8+. %...!...!...
	...
      2c:	21 01 00 00 00 00 00 00 00 00 00 00 21 01 00 00     !...........!...
      3c:	21 01 00 00 21 01 00 00 21 01 00 00 21 01 00 00     !...!...!...!...
      4c:	21 01 00 00 21 01 00 00 21 01 00 00 21 01 00 00     !...!...!...!...
      5c:	21 01 00 00 21 01 00 00 21 01 00 00 21 01 00 00     !...!...!...!...
      6c:	21 01 00 00 21 01 00 00 21 01 00 00 1d 12 00 00     !...!...!.......
      7c:	21 01 00 00 21 01 00 00 21 01 00 00 21 01 00 00     !...!...!...!...
      8c:	21 01 00 00 21 01 00 00 00 00 00 00 00 00 00 00     !...!...........
      9c:	21 01 00 00 21 01 00 00 21 01 00 00 21 01 00 00     !...!...!...!...
      ac:	21 01 00 00 00 00 00 00                             !.......

000000b4 <__do_global_dtors_aux>:
      b4:	b510      	push	{r4, lr}
      b6:	4c06      	ldr	r4, [pc, #24]	; (d0 <__do_global_dtors_aux+0x1c>)
      b8:	7823      	ldrb	r3, [r4, #0]
      ba:	2b00      	cmp	r3, #0
      bc:	d107      	bne.n	ce <__do_global_dtors_aux+0x1a>
      be:	4b05      	ldr	r3, [pc, #20]	; (d4 <__do_global_dtors_aux+0x20>)
      c0:	2b00      	cmp	r3, #0
      c2:	d002      	beq.n	ca <__do_global_dtors_aux+0x16>
      c4:	4804      	ldr	r0, [pc, #16]	; (d8 <__do_global_dtors_aux+0x24>)
      c6:	e000      	b.n	ca <__do_global_dtors_aux+0x16>
      c8:	bf00      	nop
      ca:	2301      	movs	r3, #1
      cc:	7023      	strb	r3, [r4, #0]
      ce:	bd10      	pop	{r4, pc}
      d0:	200009b0 	.word	0x200009b0
      d4:	00000000 	.word	0x00000000
      d8:	00009480 	.word	0x00009480

000000dc <frame_dummy>:
      dc:	4b08      	ldr	r3, [pc, #32]	; (100 <frame_dummy+0x24>)
      de:	b510      	push	{r4, lr}
      e0:	2b00      	cmp	r3, #0
      e2:	d003      	beq.n	ec <frame_dummy+0x10>
      e4:	4907      	ldr	r1, [pc, #28]	; (104 <frame_dummy+0x28>)
      e6:	4808      	ldr	r0, [pc, #32]	; (108 <frame_dummy+0x2c>)
      e8:	e000      	b.n	ec <frame_dummy+0x10>
      ea:	bf00      	nop
      ec:	4807      	ldr	r0, [pc, #28]	; (10c <frame_dummy+0x30>)
      ee:	6803      	ldr	r3, [r0, #0]
      f0:	2b00      	cmp	r3, #0
      f2:	d100      	bne.n	f6 <frame_dummy+0x1a>
      f4:	bd10      	pop	{r4, pc}
      f6:	4b06      	ldr	r3, [pc, #24]	; (110 <frame_dummy+0x34>)
      f8:	2b00      	cmp	r3, #0
      fa:	d0fb      	beq.n	f4 <frame_dummy+0x18>
      fc:	4798      	blx	r3
      fe:	e7f9      	b.n	f4 <frame_dummy+0x18>
     100:	00000000 	.word	0x00000000
     104:	200009b4 	.word	0x200009b4
     108:	00009480 	.word	0x00009480
     10c:	00009480 	.word	0x00009480
     110:	00000000 	.word	0x00000000

00000114 <atmel_start_init>:

/**
 * Initializes MCU, drivers and middleware in the project
 **/
void atmel_start_init(void)
{
     114:	b510      	push	{r4, lr}
	system_init();
     116:	4b01      	ldr	r3, [pc, #4]	; (11c <atmel_start_init+0x8>)
     118:	4798      	blx	r3
}
     11a:	bd10      	pop	{r4, pc}
     11c:	00000329 	.word	0x00000329

00000120 <Dummy_Handler>:

/**
 * \brief Default interrupt handler for unused IRQs.
 */
void Dummy_Handler(void)
{
     120:	e7fe      	b.n	120 <Dummy_Handler>
	...

00000124 <Reset_Handler>:
{
     124:	b5f8      	push	{r3, r4, r5, r6, r7, lr}
        if (pSrc != pDest) {
     126:	4a23      	ldr	r2, [pc, #140]	; (1b4 <Reset_Handler+0x90>)
     128:	4b23      	ldr	r3, [pc, #140]	; (1b8 <Reset_Handler+0x94>)
     12a:	429a      	cmp	r2, r3
     12c:	d009      	beq.n	142 <Reset_Handler+0x1e>
     12e:	4b22      	ldr	r3, [pc, #136]	; (1b8 <Reset_Handler+0x94>)
     130:	4a20      	ldr	r2, [pc, #128]	; (1b4 <Reset_Handler+0x90>)
     132:	e003      	b.n	13c <Reset_Handler+0x18>
                        *pDest++ = *pSrc++;
     134:	6811      	ldr	r1, [r2, #0]
     136:	6019      	str	r1, [r3, #0]
     138:	3304      	adds	r3, #4
     13a:	3204      	adds	r2, #4
                for (; pDest < &_erelocate;) {
     13c:	491f      	ldr	r1, [pc, #124]	; (1bc <Reset_Handler+0x98>)
     13e:	428b      	cmp	r3, r1
     140:	d3f8      	bcc.n	134 <Reset_Handler+0x10>
                        *pDest++ = *pSrc++;
     142:	4b1f      	ldr	r3, [pc, #124]	; (1c0 <Reset_Handler+0x9c>)
     144:	e002      	b.n	14c <Reset_Handler+0x28>
                *pDest++ = 0;
     146:	2200      	movs	r2, #0
     148:	601a      	str	r2, [r3, #0]
     14a:	3304      	adds	r3, #4
        for (pDest = &_szero; pDest < &_ezero;) {
     14c:	4a1d      	ldr	r2, [pc, #116]	; (1c4 <Reset_Handler+0xa0>)
     14e:	4293      	cmp	r3, r2
     150:	d3f9      	bcc.n	146 <Reset_Handler+0x22>
        SCB->VTOR = ((uint32_t) pSrc & SCB_VTOR_TBLOFF_Msk);
     152:	4a1d      	ldr	r2, [pc, #116]	; (1c8 <Reset_Handler+0xa4>)
     154:	21ff      	movs	r1, #255	; 0xff
     156:	4b1d      	ldr	r3, [pc, #116]	; (1cc <Reset_Handler+0xa8>)
     158:	438b      	bics	r3, r1
     15a:	6093      	str	r3, [r2, #8]
        SBMATRIX->SFR[SBMATRIX_SLAVE_HMCRAMC0].reg = 2;
     15c:	39fd      	subs	r1, #253	; 0xfd
     15e:	2390      	movs	r3, #144	; 0x90
     160:	005b      	lsls	r3, r3, #1
     162:	4a1b      	ldr	r2, [pc, #108]	; (1d0 <Reset_Handler+0xac>)
     164:	50d1      	str	r1, [r2, r3]
        USB->DEVICE.QOSCTRL.bit.CQOS = 2;
     166:	4a1b      	ldr	r2, [pc, #108]	; (1d4 <Reset_Handler+0xb0>)
     168:	78d3      	ldrb	r3, [r2, #3]
     16a:	2503      	movs	r5, #3
     16c:	43ab      	bics	r3, r5
     16e:	2402      	movs	r4, #2
     170:	4323      	orrs	r3, r4
     172:	70d3      	strb	r3, [r2, #3]
        USB->DEVICE.QOSCTRL.bit.DQOS = 2;
     174:	78d3      	ldrb	r3, [r2, #3]
     176:	270c      	movs	r7, #12
     178:	43bb      	bics	r3, r7
     17a:	2608      	movs	r6, #8
     17c:	4333      	orrs	r3, r6
     17e:	70d3      	strb	r3, [r2, #3]
        DMAC->QOSCTRL.bit.DQOS = 2;
     180:	4b15      	ldr	r3, [pc, #84]	; (1d8 <Reset_Handler+0xb4>)
     182:	7b98      	ldrb	r0, [r3, #14]
     184:	2230      	movs	r2, #48	; 0x30
     186:	4390      	bics	r0, r2
     188:	2220      	movs	r2, #32
     18a:	4310      	orrs	r0, r2
     18c:	7398      	strb	r0, [r3, #14]
        DMAC->QOSCTRL.bit.FQOS = 2;
     18e:	7b99      	ldrb	r1, [r3, #14]
     190:	43b9      	bics	r1, r7
     192:	4331      	orrs	r1, r6
     194:	7399      	strb	r1, [r3, #14]
        DMAC->QOSCTRL.bit.WRBQOS = 2;
     196:	7b9a      	ldrb	r2, [r3, #14]
     198:	43aa      	bics	r2, r5
     19a:	4322      	orrs	r2, r4
     19c:	739a      	strb	r2, [r3, #14]
        NVMCTRL->CTRLB.bit.MANW = 1;
     19e:	4a0f      	ldr	r2, [pc, #60]	; (1dc <Reset_Handler+0xb8>)
     1a0:	6851      	ldr	r1, [r2, #4]
     1a2:	2380      	movs	r3, #128	; 0x80
     1a4:	430b      	orrs	r3, r1
     1a6:	6053      	str	r3, [r2, #4]
        __libc_init_array();
     1a8:	4b0d      	ldr	r3, [pc, #52]	; (1e0 <Reset_Handler+0xbc>)
     1aa:	4798      	blx	r3
        main();
     1ac:	4b0d      	ldr	r3, [pc, #52]	; (1e4 <Reset_Handler+0xc0>)
     1ae:	4798      	blx	r3
     1b0:	e7fe      	b.n	1b0 <Reset_Handler+0x8c>
     1b2:	46c0      	nop			; (mov r8, r8)
     1b4:	00009480 	.word	0x00009480
     1b8:	20000000 	.word	0x20000000
     1bc:	200009b0 	.word	0x200009b0
     1c0:	200009b0 	.word	0x200009b0
     1c4:	20000b38 	.word	0x20000b38
     1c8:	e000ed00 	.word	0xe000ed00
     1cc:	00000000 	.word	0x00000000
     1d0:	41007000 	.word	0x41007000
     1d4:	41005000 	.word	0x41005000
     1d8:	41004800 	.word	0x41004800
     1dc:	41004000 	.word	0x41004000
     1e0:	000048cd 	.word	0x000048cd
     1e4:	00001285 	.word	0x00001285

000001e8 <I2C_0_PORT_init>:
static uint8_t USART_0_buffer[USART_0_BUFFER_SIZE];

struct i2c_m_sync_desc I2C_0;

void I2C_0_PORT_init(void)
{
     1e8:	b570      	push	{r4, r5, r6, lr}
}

static inline void hri_port_clear_PINCFG_PULLEN_bit(const void *const hw, uint8_t submodule_index, uint8_t index)
{
	PORT_CRITICAL_SECTION_ENTER();
	((Port *)hw)->Group[submodule_index].PINCFG[index].reg &= ~PORT_PINCFG_PULLEN;
     1ea:	4b13      	ldr	r3, [pc, #76]	; (238 <I2C_0_PORT_init+0x50>)
     1ec:	2050      	movs	r0, #80	; 0x50
     1ee:	5c19      	ldrb	r1, [r3, r0]
     1f0:	2204      	movs	r2, #4
     1f2:	4391      	bics	r1, r2
     1f4:	5419      	strb	r1, [r3, r0]
	tmp = ((Port *)hw)->Group[submodule_index].PINCFG[index].reg;
     1f6:	5c19      	ldrb	r1, [r3, r0]
	tmp &= ~PORT_PINCFG_PMUXEN;
     1f8:	2501      	movs	r5, #1
     1fa:	43a9      	bics	r1, r5
	tmp |= value << PORT_PINCFG_PMUXEN_Pos;
     1fc:	2401      	movs	r4, #1
     1fe:	4321      	orrs	r1, r4
     200:	b2c9      	uxtb	r1, r1
	((Port *)hw)->Group[submodule_index].PINCFG[index].reg = tmp;
     202:	5419      	strb	r1, [r3, r0]
	tmp = ((Port *)hw)->Group[submodule_index].PMUX[index].reg;
     204:	3818      	subs	r0, #24
     206:	5c19      	ldrb	r1, [r3, r0]
	tmp &= ~PORT_PMUX_PMUXE_Msk;
     208:	260f      	movs	r6, #15
     20a:	43b1      	bics	r1, r6
	tmp |= PORT_PMUX_PMUXE(data);
     20c:	2602      	movs	r6, #2
     20e:	4331      	orrs	r1, r6
     210:	b2c9      	uxtb	r1, r1
	((Port *)hw)->Group[submodule_index].PMUX[index].reg = tmp;
     212:	5419      	strb	r1, [r3, r0]
	((Port *)hw)->Group[submodule_index].PINCFG[index].reg &= ~PORT_PINCFG_PULLEN;
     214:	2151      	movs	r1, #81	; 0x51
     216:	5c5e      	ldrb	r6, [r3, r1]
     218:	4396      	bics	r6, r2
     21a:	545e      	strb	r6, [r3, r1]
	tmp = ((Port *)hw)->Group[submodule_index].PINCFG[index].reg;
     21c:	5c5a      	ldrb	r2, [r3, r1]
	tmp &= ~PORT_PINCFG_PMUXEN;
     21e:	43aa      	bics	r2, r5
	tmp |= value << PORT_PINCFG_PMUXEN_Pos;
     220:	4322      	orrs	r2, r4
     222:	b2d2      	uxtb	r2, r2
	((Port *)hw)->Group[submodule_index].PINCFG[index].reg = tmp;
     224:	545a      	strb	r2, [r3, r1]
	tmp = ((Port *)hw)->Group[submodule_index].PMUX[index].reg;
     226:	5c1a      	ldrb	r2, [r3, r0]
	tmp &= ~PORT_PMUX_PMUXO_Msk;
     228:	3942      	subs	r1, #66	; 0x42
     22a:	400a      	ands	r2, r1
	tmp |= PORT_PMUX_PMUXO(data);
     22c:	2120      	movs	r1, #32
     22e:	430a      	orrs	r2, r1
     230:	b2d2      	uxtb	r2, r2
	((Port *)hw)->Group[submodule_index].PMUX[index].reg = tmp;
     232:	541a      	strb	r2, [r3, r0]
	                       // <GPIO_PULL_UP"> Pull-up
	                       // <GPIO_PULL_DOWN"> Pull-down
	                       GPIO_PULL_OFF);

	gpio_set_pin_function(PA17, PINMUX_PA17C_SERCOM1_PAD1);
}
     234:	bd70      	pop	{r4, r5, r6, pc}
     236:	46c0      	nop			; (mov r8, r8)
     238:	41004400 	.word	0x41004400

0000023c <I2C_0_CLOCK_init>:
			peripheral = (uint32_t)_pm_get_apbb_index(module);
			PM->APBBMASK.reg |= 1 << peripheral;
		}
		break;
	case PM_BUS_APBC:
		PM->APBCMASK.reg |= 1 << peripheral;
     23c:	4a05      	ldr	r2, [pc, #20]	; (254 <I2C_0_CLOCK_init+0x18>)
     23e:	6a13      	ldr	r3, [r2, #32]
     240:	2108      	movs	r1, #8
     242:	430b      	orrs	r3, r1
     244:	6213      	str	r3, [r2, #32]
}

static inline void hri_gclk_write_CLKCTRL_reg(const void *const hw, hri_gclk_clkctrl_reg_t data)
{
	GCLK_CRITICAL_SECTION_ENTER();
	((Gclk *)hw)->CLKCTRL.reg = data;
     246:	4b04      	ldr	r3, [pc, #16]	; (258 <I2C_0_CLOCK_init+0x1c>)
     248:	4a04      	ldr	r2, [pc, #16]	; (25c <I2C_0_CLOCK_init+0x20>)
     24a:	805a      	strh	r2, [r3, #2]
     24c:	4a04      	ldr	r2, [pc, #16]	; (260 <I2C_0_CLOCK_init+0x24>)
     24e:	805a      	strh	r2, [r3, #2]
void I2C_0_CLOCK_init(void)
{
	_pm_enable_bus_clock(PM_BUS_APBC, SERCOM1);
	_gclk_enable_channel(SERCOM1_GCLK_ID_CORE, CONF_GCLK_SERCOM1_CORE_SRC);
	_gclk_enable_channel(SERCOM1_GCLK_ID_SLOW, CONF_GCLK_SERCOM1_SLOW_SRC);
}
     250:	4770      	bx	lr
     252:	46c0      	nop			; (mov r8, r8)
     254:	40000400 	.word	0x40000400
     258:	40000c00 	.word	0x40000c00
     25c:	00004015 	.word	0x00004015
     260:	00004013 	.word	0x00004013

00000264 <I2C_0_init>:

void I2C_0_init(void)
{
     264:	b510      	push	{r4, lr}
	I2C_0_CLOCK_init();
     266:	4b04      	ldr	r3, [pc, #16]	; (278 <I2C_0_init+0x14>)
     268:	4798      	blx	r3
	i2c_m_sync_init(&I2C_0, SERCOM1);
     26a:	4904      	ldr	r1, [pc, #16]	; (27c <I2C_0_init+0x18>)
     26c:	4804      	ldr	r0, [pc, #16]	; (280 <I2C_0_init+0x1c>)
     26e:	4b05      	ldr	r3, [pc, #20]	; (284 <I2C_0_init+0x20>)
     270:	4798      	blx	r3
	I2C_0_PORT_init();
     272:	4b05      	ldr	r3, [pc, #20]	; (288 <I2C_0_init+0x24>)
     274:	4798      	blx	r3
}
     276:	bd10      	pop	{r4, pc}
     278:	0000023d 	.word	0x0000023d
     27c:	42000c00 	.word	0x42000c00
     280:	20000a8c 	.word	0x20000a8c
     284:	000003e9 	.word	0x000003e9
     288:	000001e9 	.word	0x000001e9

0000028c <USART_0_CLOCK_init>:
     28c:	4a04      	ldr	r2, [pc, #16]	; (2a0 <USART_0_CLOCK_init+0x14>)
     28e:	6a13      	ldr	r3, [r2, #32]
     290:	2180      	movs	r1, #128	; 0x80
     292:	430b      	orrs	r3, r1
     294:	6213      	str	r3, [r2, #32]
     296:	4a03      	ldr	r2, [pc, #12]	; (2a4 <USART_0_CLOCK_init+0x18>)
     298:	4b03      	ldr	r3, [pc, #12]	; (2a8 <USART_0_CLOCK_init+0x1c>)
     29a:	805a      	strh	r2, [r3, #2]
void USART_0_CLOCK_init()
{

	_pm_enable_bus_clock(PM_BUS_APBC, SERCOM5);
	_gclk_enable_channel(SERCOM5_GCLK_ID_CORE, CONF_GCLK_SERCOM5_CORE_SRC);
}
     29c:	4770      	bx	lr
     29e:	46c0      	nop			; (mov r8, r8)
     2a0:	40000400 	.word	0x40000400
     2a4:	00004019 	.word	0x00004019
     2a8:	40000c00 	.word	0x40000c00

000002ac <USART_0_PORT_init>:
 * \brief USART pinmux initialization function
 *
 * Set each required pin to USART functionality
 */
void USART_0_PORT_init()
{
     2ac:	b530      	push	{r4, r5, lr}
	tmp = ((Port *)hw)->Group[submodule_index].PINCFG[index].reg;
     2ae:	4b0f      	ldr	r3, [pc, #60]	; (2ec <USART_0_PORT_init+0x40>)
     2b0:	22c2      	movs	r2, #194	; 0xc2
     2b2:	5c99      	ldrb	r1, [r3, r2]
	tmp &= ~PORT_PINCFG_PMUXEN;
     2b4:	2501      	movs	r5, #1
     2b6:	43a9      	bics	r1, r5
	tmp |= value << PORT_PINCFG_PMUXEN_Pos;
     2b8:	2401      	movs	r4, #1
     2ba:	4321      	orrs	r1, r4
     2bc:	b2c9      	uxtb	r1, r1
	((Port *)hw)->Group[submodule_index].PINCFG[index].reg = tmp;
     2be:	5499      	strb	r1, [r3, r2]
	tmp = ((Port *)hw)->Group[submodule_index].PMUX[index].reg;
     2c0:	20b1      	movs	r0, #177	; 0xb1
     2c2:	5c19      	ldrb	r1, [r3, r0]
	tmp &= ~PORT_PMUX_PMUXE_Msk;
     2c4:	3ab3      	subs	r2, #179	; 0xb3
     2c6:	4391      	bics	r1, r2
	tmp |= PORT_PMUX_PMUXE(data);
     2c8:	2203      	movs	r2, #3
     2ca:	4311      	orrs	r1, r2
     2cc:	b2c9      	uxtb	r1, r1
	((Port *)hw)->Group[submodule_index].PMUX[index].reg = tmp;
     2ce:	5419      	strb	r1, [r3, r0]
	tmp = ((Port *)hw)->Group[submodule_index].PINCFG[index].reg;
     2d0:	21c3      	movs	r1, #195	; 0xc3
     2d2:	5c5a      	ldrb	r2, [r3, r1]
	tmp &= ~PORT_PINCFG_PMUXEN;
     2d4:	43aa      	bics	r2, r5
	tmp |= value << PORT_PINCFG_PMUXEN_Pos;
     2d6:	4322      	orrs	r2, r4
     2d8:	b2d2      	uxtb	r2, r2
	((Port *)hw)->Group[submodule_index].PINCFG[index].reg = tmp;
     2da:	545a      	strb	r2, [r3, r1]
	tmp = ((Port *)hw)->Group[submodule_index].PMUX[index].reg;
     2dc:	5c1a      	ldrb	r2, [r3, r0]
	tmp &= ~PORT_PMUX_PMUXO_Msk;
     2de:	39b4      	subs	r1, #180	; 0xb4
     2e0:	400a      	ands	r2, r1
	tmp |= PORT_PMUX_PMUXO(data);
     2e2:	2130      	movs	r1, #48	; 0x30
     2e4:	430a      	orrs	r2, r1
     2e6:	b2d2      	uxtb	r2, r2
	((Port *)hw)->Group[submodule_index].PMUX[index].reg = tmp;
     2e8:	541a      	strb	r2, [r3, r0]

	gpio_set_pin_function(PB02, PINMUX_PB02D_SERCOM5_PAD0);

	gpio_set_pin_function(PB03, PINMUX_PB03D_SERCOM5_PAD1);
}
     2ea:	bd30      	pop	{r4, r5, pc}
     2ec:	41004400 	.word	0x41004400

000002f0 <USART_0_init>:
 * \brief USART initialization function
 *
 * Enables USART peripheral, clocks and initializes USART driver
 */
void USART_0_init(void)
{
     2f0:	b510      	push	{r4, lr}
     2f2:	b082      	sub	sp, #8
	USART_0_CLOCK_init();
     2f4:	4b06      	ldr	r3, [pc, #24]	; (310 <USART_0_init+0x20>)
     2f6:	4798      	blx	r3
	usart_async_init(&USART_0, SERCOM5, USART_0_buffer, USART_0_BUFFER_SIZE, (void *)NULL);
     2f8:	2300      	movs	r3, #0
     2fa:	9300      	str	r3, [sp, #0]
     2fc:	3310      	adds	r3, #16
     2fe:	4a05      	ldr	r2, [pc, #20]	; (314 <USART_0_init+0x24>)
     300:	4905      	ldr	r1, [pc, #20]	; (318 <USART_0_init+0x28>)
     302:	4806      	ldr	r0, [pc, #24]	; (31c <USART_0_init+0x2c>)
     304:	4c06      	ldr	r4, [pc, #24]	; (320 <USART_0_init+0x30>)
     306:	47a0      	blx	r4
	USART_0_PORT_init();
     308:	4b06      	ldr	r3, [pc, #24]	; (324 <USART_0_init+0x34>)
     30a:	4798      	blx	r3
}
     30c:	b002      	add	sp, #8
     30e:	bd10      	pop	{r4, pc}
     310:	0000028d 	.word	0x0000028d
     314:	200009cc 	.word	0x200009cc
     318:	42001c00 	.word	0x42001c00
     31c:	20000a3c 	.word	0x20000a3c
     320:	0000062d 	.word	0x0000062d
     324:	000002ad 	.word	0x000002ad

00000328 <system_init>:

void system_init(void)
{
     328:	b510      	push	{r4, lr}
 * Currently the following initialization functions are supported:
 *  - System clock initialization
 */
static inline void init_mcu(void)
{
	_init_chip();
     32a:	4b03      	ldr	r3, [pc, #12]	; (338 <system_init+0x10>)
     32c:	4798      	blx	r3
	init_mcu();

	I2C_0_init();
     32e:	4b03      	ldr	r3, [pc, #12]	; (33c <system_init+0x14>)
     330:	4798      	blx	r3
	USART_0_init();
     332:	4b03      	ldr	r3, [pc, #12]	; (340 <system_init+0x18>)
     334:	4798      	blx	r3
}
     336:	bd10      	pop	{r4, pc}
     338:	00000875 	.word	0x00000875
     33c:	00000265 	.word	0x00000265
     340:	000002f1 	.word	0x000002f1

00000344 <atomic_enter_critical>:
 */
__STATIC_FORCEINLINE uint32_t __get_PRIMASK(void)
{
  uint32_t result;

  __ASM volatile ("MRS %0, primask" : "=r" (result) :: "memory");
     344:	f3ef 8310 	mrs	r3, PRIMASK
/**
 * \brief Disable interrupts, enter critical section
 */
void atomic_enter_critical(hal_atomic_t volatile *atomic)
{
	*atomic = __get_PRIMASK();
     348:	6003      	str	r3, [r0, #0]
  __ASM volatile ("cpsid i" : : : "memory");
     34a:	b672      	cpsid	i
  \details Ensures the apparent order of the explicit memory operations before
           and after the instruction, without ensuring their completion.
 */
__STATIC_FORCEINLINE void __DMB(void)
{
  __ASM volatile ("dmb 0xF":::"memory");
     34c:	f3bf 8f5f 	dmb	sy
	__disable_irq();
	__DMB();
}
     350:	4770      	bx	lr

00000352 <atomic_leave_critical>:
     352:	f3bf 8f5f 	dmb	sy
 * \brief Exit atomic section
 */
void atomic_leave_critical(hal_atomic_t volatile *atomic)
{
	__DMB();
	__set_PRIMASK(*atomic);
     356:	6803      	ldr	r3, [r0, #0]
  __ASM volatile ("MSR primask, %0" : : "r" (priMask) : "memory");
     358:	f383 8810 	msr	PRIMASK, r3
}
     35c:	4770      	bx	lr
	...

00000360 <delay_ms>:

/**
 * \brief Perform delay in ms
 */
void delay_ms(const uint16_t ms)
{
     360:	b510      	push	{r4, lr}
	_delay_cycles(hardware, _get_cycles_for_ms(ms));
     362:	4b04      	ldr	r3, [pc, #16]	; (374 <delay_ms+0x14>)
     364:	681c      	ldr	r4, [r3, #0]
     366:	4b04      	ldr	r3, [pc, #16]	; (378 <delay_ms+0x18>)
     368:	4798      	blx	r3
     36a:	0001      	movs	r1, r0
     36c:	0020      	movs	r0, r4
     36e:	4b03      	ldr	r3, [pc, #12]	; (37c <delay_ms+0x1c>)
     370:	4798      	blx	r3
}
     372:	bd10      	pop	{r4, pc}
     374:	200009dc 	.word	0x200009dc
     378:	0000084d 	.word	0x0000084d
     37c:	0000086d 	.word	0x0000086d

00000380 <i2c_m_sync_write>:

/**
 * \brief Sync version of I2C I/O write
 */
static int32_t i2c_m_sync_write(struct io_descriptor *io, const uint8_t *buf, const uint16_t n)
{
     380:	b510      	push	{r4, lr}
     382:	b084      	sub	sp, #16
	struct i2c_m_sync_desc *i2c = CONTAINER_OF(io, struct i2c_m_sync_desc, io);
	struct _i2c_m_msg       msg;
	int32_t                 ret;

	msg.addr   = i2c->slave_addr;
     384:	3814      	subs	r0, #20
     386:	8b84      	ldrh	r4, [r0, #28]
     388:	ab01      	add	r3, sp, #4
     38a:	801c      	strh	r4, [r3, #0]
	msg.len    = n;
     38c:	0014      	movs	r4, r2
     38e:	9202      	str	r2, [sp, #8]
	msg.flags  = I2C_M_STOP;
     390:	4a06      	ldr	r2, [pc, #24]	; (3ac <i2c_m_sync_write+0x2c>)
     392:	805a      	strh	r2, [r3, #2]
	msg.buffer = (uint8_t *)buf;
     394:	9103      	str	r1, [sp, #12]

	ret = _i2c_m_sync_transfer(&i2c->device, &msg);
     396:	0019      	movs	r1, r3
     398:	4b05      	ldr	r3, [pc, #20]	; (3b0 <i2c_m_sync_write+0x30>)
     39a:	4798      	blx	r3

	if (ret) {
     39c:	2800      	cmp	r0, #0
     39e:	d102      	bne.n	3a6 <i2c_m_sync_write+0x26>
		return ret;
	}

	return n;
}
     3a0:	0020      	movs	r0, r4
     3a2:	b004      	add	sp, #16
     3a4:	bd10      	pop	{r4, pc}
		return ret;
     3a6:	0004      	movs	r4, r0
     3a8:	e7fa      	b.n	3a0 <i2c_m_sync_write+0x20>
     3aa:	46c0      	nop			; (mov r8, r8)
     3ac:	ffff8000 	.word	0xffff8000
     3b0:	00000fa1 	.word	0x00000fa1

000003b4 <i2c_m_sync_read>:
{
     3b4:	b510      	push	{r4, lr}
     3b6:	b084      	sub	sp, #16
	msg.addr   = i2c->slave_addr;
     3b8:	3814      	subs	r0, #20
     3ba:	8b84      	ldrh	r4, [r0, #28]
     3bc:	ab01      	add	r3, sp, #4
     3be:	801c      	strh	r4, [r3, #0]
	msg.len    = n;
     3c0:	0014      	movs	r4, r2
     3c2:	9202      	str	r2, [sp, #8]
	msg.flags  = I2C_M_STOP | I2C_M_RD;
     3c4:	4a06      	ldr	r2, [pc, #24]	; (3e0 <i2c_m_sync_read+0x2c>)
     3c6:	805a      	strh	r2, [r3, #2]
	msg.buffer = buf;
     3c8:	9103      	str	r1, [sp, #12]
	ret = _i2c_m_sync_transfer(&i2c->device, &msg);
     3ca:	0019      	movs	r1, r3
     3cc:	4b05      	ldr	r3, [pc, #20]	; (3e4 <i2c_m_sync_read+0x30>)
     3ce:	4798      	blx	r3
	if (ret) {
     3d0:	2800      	cmp	r0, #0
     3d2:	d102      	bne.n	3da <i2c_m_sync_read+0x26>
}
     3d4:	0020      	movs	r0, r4
     3d6:	b004      	add	sp, #16
     3d8:	bd10      	pop	{r4, pc}
		return ret;
     3da:	0004      	movs	r4, r0
     3dc:	e7fa      	b.n	3d4 <i2c_m_sync_read+0x20>
     3de:	46c0      	nop			; (mov r8, r8)
     3e0:	ffff8001 	.word	0xffff8001
     3e4:	00000fa1 	.word	0x00000fa1

000003e8 <i2c_m_sync_init>:

/**
 * \brief Sync version of i2c initialize
 */
int32_t i2c_m_sync_init(struct i2c_m_sync_desc *i2c, void *hw)
{
     3e8:	b570      	push	{r4, r5, r6, lr}
     3ea:	0004      	movs	r4, r0
     3ec:	000d      	movs	r5, r1
	int32_t init_status;
	ASSERT(i2c);
     3ee:	1e43      	subs	r3, r0, #1
     3f0:	4198      	sbcs	r0, r3
     3f2:	b2c0      	uxtb	r0, r0
     3f4:	225e      	movs	r2, #94	; 0x5e
     3f6:	4907      	ldr	r1, [pc, #28]	; (414 <i2c_m_sync_init+0x2c>)
     3f8:	4b07      	ldr	r3, [pc, #28]	; (418 <i2c_m_sync_init+0x30>)
     3fa:	4798      	blx	r3

	init_status = _i2c_m_sync_init(&i2c->device, hw);
     3fc:	0029      	movs	r1, r5
     3fe:	0020      	movs	r0, r4
     400:	4b06      	ldr	r3, [pc, #24]	; (41c <i2c_m_sync_init+0x34>)
     402:	4798      	blx	r3
	if (init_status) {
     404:	2800      	cmp	r0, #0
     406:	d103      	bne.n	410 <i2c_m_sync_init+0x28>
		return init_status;
	}

	/* Init I/O */
	i2c->io.read  = i2c_m_sync_read;
     408:	4b05      	ldr	r3, [pc, #20]	; (420 <i2c_m_sync_init+0x38>)
     40a:	61a3      	str	r3, [r4, #24]
	i2c->io.write = i2c_m_sync_write;
     40c:	4b05      	ldr	r3, [pc, #20]	; (424 <i2c_m_sync_init+0x3c>)
     40e:	6163      	str	r3, [r4, #20]

	return ERR_NONE;
}
     410:	bd70      	pop	{r4, r5, r6, pc}
     412:	46c0      	nop			; (mov r8, r8)
     414:	00008afc 	.word	0x00008afc
     418:	00000725 	.word	0x00000725
     41c:	00000ef1 	.word	0x00000ef1
     420:	000003b5 	.word	0x000003b5
     424:	00000381 	.word	0x00000381

00000428 <i2c_m_sync_enable>:

/**
 * \brief Sync version of i2c enable
 */
int32_t i2c_m_sync_enable(struct i2c_m_sync_desc *i2c)
{
     428:	b510      	push	{r4, lr}
	return _i2c_m_sync_enable(&i2c->device);
     42a:	4b01      	ldr	r3, [pc, #4]	; (430 <i2c_m_sync_enable+0x8>)
     42c:	4798      	blx	r3
}
     42e:	bd10      	pop	{r4, pc}
     430:	00000f21 	.word	0x00000f21

00000434 <i2c_m_sync_set_slaveaddr>:
/**
 * \brief Sync version of i2c set slave address
 */
int32_t i2c_m_sync_set_slaveaddr(struct i2c_m_sync_desc *i2c, int16_t addr, int32_t addr_len)
{
	return i2c->slave_addr = (addr & 0x3ff) | (addr_len & I2C_M_TEN);
     434:	0589      	lsls	r1, r1, #22
     436:	0d89      	lsrs	r1, r1, #22
     438:	2380      	movs	r3, #128	; 0x80
     43a:	00db      	lsls	r3, r3, #3
     43c:	401a      	ands	r2, r3
     43e:	430a      	orrs	r2, r1
     440:	8382      	strh	r2, [r0, #28]
}
     442:	0010      	movs	r0, r2
     444:	4770      	bx	lr

00000446 <i2c_m_sync_get_io_descriptor>:
/**
 * \brief Retrieve I/O descriptor
 */
int32_t i2c_m_sync_get_io_descriptor(struct i2c_m_sync_desc *const i2c, struct io_descriptor **io)
{
	*io = &i2c->io;
     446:	3014      	adds	r0, #20
     448:	6008      	str	r0, [r1, #0]
	return ERR_NONE;
}
     44a:	2000      	movs	r0, #0
     44c:	4770      	bx	lr
	...

00000450 <io_write>:

/**
 * \brief I/O write interface
 */
int32_t io_write(struct io_descriptor *const io_descr, const uint8_t *const buf, const uint16_t length)
{
     450:	b570      	push	{r4, r5, r6, lr}
     452:	0004      	movs	r4, r0
     454:	000d      	movs	r5, r1
     456:	0016      	movs	r6, r2
	ASSERT(io_descr && buf);
     458:	2800      	cmp	r0, #0
     45a:	d00e      	beq.n	47a <io_write+0x2a>
     45c:	2900      	cmp	r1, #0
     45e:	d00a      	beq.n	476 <io_write+0x26>
     460:	2001      	movs	r0, #1
     462:	2234      	movs	r2, #52	; 0x34
     464:	4906      	ldr	r1, [pc, #24]	; (480 <io_write+0x30>)
     466:	4b07      	ldr	r3, [pc, #28]	; (484 <io_write+0x34>)
     468:	4798      	blx	r3
	return io_descr->write(io_descr, buf, length);
     46a:	6823      	ldr	r3, [r4, #0]
     46c:	0032      	movs	r2, r6
     46e:	0029      	movs	r1, r5
     470:	0020      	movs	r0, r4
     472:	4798      	blx	r3
}
     474:	bd70      	pop	{r4, r5, r6, pc}
	ASSERT(io_descr && buf);
     476:	2000      	movs	r0, #0
     478:	e7f3      	b.n	462 <io_write+0x12>
     47a:	2000      	movs	r0, #0
     47c:	e7f1      	b.n	462 <io_write+0x12>
     47e:	46c0      	nop			; (mov r8, r8)
     480:	00008b18 	.word	0x00008b18
     484:	00000725 	.word	0x00000725

00000488 <io_read>:

/**
 * \brief I/O read interface
 */
int32_t io_read(struct io_descriptor *const io_descr, uint8_t *const buf, const uint16_t length)
{
     488:	b570      	push	{r4, r5, r6, lr}
     48a:	0004      	movs	r4, r0
     48c:	000d      	movs	r5, r1
     48e:	0016      	movs	r6, r2
	ASSERT(io_descr && buf);
     490:	2800      	cmp	r0, #0
     492:	d00e      	beq.n	4b2 <io_read+0x2a>
     494:	2900      	cmp	r1, #0
     496:	d00a      	beq.n	4ae <io_read+0x26>
     498:	2001      	movs	r0, #1
     49a:	223d      	movs	r2, #61	; 0x3d
     49c:	4906      	ldr	r1, [pc, #24]	; (4b8 <io_read+0x30>)
     49e:	4b07      	ldr	r3, [pc, #28]	; (4bc <io_read+0x34>)
     4a0:	4798      	blx	r3
	return io_descr->read(io_descr, buf, length);
     4a2:	6863      	ldr	r3, [r4, #4]
     4a4:	0032      	movs	r2, r6
     4a6:	0029      	movs	r1, r5
     4a8:	0020      	movs	r0, r4
     4aa:	4798      	blx	r3
}
     4ac:	bd70      	pop	{r4, r5, r6, pc}
	ASSERT(io_descr && buf);
     4ae:	2000      	movs	r0, #0
     4b0:	e7f3      	b.n	49a <io_read+0x12>
     4b2:	2000      	movs	r0, #0
     4b4:	e7f1      	b.n	49a <io_read+0x12>
     4b6:	46c0      	nop			; (mov r8, r8)
     4b8:	00008b18 	.word	0x00008b18
     4bc:	00000725 	.word	0x00000725

000004c0 <usart_transmission_complete>:
 * \brief Process completion of data sending
 *
 * \param[in] device The pointer to device structure
 */
static void usart_transmission_complete(struct _usart_async_device *device)
{
     4c0:	b510      	push	{r4, lr}
	struct usart_async_descriptor *descr = CONTAINER_OF(device, struct usart_async_descriptor, device);
     4c2:	3808      	subs	r0, #8

	descr->stat = 0;
     4c4:	2300      	movs	r3, #0
     4c6:	6303      	str	r3, [r0, #48]	; 0x30
	if (descr->usart_cb.tx_done) {
     4c8:	6a43      	ldr	r3, [r0, #36]	; 0x24
     4ca:	2b00      	cmp	r3, #0
     4cc:	d000      	beq.n	4d0 <usart_transmission_complete+0x10>
		descr->usart_cb.tx_done(descr);
     4ce:	4798      	blx	r3
	}
}
     4d0:	bd10      	pop	{r4, pc}

000004d2 <usart_error>:
 * \brief Process error interrupt
 *
 * \param[in] device The pointer to device structure
 */
static void usart_error(struct _usart_async_device *device)
{
     4d2:	b510      	push	{r4, lr}
	struct usart_async_descriptor *descr = CONTAINER_OF(device, struct usart_async_descriptor, device);
     4d4:	3808      	subs	r0, #8

	descr->stat = 0;
     4d6:	2300      	movs	r3, #0
     4d8:	6303      	str	r3, [r0, #48]	; 0x30
	if (descr->usart_cb.error) {
     4da:	6ac3      	ldr	r3, [r0, #44]	; 0x2c
     4dc:	2b00      	cmp	r3, #0
     4de:	d000      	beq.n	4e2 <usart_error+0x10>
		descr->usart_cb.error(descr);
     4e0:	4798      	blx	r3
	}
}
     4e2:	bd10      	pop	{r4, pc}

000004e4 <usart_fill_rx_buffer>:
{
     4e4:	b510      	push	{r4, lr}
	struct usart_async_descriptor *descr = CONTAINER_OF(device, struct usart_async_descriptor, device);
     4e6:	0004      	movs	r4, r0
	ringbuffer_put(&descr->rx, data);
     4e8:	302c      	adds	r0, #44	; 0x2c
     4ea:	4b04      	ldr	r3, [pc, #16]	; (4fc <usart_fill_rx_buffer+0x18>)
     4ec:	4798      	blx	r3
	if (descr->usart_cb.rx_done) {
     4ee:	6a23      	ldr	r3, [r4, #32]
	struct usart_async_descriptor *descr = CONTAINER_OF(device, struct usart_async_descriptor, device);
     4f0:	3c08      	subs	r4, #8
	if (descr->usart_cb.rx_done) {
     4f2:	2b00      	cmp	r3, #0
     4f4:	d001      	beq.n	4fa <usart_fill_rx_buffer+0x16>
		descr->usart_cb.rx_done(descr);
     4f6:	0020      	movs	r0, r4
     4f8:	4798      	blx	r3
}
     4fa:	bd10      	pop	{r4, pc}
     4fc:	000007c5 	.word	0x000007c5

00000500 <usart_async_write>:
{
     500:	b570      	push	{r4, r5, r6, lr}
     502:	0004      	movs	r4, r0
     504:	000e      	movs	r6, r1
     506:	0015      	movs	r5, r2
	ASSERT(descr && buf && length);
     508:	2800      	cmp	r0, #0
     50a:	d01d      	beq.n	548 <usart_async_write+0x48>
     50c:	2900      	cmp	r1, #0
     50e:	d01d      	beq.n	54c <usart_async_write+0x4c>
     510:	2a00      	cmp	r2, #0
     512:	d11d      	bne.n	550 <usart_async_write+0x50>
     514:	2000      	movs	r0, #0
     516:	223c      	movs	r2, #60	; 0x3c
     518:	32ff      	adds	r2, #255	; 0xff
     51a:	4910      	ldr	r1, [pc, #64]	; (55c <usart_async_write+0x5c>)
     51c:	4b10      	ldr	r3, [pc, #64]	; (560 <usart_async_write+0x60>)
     51e:	4798      	blx	r3
	if (descr->tx_por != descr->tx_buffer_length) {
     520:	2344      	movs	r3, #68	; 0x44
     522:	5ae2      	ldrh	r2, [r4, r3]
     524:	3308      	adds	r3, #8
     526:	5ae3      	ldrh	r3, [r4, r3]
     528:	429a      	cmp	r2, r3
     52a:	d113      	bne.n	554 <usart_async_write+0x54>
	descr->tx_buffer        = (uint8_t *)buf;
     52c:	64a6      	str	r6, [r4, #72]	; 0x48
	descr->tx_buffer_length = length;
     52e:	234c      	movs	r3, #76	; 0x4c
     530:	52e5      	strh	r5, [r4, r3]
	descr->tx_por           = 0;
     532:	2200      	movs	r2, #0
     534:	3b08      	subs	r3, #8
     536:	52e2      	strh	r2, [r4, r3]
	descr->stat             = USART_ASYNC_STATUS_BUSY;
     538:	3b43      	subs	r3, #67	; 0x43
     53a:	6323      	str	r3, [r4, #48]	; 0x30
	_usart_async_enable_byte_sent_irq(&descr->device);
     53c:	0020      	movs	r0, r4
     53e:	3008      	adds	r0, #8
     540:	4b08      	ldr	r3, [pc, #32]	; (564 <usart_async_write+0x64>)
     542:	4798      	blx	r3
	return (int32_t)length;
     544:	0028      	movs	r0, r5
}
     546:	bd70      	pop	{r4, r5, r6, pc}
	ASSERT(descr && buf && length);
     548:	2000      	movs	r0, #0
     54a:	e7e4      	b.n	516 <usart_async_write+0x16>
     54c:	2000      	movs	r0, #0
     54e:	e7e2      	b.n	516 <usart_async_write+0x16>
     550:	2001      	movs	r0, #1
     552:	e7e0      	b.n	516 <usart_async_write+0x16>
		return ERR_NO_RESOURCE;
     554:	201c      	movs	r0, #28
     556:	4240      	negs	r0, r0
     558:	e7f5      	b.n	546 <usart_async_write+0x46>
     55a:	46c0      	nop			; (mov r8, r8)
     55c:	00008b2c 	.word	0x00008b2c
     560:	00000725 	.word	0x00000725
     564:	00000edf 	.word	0x00000edf

00000568 <usart_process_byte_sent>:
{
     568:	b570      	push	{r4, r5, r6, lr}
     56a:	0004      	movs	r4, r0
	if (descr->tx_por != descr->tx_buffer_length) {
     56c:	0002      	movs	r2, r0
     56e:	3a08      	subs	r2, #8
     570:	2344      	movs	r3, #68	; 0x44
     572:	5ad3      	ldrh	r3, [r2, r3]
     574:	214c      	movs	r1, #76	; 0x4c
     576:	5a52      	ldrh	r2, [r2, r1]
     578:	4293      	cmp	r3, r2
     57a:	d00d      	beq.n	598 <usart_process_byte_sent+0x30>
		_usart_async_write_byte(&descr->device, descr->tx_buffer[descr->tx_por++]);
     57c:	0002      	movs	r2, r0
     57e:	6c01      	ldr	r1, [r0, #64]	; 0x40
     580:	3a08      	subs	r2, #8
     582:	1c5d      	adds	r5, r3, #1
     584:	2044      	movs	r0, #68	; 0x44
     586:	5215      	strh	r5, [r2, r0]
     588:	5cc9      	ldrb	r1, [r1, r3]
     58a:	0020      	movs	r0, r4
     58c:	4b04      	ldr	r3, [pc, #16]	; (5a0 <usart_process_byte_sent+0x38>)
     58e:	4798      	blx	r3
		_usart_async_enable_byte_sent_irq(&descr->device);
     590:	0020      	movs	r0, r4
     592:	4b04      	ldr	r3, [pc, #16]	; (5a4 <usart_process_byte_sent+0x3c>)
     594:	4798      	blx	r3
}
     596:	bd70      	pop	{r4, r5, r6, pc}
		_usart_async_enable_tx_done_irq(&descr->device);
     598:	4b03      	ldr	r3, [pc, #12]	; (5a8 <usart_process_byte_sent+0x40>)
     59a:	4798      	blx	r3
}
     59c:	e7fb      	b.n	596 <usart_process_byte_sent+0x2e>
     59e:	46c0      	nop			; (mov r8, r8)
     5a0:	00000ed7 	.word	0x00000ed7
     5a4:	00000edf 	.word	0x00000edf
     5a8:	00000ee7 	.word	0x00000ee7

000005ac <usart_async_read>:
{
     5ac:	b5f0      	push	{r4, r5, r6, r7, lr}
     5ae:	b085      	sub	sp, #20
     5b0:	0004      	movs	r4, r0
     5b2:	000d      	movs	r5, r1
     5b4:	0016      	movs	r6, r2
	ASSERT(descr && buf && length);
     5b6:	2800      	cmp	r0, #0
     5b8:	d017      	beq.n	5ea <usart_async_read+0x3e>
     5ba:	2900      	cmp	r1, #0
     5bc:	d017      	beq.n	5ee <usart_async_read+0x42>
     5be:	2a00      	cmp	r2, #0
     5c0:	d117      	bne.n	5f2 <usart_async_read+0x46>
     5c2:	2000      	movs	r0, #0
     5c4:	22ac      	movs	r2, #172	; 0xac
     5c6:	0052      	lsls	r2, r2, #1
     5c8:	4912      	ldr	r1, [pc, #72]	; (614 <usart_async_read+0x68>)
     5ca:	4b13      	ldr	r3, [pc, #76]	; (618 <usart_async_read+0x6c>)
     5cc:	4798      	blx	r3
	CRITICAL_SECTION_ENTER()
     5ce:	a803      	add	r0, sp, #12
     5d0:	4b12      	ldr	r3, [pc, #72]	; (61c <usart_async_read+0x70>)
     5d2:	4798      	blx	r3
	num = ringbuffer_num(&descr->rx);
     5d4:	3434      	adds	r4, #52	; 0x34
     5d6:	0020      	movs	r0, r4
     5d8:	9401      	str	r4, [sp, #4]
     5da:	4b11      	ldr	r3, [pc, #68]	; (620 <usart_async_read+0x74>)
     5dc:	4798      	blx	r3
     5de:	0007      	movs	r7, r0
	CRITICAL_SECTION_LEAVE()
     5e0:	a803      	add	r0, sp, #12
     5e2:	4b10      	ldr	r3, [pc, #64]	; (624 <usart_async_read+0x78>)
     5e4:	4798      	blx	r3
	uint16_t                       was_read = 0;
     5e6:	2400      	movs	r4, #0
	while ((was_read < num) && (was_read < length)) {
     5e8:	e00b      	b.n	602 <usart_async_read+0x56>
	ASSERT(descr && buf && length);
     5ea:	2000      	movs	r0, #0
     5ec:	e7ea      	b.n	5c4 <usart_async_read+0x18>
     5ee:	2000      	movs	r0, #0
     5f0:	e7e8      	b.n	5c4 <usart_async_read+0x18>
     5f2:	2001      	movs	r0, #1
     5f4:	e7e6      	b.n	5c4 <usart_async_read+0x18>
		ringbuffer_get(&descr->rx, &buf[was_read++]);
     5f6:	3401      	adds	r4, #1
     5f8:	b2a4      	uxth	r4, r4
     5fa:	1869      	adds	r1, r5, r1
     5fc:	9801      	ldr	r0, [sp, #4]
     5fe:	4b0a      	ldr	r3, [pc, #40]	; (628 <usart_async_read+0x7c>)
     600:	4798      	blx	r3
	while ((was_read < num) && (was_read < length)) {
     602:	0021      	movs	r1, r4
     604:	42a7      	cmp	r7, r4
     606:	d901      	bls.n	60c <usart_async_read+0x60>
     608:	42b4      	cmp	r4, r6
     60a:	d3f4      	bcc.n	5f6 <usart_async_read+0x4a>
}
     60c:	0020      	movs	r0, r4
     60e:	b005      	add	sp, #20
     610:	bdf0      	pop	{r4, r5, r6, r7, pc}
     612:	46c0      	nop			; (mov r8, r8)
     614:	00008b2c 	.word	0x00008b2c
     618:	00000725 	.word	0x00000725
     61c:	00000345 	.word	0x00000345
     620:	00000805 	.word	0x00000805
     624:	00000353 	.word	0x00000353
     628:	00000779 	.word	0x00000779

0000062c <usart_async_init>:
{
     62c:	b5f8      	push	{r3, r4, r5, r6, r7, lr}
     62e:	0004      	movs	r4, r0
     630:	000d      	movs	r5, r1
     632:	0016      	movs	r6, r2
     634:	001f      	movs	r7, r3
	ASSERT(descr && hw && rx_buffer && rx_buffer_length);
     636:	2800      	cmp	r0, #0
     638:	d026      	beq.n	688 <usart_async_init+0x5c>
     63a:	2900      	cmp	r1, #0
     63c:	d026      	beq.n	68c <usart_async_init+0x60>
     63e:	2a00      	cmp	r2, #0
     640:	d026      	beq.n	690 <usart_async_init+0x64>
     642:	2b00      	cmp	r3, #0
     644:	d126      	bne.n	694 <usart_async_init+0x68>
     646:	2000      	movs	r0, #0
     648:	223a      	movs	r2, #58	; 0x3a
     64a:	4915      	ldr	r1, [pc, #84]	; (6a0 <usart_async_init+0x74>)
     64c:	4b15      	ldr	r3, [pc, #84]	; (6a4 <usart_async_init+0x78>)
     64e:	4798      	blx	r3
	if (ERR_NONE != ringbuffer_init(&descr->rx, rx_buffer, rx_buffer_length)) {
     650:	0020      	movs	r0, r4
     652:	3034      	adds	r0, #52	; 0x34
     654:	003a      	movs	r2, r7
     656:	0031      	movs	r1, r6
     658:	4b13      	ldr	r3, [pc, #76]	; (6a8 <usart_async_init+0x7c>)
     65a:	4798      	blx	r3
     65c:	2800      	cmp	r0, #0
     65e:	d11b      	bne.n	698 <usart_async_init+0x6c>
	init_status = _usart_async_init(&descr->device, hw);
     660:	0020      	movs	r0, r4
     662:	3008      	adds	r0, #8
     664:	0029      	movs	r1, r5
     666:	4b11      	ldr	r3, [pc, #68]	; (6ac <usart_async_init+0x80>)
     668:	4798      	blx	r3
	if (init_status) {
     66a:	2800      	cmp	r0, #0
     66c:	d10b      	bne.n	686 <usart_async_init+0x5a>
	descr->io.read  = usart_async_read;
     66e:	4b10      	ldr	r3, [pc, #64]	; (6b0 <usart_async_init+0x84>)
     670:	6063      	str	r3, [r4, #4]
	descr->io.write = usart_async_write;
     672:	4b10      	ldr	r3, [pc, #64]	; (6b4 <usart_async_init+0x88>)
     674:	6023      	str	r3, [r4, #0]
	descr->device.usart_cb.tx_byte_sent = usart_process_byte_sent;
     676:	4b10      	ldr	r3, [pc, #64]	; (6b8 <usart_async_init+0x8c>)
     678:	60a3      	str	r3, [r4, #8]
	descr->device.usart_cb.rx_done_cb   = usart_fill_rx_buffer;
     67a:	4b10      	ldr	r3, [pc, #64]	; (6bc <usart_async_init+0x90>)
     67c:	60e3      	str	r3, [r4, #12]
	descr->device.usart_cb.tx_done_cb   = usart_transmission_complete;
     67e:	4b10      	ldr	r3, [pc, #64]	; (6c0 <usart_async_init+0x94>)
     680:	6123      	str	r3, [r4, #16]
	descr->device.usart_cb.error_cb     = usart_error;
     682:	4b10      	ldr	r3, [pc, #64]	; (6c4 <usart_async_init+0x98>)
     684:	6163      	str	r3, [r4, #20]
}
     686:	bdf8      	pop	{r3, r4, r5, r6, r7, pc}
	ASSERT(descr && hw && rx_buffer && rx_buffer_length);
     688:	2000      	movs	r0, #0
     68a:	e7dd      	b.n	648 <usart_async_init+0x1c>
     68c:	2000      	movs	r0, #0
     68e:	e7db      	b.n	648 <usart_async_init+0x1c>
     690:	2000      	movs	r0, #0
     692:	e7d9      	b.n	648 <usart_async_init+0x1c>
     694:	2001      	movs	r0, #1
     696:	e7d7      	b.n	648 <usart_async_init+0x1c>
		return ERR_INVALID_ARG;
     698:	200d      	movs	r0, #13
     69a:	4240      	negs	r0, r0
     69c:	e7f3      	b.n	686 <usart_async_init+0x5a>
     69e:	46c0      	nop			; (mov r8, r8)
     6a0:	00008b2c 	.word	0x00008b2c
     6a4:	00000725 	.word	0x00000725
     6a8:	0000072d 	.word	0x0000072d
     6ac:	00000e39 	.word	0x00000e39
     6b0:	000005ad 	.word	0x000005ad
     6b4:	00000501 	.word	0x00000501
     6b8:	00000569 	.word	0x00000569
     6bc:	000004e5 	.word	0x000004e5
     6c0:	000004c1 	.word	0x000004c1
     6c4:	000004d3 	.word	0x000004d3

000006c8 <usart_async_enable>:
{
     6c8:	b510      	push	{r4, lr}
     6ca:	0004      	movs	r4, r0
	ASSERT(descr);
     6cc:	1e43      	subs	r3, r0, #1
     6ce:	4198      	sbcs	r0, r3
     6d0:	b2c0      	uxtb	r0, r0
     6d2:	2261      	movs	r2, #97	; 0x61
     6d4:	4904      	ldr	r1, [pc, #16]	; (6e8 <usart_async_enable+0x20>)
     6d6:	4b05      	ldr	r3, [pc, #20]	; (6ec <usart_async_enable+0x24>)
     6d8:	4798      	blx	r3
	_usart_async_enable(&descr->device);
     6da:	0020      	movs	r0, r4
     6dc:	3008      	adds	r0, #8
     6de:	4b04      	ldr	r3, [pc, #16]	; (6f0 <usart_async_enable+0x28>)
     6e0:	4798      	blx	r3
}
     6e2:	2000      	movs	r0, #0
     6e4:	bd10      	pop	{r4, pc}
     6e6:	46c0      	nop			; (mov r8, r8)
     6e8:	00008b2c 	.word	0x00008b2c
     6ec:	00000725 	.word	0x00000725
     6f0:	00000ec5 	.word	0x00000ec5

000006f4 <usart_async_get_io_descriptor>:
{
     6f4:	b570      	push	{r4, r5, r6, lr}
     6f6:	0004      	movs	r4, r0
     6f8:	000d      	movs	r5, r1
	ASSERT(descr && io);
     6fa:	2800      	cmp	r0, #0
     6fc:	d00b      	beq.n	716 <usart_async_get_io_descriptor+0x22>
     6fe:	2900      	cmp	r1, #0
     700:	d007      	beq.n	712 <usart_async_get_io_descriptor+0x1e>
     702:	2001      	movs	r0, #1
     704:	2277      	movs	r2, #119	; 0x77
     706:	4905      	ldr	r1, [pc, #20]	; (71c <usart_async_get_io_descriptor+0x28>)
     708:	4b05      	ldr	r3, [pc, #20]	; (720 <usart_async_get_io_descriptor+0x2c>)
     70a:	4798      	blx	r3
	*io = &descr->io;
     70c:	602c      	str	r4, [r5, #0]
}
     70e:	2000      	movs	r0, #0
     710:	bd70      	pop	{r4, r5, r6, pc}
	ASSERT(descr && io);
     712:	2000      	movs	r0, #0
     714:	e7f6      	b.n	704 <usart_async_get_io_descriptor+0x10>
     716:	2000      	movs	r0, #0
     718:	e7f4      	b.n	704 <usart_async_get_io_descriptor+0x10>
     71a:	46c0      	nop			; (mov r8, r8)
     71c:	00008b2c 	.word	0x00008b2c
     720:	00000725 	.word	0x00000725

00000724 <assert>:
/**
 * \brief Assert function
 */
void assert(const bool condition, const char *const file, const int line)
{
	if (!(condition)) {
     724:	2800      	cmp	r0, #0
     726:	d100      	bne.n	72a <assert+0x6>
		__asm("BKPT #0");
     728:	be00      	bkpt	0x0000
	}
	(void)file;
	(void)line;
}
     72a:	4770      	bx	lr

0000072c <ringbuffer_init>:

/**
 * \brief Ringbuffer init
 */
int32_t ringbuffer_init(struct ringbuffer *const rb, void *buf, uint32_t size)
{
     72c:	b570      	push	{r4, r5, r6, lr}
     72e:	0004      	movs	r4, r0
     730:	000e      	movs	r6, r1
     732:	0015      	movs	r5, r2
	ASSERT(rb && buf && size);
     734:	2800      	cmp	r0, #0
     736:	d012      	beq.n	75e <ringbuffer_init+0x32>
     738:	2900      	cmp	r1, #0
     73a:	d012      	beq.n	762 <ringbuffer_init+0x36>
     73c:	2a00      	cmp	r2, #0
     73e:	d112      	bne.n	766 <ringbuffer_init+0x3a>
     740:	2000      	movs	r0, #0
     742:	2228      	movs	r2, #40	; 0x28
     744:	490a      	ldr	r1, [pc, #40]	; (770 <ringbuffer_init+0x44>)
     746:	4b0b      	ldr	r3, [pc, #44]	; (774 <ringbuffer_init+0x48>)
     748:	4798      	blx	r3

	/*
	 * buf size must be aligned to power of 2
	 */
	if ((size & (size - 1)) != 0) {
     74a:	1e6b      	subs	r3, r5, #1
     74c:	422b      	tst	r3, r5
     74e:	d10c      	bne.n	76a <ringbuffer_init+0x3e>
		return ERR_INVALID_ARG;
	}

	/* size - 1 is faster in calculation */
	rb->size        = size - 1;
     750:	6063      	str	r3, [r4, #4]
	rb->read_index  = 0;
     752:	2300      	movs	r3, #0
     754:	60a3      	str	r3, [r4, #8]
	rb->write_index = rb->read_index;
     756:	60e3      	str	r3, [r4, #12]
	rb->buf         = (uint8_t *)buf;
     758:	6026      	str	r6, [r4, #0]

	return ERR_NONE;
     75a:	2000      	movs	r0, #0
}
     75c:	bd70      	pop	{r4, r5, r6, pc}
	ASSERT(rb && buf && size);
     75e:	2000      	movs	r0, #0
     760:	e7ef      	b.n	742 <ringbuffer_init+0x16>
     762:	2000      	movs	r0, #0
     764:	e7ed      	b.n	742 <ringbuffer_init+0x16>
     766:	2001      	movs	r0, #1
     768:	e7eb      	b.n	742 <ringbuffer_init+0x16>
		return ERR_INVALID_ARG;
     76a:	200d      	movs	r0, #13
     76c:	4240      	negs	r0, r0
     76e:	e7f5      	b.n	75c <ringbuffer_init+0x30>
     770:	00008b4c 	.word	0x00008b4c
     774:	00000725 	.word	0x00000725

00000778 <ringbuffer_get>:
/**
 * \brief Get one byte from ringbuffer
 *
 */
int32_t ringbuffer_get(struct ringbuffer *const rb, uint8_t *data)
{
     778:	b570      	push	{r4, r5, r6, lr}
     77a:	0004      	movs	r4, r0
     77c:	000d      	movs	r5, r1
	ASSERT(rb && data);
     77e:	2800      	cmp	r0, #0
     780:	d016      	beq.n	7b0 <ringbuffer_get+0x38>
     782:	2900      	cmp	r1, #0
     784:	d012      	beq.n	7ac <ringbuffer_get+0x34>
     786:	2001      	movs	r0, #1
     788:	2240      	movs	r2, #64	; 0x40
     78a:	490c      	ldr	r1, [pc, #48]	; (7bc <ringbuffer_get+0x44>)
     78c:	4b0c      	ldr	r3, [pc, #48]	; (7c0 <ringbuffer_get+0x48>)
     78e:	4798      	blx	r3

	if (rb->write_index != rb->read_index) {
     790:	68a3      	ldr	r3, [r4, #8]
     792:	68e2      	ldr	r2, [r4, #12]
     794:	429a      	cmp	r2, r3
     796:	d00d      	beq.n	7b4 <ringbuffer_get+0x3c>
		*data = rb->buf[rb->read_index & rb->size];
     798:	6862      	ldr	r2, [r4, #4]
     79a:	4013      	ands	r3, r2
     79c:	6822      	ldr	r2, [r4, #0]
     79e:	5cd3      	ldrb	r3, [r2, r3]
     7a0:	702b      	strb	r3, [r5, #0]
		rb->read_index++;
     7a2:	68a3      	ldr	r3, [r4, #8]
     7a4:	3301      	adds	r3, #1
     7a6:	60a3      	str	r3, [r4, #8]
		return ERR_NONE;
     7a8:	2000      	movs	r0, #0
	}

	return ERR_NOT_FOUND;
}
     7aa:	bd70      	pop	{r4, r5, r6, pc}
	ASSERT(rb && data);
     7ac:	2000      	movs	r0, #0
     7ae:	e7eb      	b.n	788 <ringbuffer_get+0x10>
     7b0:	2000      	movs	r0, #0
     7b2:	e7e9      	b.n	788 <ringbuffer_get+0x10>
	return ERR_NOT_FOUND;
     7b4:	200a      	movs	r0, #10
     7b6:	4240      	negs	r0, r0
     7b8:	e7f7      	b.n	7aa <ringbuffer_get+0x32>
     7ba:	46c0      	nop			; (mov r8, r8)
     7bc:	00008b4c 	.word	0x00008b4c
     7c0:	00000725 	.word	0x00000725

000007c4 <ringbuffer_put>:
/**
 * \brief Put one byte to ringbuffer
 *
 */
int32_t ringbuffer_put(struct ringbuffer *const rb, uint8_t data)
{
     7c4:	b570      	push	{r4, r5, r6, lr}
     7c6:	0004      	movs	r4, r0
     7c8:	000d      	movs	r5, r1
	ASSERT(rb);
     7ca:	1e43      	subs	r3, r0, #1
     7cc:	4198      	sbcs	r0, r3
     7ce:	b2c0      	uxtb	r0, r0
     7d0:	2251      	movs	r2, #81	; 0x51
     7d2:	490a      	ldr	r1, [pc, #40]	; (7fc <ringbuffer_put+0x38>)
     7d4:	4b0a      	ldr	r3, [pc, #40]	; (800 <ringbuffer_put+0x3c>)
     7d6:	4798      	blx	r3

	rb->buf[rb->write_index & rb->size] = data;
     7d8:	6863      	ldr	r3, [r4, #4]
     7da:	68e2      	ldr	r2, [r4, #12]
     7dc:	4013      	ands	r3, r2
     7de:	6822      	ldr	r2, [r4, #0]
     7e0:	54d5      	strb	r5, [r2, r3]

	/*
	 * buffer full strategy: new data will overwrite the oldest data in
	 * the buffer
	 */
	if ((rb->write_index - rb->read_index) > rb->size) {
     7e2:	68e3      	ldr	r3, [r4, #12]
     7e4:	68a2      	ldr	r2, [r4, #8]
     7e6:	1a9a      	subs	r2, r3, r2
     7e8:	6861      	ldr	r1, [r4, #4]
     7ea:	428a      	cmp	r2, r1
     7ec:	d901      	bls.n	7f2 <ringbuffer_put+0x2e>
		rb->read_index = rb->write_index - rb->size;
     7ee:	1a59      	subs	r1, r3, r1
     7f0:	60a1      	str	r1, [r4, #8]
	}

	rb->write_index++;
     7f2:	3301      	adds	r3, #1
     7f4:	60e3      	str	r3, [r4, #12]

	return ERR_NONE;
}
     7f6:	2000      	movs	r0, #0
     7f8:	bd70      	pop	{r4, r5, r6, pc}
     7fa:	46c0      	nop			; (mov r8, r8)
     7fc:	00008b4c 	.word	0x00008b4c
     800:	00000725 	.word	0x00000725

00000804 <ringbuffer_num>:

/**
 * \brief Return the element number of ringbuffer
 */
uint32_t ringbuffer_num(const struct ringbuffer *const rb)
{
     804:	b510      	push	{r4, lr}
     806:	0004      	movs	r4, r0
	ASSERT(rb);
     808:	1e43      	subs	r3, r0, #1
     80a:	4198      	sbcs	r0, r3
     80c:	b2c0      	uxtb	r0, r0
     80e:	2267      	movs	r2, #103	; 0x67
     810:	4903      	ldr	r1, [pc, #12]	; (820 <ringbuffer_num+0x1c>)
     812:	4b04      	ldr	r3, [pc, #16]	; (824 <ringbuffer_num+0x20>)
     814:	4798      	blx	r3

	return rb->write_index - rb->read_index;
     816:	68e0      	ldr	r0, [r4, #12]
     818:	68a3      	ldr	r3, [r4, #8]
     81a:	1ac0      	subs	r0, r0, r3
}
     81c:	bd10      	pop	{r4, pc}
     81e:	46c0      	nop			; (mov r8, r8)
     820:	00008b4c 	.word	0x00008b4c
     824:	00000725 	.word	0x00000725

00000828 <_sbrk>:

/**
 * \brief Replacement of C library of _sbrk
 */
extern caddr_t _sbrk(int incr)
{
     828:	0003      	movs	r3, r0
	static unsigned char *heap = NULL;
	unsigned char *       prev_heap;

	if (heap == NULL) {
     82a:	4a06      	ldr	r2, [pc, #24]	; (844 <_sbrk+0x1c>)
     82c:	6812      	ldr	r2, [r2, #0]
     82e:	2a00      	cmp	r2, #0
     830:	d004      	beq.n	83c <_sbrk+0x14>
		heap = (unsigned char *)&_end;
	}
	prev_heap = heap;
     832:	4a04      	ldr	r2, [pc, #16]	; (844 <_sbrk+0x1c>)
     834:	6810      	ldr	r0, [r2, #0]

	heap += incr;
     836:	18c3      	adds	r3, r0, r3
     838:	6013      	str	r3, [r2, #0]

	return (caddr_t)prev_heap;
}
     83a:	4770      	bx	lr
		heap = (unsigned char *)&_end;
     83c:	4902      	ldr	r1, [pc, #8]	; (848 <_sbrk+0x20>)
     83e:	4a01      	ldr	r2, [pc, #4]	; (844 <_sbrk+0x1c>)
     840:	6011      	str	r1, [r2, #0]
     842:	e7f6      	b.n	832 <_sbrk+0xa>
     844:	200009e0 	.word	0x200009e0
     848:	20002b38 	.word	0x20002b38

0000084c <_get_cycles_for_ms>:

/**
 * \brief Retrieve the amount of cycles to delay for the given amount of ms
 */
uint32_t _get_cycles_for_ms(const uint16_t ms)
{
     84c:	b510      	push	{r4, lr}
     84e:	0003      	movs	r3, r0
		return (ms * (freq / 10000) + 2) / 3 * 10;
     850:	20c8      	movs	r0, #200	; 0xc8
     852:	0080      	lsls	r0, r0, #2
     854:	4358      	muls	r0, r3
     856:	3002      	adds	r0, #2
     858:	2103      	movs	r1, #3
     85a:	4b03      	ldr	r3, [pc, #12]	; (868 <_get_cycles_for_ms+0x1c>)
     85c:	4798      	blx	r3
     85e:	0083      	lsls	r3, r0, #2
     860:	181b      	adds	r3, r3, r0
     862:	0058      	lsls	r0, r3, #1
	return _get_cycles_for_ms_internal(ms, CONF_CPU_FREQUENCY, CPU_FREQ_POWER);
}
     864:	bd10      	pop	{r4, pc}
     866:	46c0      	nop			; (mov r8, r8)
     868:	00001a5d 	.word	0x00001a5d

0000086c <_delay_cycles>:
{
#ifndef _UNIT_TEST_
	(void)hw;
	(void)cycles;
#if defined __GNUC__
	__asm(".syntax unified\n"
     86c:	3901      	subs	r1, #1
     86e:	d8fd      	bhi.n	86c <_delay_cycles>
	__asm("__delay:\n"
	      "subs r1, r1, #1\n"
	      "bhi __delay\n");
#endif
#endif
}
     870:	4770      	bx	lr
	...

00000874 <_init_chip>:

/**
 * \brief Initialize the hardware abstraction layer
 */
void _init_chip(void)
{
     874:	b510      	push	{r4, lr}
}

static inline void hri_nvmctrl_set_CTRLB_RWS_bf(const void *const hw, hri_nvmctrl_ctrlb_reg_t mask)
{
	NVMCTRL_CRITICAL_SECTION_ENTER();
	((Nvmctrl *)hw)->CTRLB.reg |= NVMCTRL_CTRLB_RWS(mask);
     876:	4b06      	ldr	r3, [pc, #24]	; (890 <_init_chip+0x1c>)
     878:	685a      	ldr	r2, [r3, #4]
     87a:	605a      	str	r2, [r3, #4]
	hri_nvmctrl_set_CTRLB_RWS_bf(NVMCTRL, CONF_NVM_WAIT_STATE);

	_pm_init();
     87c:	4b05      	ldr	r3, [pc, #20]	; (894 <_init_chip+0x20>)
     87e:	4798      	blx	r3
	_sysctrl_init_sources();
     880:	4b05      	ldr	r3, [pc, #20]	; (898 <_init_chip+0x24>)
     882:	4798      	blx	r3
#if _GCLK_INIT_1ST
	_gclk_init_generators_by_fref(_GCLK_INIT_1ST);
#endif
	_sysctrl_init_referenced_generators();
     884:	4b05      	ldr	r3, [pc, #20]	; (89c <_init_chip+0x28>)
     886:	4798      	blx	r3
	_gclk_init_generators_by_fref(_GCLK_INIT_LAST);
     888:	20ff      	movs	r0, #255	; 0xff
     88a:	4b05      	ldr	r3, [pc, #20]	; (8a0 <_init_chip+0x2c>)
     88c:	4798      	blx	r3
#if CONF_DMAC_ENABLE
	_pm_enable_bus_clock(PM_BUS_AHB, DMAC);
	_pm_enable_bus_clock(PM_BUS_APBB, DMAC);
	_dma_init();
#endif
}
     88e:	bd10      	pop	{r4, pc}
     890:	41004000 	.word	0x41004000
     894:	000008c5 	.word	0x000008c5
     898:	00001231 	.word	0x00001231
     89c:	00001275 	.word	0x00001275
     8a0:	000008a5 	.word	0x000008a5

000008a4 <_gclk_init_generators_by_fref>:

void _gclk_init_generators_by_fref(uint32_t bm)
{

#if CONF_GCLK_GENERATOR_0_CONFIG == 1
	if (bm & (1ul << 0)) {
     8a4:	07c3      	lsls	r3, r0, #31
     8a6:	d50a      	bpl.n	8be <_gclk_init_generators_by_fref+0x1a>
}

static inline void hri_gclk_write_GENDIV_reg(const void *const hw, hri_gclk_gendiv_reg_t data)
{
	GCLK_CRITICAL_SECTION_ENTER();
	((Gclk *)hw)->GENDIV.reg = data;
     8a8:	4b05      	ldr	r3, [pc, #20]	; (8c0 <_gclk_init_generators_by_fref+0x1c>)
     8aa:	2280      	movs	r2, #128	; 0x80
     8ac:	0052      	lsls	r2, r2, #1
     8ae:	609a      	str	r2, [r3, #8]
	((Gclk *)hw)->GENCTRL.reg = data;
     8b0:	2283      	movs	r2, #131	; 0x83
     8b2:	0252      	lsls	r2, r2, #9
     8b4:	605a      	str	r2, [r3, #4]
	while (((const Gclk *)hw)->STATUS.bit.SYNCBUSY)
     8b6:	4b02      	ldr	r3, [pc, #8]	; (8c0 <_gclk_init_generators_by_fref+0x1c>)
     8b8:	785b      	ldrb	r3, [r3, #1]
     8ba:	09db      	lsrs	r3, r3, #7
     8bc:	d1fb      	bne.n	8b6 <_gclk_init_generators_by_fref+0x12>
		        | (CONF_GCLK_GEN_8_DIVSEL << GCLK_GENCTRL_DIVSEL_Pos) | (CONF_GCLK_GEN_8_OE << GCLK_GENCTRL_OE_Pos)
		        | (CONF_GCLK_GEN_8_OOV << GCLK_GENCTRL_OOV_Pos) | (CONF_GCLK_GEN_8_IDC << GCLK_GENCTRL_IDC_Pos)
		        | (CONF_GCLK_GENERATOR_8_CONFIG << GCLK_GENCTRL_GENEN_Pos) | CONF_GCLK_GEN_8_SRC | GCLK_GENCTRL_ID(8));
	}
#endif
}
     8be:	4770      	bx	lr
     8c0:	40000c00 	.word	0x40000c00

000008c4 <_pm_init>:
}

static inline void hri_pm_set_CPUSEL_CPUDIV_bf(const void *const hw, hri_pm_cpusel_reg_t mask)
{
	PM_CRITICAL_SECTION_ENTER();
	((Pm *)hw)->CPUSEL.reg |= PM_CPUSEL_CPUDIV(mask);
     8c4:	4b06      	ldr	r3, [pc, #24]	; (8e0 <_pm_init+0x1c>)
     8c6:	7a1a      	ldrb	r2, [r3, #8]
     8c8:	b2d2      	uxtb	r2, r2
     8ca:	721a      	strb	r2, [r3, #8]
}

static inline void hri_pm_set_APBASEL_APBADIV_bf(const void *const hw, hri_pm_apbasel_reg_t mask)
{
	PM_CRITICAL_SECTION_ENTER();
	((Pm *)hw)->APBASEL.reg |= PM_APBASEL_APBADIV(mask);
     8cc:	7a5a      	ldrb	r2, [r3, #9]
     8ce:	b2d2      	uxtb	r2, r2
     8d0:	725a      	strb	r2, [r3, #9]
}

static inline void hri_pm_set_APBBSEL_APBBDIV_bf(const void *const hw, hri_pm_apbbsel_reg_t mask)
{
	PM_CRITICAL_SECTION_ENTER();
	((Pm *)hw)->APBBSEL.reg |= PM_APBBSEL_APBBDIV(mask);
     8d2:	7a9a      	ldrb	r2, [r3, #10]
     8d4:	b2d2      	uxtb	r2, r2
     8d6:	729a      	strb	r2, [r3, #10]
}

static inline void hri_pm_set_APBCSEL_APBCDIV_bf(const void *const hw, hri_pm_apbcsel_reg_t mask)
{
	PM_CRITICAL_SECTION_ENTER();
	((Pm *)hw)->APBCSEL.reg |= PM_APBCSEL_APBCDIV(mask);
     8d8:	7ada      	ldrb	r2, [r3, #11]
     8da:	b2d2      	uxtb	r2, r2
     8dc:	72da      	strb	r2, [r3, #11]
{
	hri_pm_set_CPUSEL_CPUDIV_bf(PM, CONF_CPU_DIV);
	hri_pm_set_APBASEL_APBADIV_bf(PM, CONF_APBA_DIV);
	hri_pm_set_APBBSEL_APBBDIV_bf(PM, CONF_APBB_DIV);
	hri_pm_set_APBCSEL_APBCDIV_bf(PM, CONF_APBC_DIV);
}
     8de:	4770      	bx	lr
     8e0:	40000400 	.word	0x40000400

000008e4 <_sercom_get_hardware_index>:
{
#ifdef _UNIT_TEST_
	return ((uint32_t)hw - (uint32_t)SERCOM0) / sizeof(Sercom);
#endif

	return ((uint32_t)hw - (uint32_t)SERCOM0) >> 10;
     8e4:	4b02      	ldr	r3, [pc, #8]	; (8f0 <_sercom_get_hardware_index+0xc>)
     8e6:	469c      	mov	ip, r3
     8e8:	4460      	add	r0, ip
     8ea:	0a80      	lsrs	r0, r0, #10
     8ec:	b2c0      	uxtb	r0, r0
}
     8ee:	4770      	bx	lr
     8f0:	bdfff800 	.word	0xbdfff800

000008f4 <_sercom_usart_interrupt_handler>:
 * \internal Sercom interrupt handler
 *
 * \param[in] p The pointer to interrupt parameter
 */
static void _sercom_usart_interrupt_handler(struct _usart_async_device *device)
{
     8f4:	b510      	push	{r4, lr}
	void *hw = device->hw;
     8f6:	6984      	ldr	r4, [r0, #24]
	((Sercom *)hw)->USART.INTFLAG.reg = SERCOM_USART_INTFLAG_ERROR;
}

static inline bool hri_sercomusart_get_interrupt_DRE_bit(const void *const hw)
{
	return (((Sercom *)hw)->USART.INTFLAG.reg & SERCOM_USART_INTFLAG_DRE) >> SERCOM_USART_INTFLAG_DRE_Pos;
     8f8:	7e23      	ldrb	r3, [r4, #24]

	if (hri_sercomusart_get_interrupt_DRE_bit(hw) && hri_sercomusart_get_INTEN_DRE_bit(hw)) {
     8fa:	07db      	lsls	r3, r3, #31
     8fc:	d502      	bpl.n	904 <_sercom_usart_interrupt_handler+0x10>
	((Sercom *)hw)->USART.INTENSET.reg = SERCOM_USART_INTENSET_DRE;
}

static inline bool hri_sercomusart_get_INTEN_DRE_bit(const void *const hw)
{
	return (((Sercom *)hw)->USART.INTENSET.reg & SERCOM_USART_INTENSET_DRE) >> SERCOM_USART_INTENSET_DRE_Pos;
     8fe:	7da3      	ldrb	r3, [r4, #22]
     900:	07db      	lsls	r3, r3, #31
     902:	d40f      	bmi.n	924 <_sercom_usart_interrupt_handler+0x30>
	return (((Sercom *)hw)->USART.INTFLAG.reg & SERCOM_USART_INTFLAG_TXC) >> SERCOM_USART_INTFLAG_TXC_Pos;
     904:	7e23      	ldrb	r3, [r4, #24]
		hri_sercomusart_clear_INTEN_DRE_bit(hw);
		device->usart_cb.tx_byte_sent(device);
	} else if (hri_sercomusart_get_interrupt_TXC_bit(hw) && hri_sercomusart_get_INTEN_TXC_bit(hw)) {
     906:	079b      	lsls	r3, r3, #30
     908:	d502      	bpl.n	910 <_sercom_usart_interrupt_handler+0x1c>
	((Sercom *)hw)->USART.INTENSET.reg = SERCOM_USART_INTENSET_TXC;
}

static inline bool hri_sercomusart_get_INTEN_TXC_bit(const void *const hw)
{
	return (((Sercom *)hw)->USART.INTENSET.reg & SERCOM_USART_INTENSET_TXC) >> SERCOM_USART_INTENSET_TXC_Pos;
     90a:	7da3      	ldrb	r3, [r4, #22]
     90c:	079b      	lsls	r3, r3, #30
     90e:	d40e      	bmi.n	92e <_sercom_usart_interrupt_handler+0x3a>
	return (((Sercom *)hw)->USART.INTFLAG.reg & SERCOM_USART_INTFLAG_RXC) >> SERCOM_USART_INTFLAG_RXC_Pos;
     910:	7e23      	ldrb	r3, [r4, #24]
		hri_sercomusart_clear_INTEN_TXC_bit(hw);
		device->usart_cb.tx_done_cb(device);
	} else if (hri_sercomusart_get_interrupt_RXC_bit(hw)) {
     912:	075b      	lsls	r3, r3, #29
     914:	d515      	bpl.n	942 <_sercom_usart_interrupt_handler+0x4e>
	SERCOM_CRITICAL_SECTION_LEAVE();
}

static inline hri_sercomusart_status_reg_t hri_sercomusart_read_STATUS_reg(const void *const hw)
{
	return ((Sercom *)hw)->USART.STATUS.reg;
     916:	8b62      	ldrh	r2, [r4, #26]
		if (hri_sercomusart_read_STATUS_reg(hw)
     918:	2337      	movs	r3, #55	; 0x37
     91a:	421a      	tst	r2, r3
     91c:	d00c      	beq.n	938 <_sercom_usart_interrupt_handler+0x44>
	((Sercom *)hw)->USART.STATUS.reg = mask;
     91e:	3308      	adds	r3, #8
     920:	8363      	strh	r3, [r4, #26]
		hri_sercomusart_clear_interrupt_ERROR_bit(hw);
		device->usart_cb.error_cb(device);
		status = hri_sercomusart_read_STATUS_reg(hw);
		hri_sercomusart_clear_STATUS_reg(hw, status);
	}
}
     922:	bd10      	pop	{r4, pc}
	((Sercom *)hw)->USART.INTENCLR.reg = SERCOM_USART_INTENSET_DRE;
     924:	2301      	movs	r3, #1
     926:	7523      	strb	r3, [r4, #20]
		device->usart_cb.tx_byte_sent(device);
     928:	6803      	ldr	r3, [r0, #0]
     92a:	4798      	blx	r3
     92c:	e7f9      	b.n	922 <_sercom_usart_interrupt_handler+0x2e>
	((Sercom *)hw)->USART.INTENCLR.reg = SERCOM_USART_INTENSET_TXC;
     92e:	2302      	movs	r3, #2
     930:	7523      	strb	r3, [r4, #20]
		device->usart_cb.tx_done_cb(device);
     932:	6883      	ldr	r3, [r0, #8]
     934:	4798      	blx	r3
     936:	e7f4      	b.n	922 <_sercom_usart_interrupt_handler+0x2e>
		device->usart_cb.rx_done_cb(device, hri_sercomusart_read_DATA_reg(hw));
     938:	6843      	ldr	r3, [r0, #4]
	return ((Sercom *)hw)->USART.DATA.reg;
     93a:	8d21      	ldrh	r1, [r4, #40]	; 0x28
     93c:	b2c9      	uxtb	r1, r1
     93e:	4798      	blx	r3
     940:	e7ef      	b.n	922 <_sercom_usart_interrupt_handler+0x2e>
	return (((Sercom *)hw)->USART.INTFLAG.reg & SERCOM_USART_INTFLAG_ERROR) >> SERCOM_USART_INTFLAG_ERROR_Pos;
     942:	7e23      	ldrb	r3, [r4, #24]
	} else if (hri_sercomusart_get_interrupt_ERROR_bit(hw)) {
     944:	09db      	lsrs	r3, r3, #7
     946:	d0ec      	beq.n	922 <_sercom_usart_interrupt_handler+0x2e>
	((Sercom *)hw)->USART.INTFLAG.reg = SERCOM_USART_INTFLAG_ERROR;
     948:	2380      	movs	r3, #128	; 0x80
     94a:	7623      	strb	r3, [r4, #24]
		device->usart_cb.error_cb(device);
     94c:	68c3      	ldr	r3, [r0, #12]
     94e:	4798      	blx	r3
	return ((Sercom *)hw)->USART.STATUS.reg;
     950:	8b63      	ldrh	r3, [r4, #26]
     952:	b29b      	uxth	r3, r3
	((Sercom *)hw)->USART.STATUS.reg = mask;
     954:	8363      	strh	r3, [r4, #26]
     956:	e7e4      	b.n	922 <_sercom_usart_interrupt_handler+0x2e>

00000958 <_sercom_init_irq_param>:
 * \brief Init irq param with the given sercom hardware instance
 */
static void _sercom_init_irq_param(const void *const hw, void *dev)
{

	if (hw == SERCOM5) {
     958:	4b03      	ldr	r3, [pc, #12]	; (968 <_sercom_init_irq_param+0x10>)
     95a:	4298      	cmp	r0, r3
     95c:	d000      	beq.n	960 <_sercom_init_irq_param+0x8>
		_sercom5_dev = (struct _usart_async_device *)dev;
	}
}
     95e:	4770      	bx	lr
		_sercom5_dev = (struct _usart_async_device *)dev;
     960:	4b02      	ldr	r3, [pc, #8]	; (96c <_sercom_init_irq_param+0x14>)
     962:	6019      	str	r1, [r3, #0]
}
     964:	e7fb      	b.n	95e <_sercom_init_irq_param+0x6>
     966:	46c0      	nop			; (mov r8, r8)
     968:	42001c00 	.word	0x42001c00
     96c:	200009e4 	.word	0x200009e4

00000970 <_sercom_get_irq_num>:

/**
 * \brief Retrieve IRQ number for the given hardware instance
 */
static uint8_t _sercom_get_irq_num(const void *const hw)
{
     970:	b510      	push	{r4, lr}
	return SERCOM0_IRQn + _sercom_get_hardware_index(hw);
     972:	4b02      	ldr	r3, [pc, #8]	; (97c <_sercom_get_irq_num+0xc>)
     974:	4798      	blx	r3
     976:	3009      	adds	r0, #9
     978:	b2c0      	uxtb	r0, r0
}
     97a:	bd10      	pop	{r4, pc}
     97c:	000008e5 	.word	0x000008e5

00000980 <_get_sercom_index>:
{
     980:	b510      	push	{r4, lr}
	uint8_t sercom_offset = _sercom_get_hardware_index(hw);
     982:	4b0b      	ldr	r3, [pc, #44]	; (9b0 <_get_sercom_index+0x30>)
     984:	4798      	blx	r3
     986:	0002      	movs	r2, r0
	for (i = 0; i < ARRAY_SIZE(_usarts); i++) {
     988:	2000      	movs	r0, #0
     98a:	2800      	cmp	r0, #0
     98c:	d006      	beq.n	99c <_get_sercom_index+0x1c>
	ASSERT(false);
     98e:	4a09      	ldr	r2, [pc, #36]	; (9b4 <_get_sercom_index+0x34>)
     990:	4909      	ldr	r1, [pc, #36]	; (9b8 <_get_sercom_index+0x38>)
     992:	2000      	movs	r0, #0
     994:	4b09      	ldr	r3, [pc, #36]	; (9bc <_get_sercom_index+0x3c>)
     996:	4798      	blx	r3
	return 0;
     998:	2000      	movs	r0, #0
}
     99a:	bd10      	pop	{r4, pc}
		if (_usarts[i].number == sercom_offset) {
     99c:	0083      	lsls	r3, r0, #2
     99e:	181b      	adds	r3, r3, r0
     9a0:	0099      	lsls	r1, r3, #2
     9a2:	4b07      	ldr	r3, [pc, #28]	; (9c0 <_get_sercom_index+0x40>)
     9a4:	5ccb      	ldrb	r3, [r1, r3]
     9a6:	429a      	cmp	r2, r3
     9a8:	d0f7      	beq.n	99a <_get_sercom_index+0x1a>
	for (i = 0; i < ARRAY_SIZE(_usarts); i++) {
     9aa:	3001      	adds	r0, #1
     9ac:	b2c0      	uxtb	r0, r0
     9ae:	e7ec      	b.n	98a <_get_sercom_index+0xa>
     9b0:	000008e5 	.word	0x000008e5
     9b4:	0000025e 	.word	0x0000025e
     9b8:	00008bc0 	.word	0x00008bc0
     9bc:	00000725 	.word	0x00000725
     9c0:	00008b70 	.word	0x00008b70

000009c4 <_usart_init>:
{
     9c4:	b570      	push	{r4, r5, r6, lr}
     9c6:	0004      	movs	r4, r0
	uint8_t i = _get_sercom_index(hw);
     9c8:	4b38      	ldr	r3, [pc, #224]	; (aac <_usart_init+0xe8>)
     9ca:	4798      	blx	r3
	return ((Sercom *)hw)->USART.SYNCBUSY.reg & reg;
     9cc:	69e3      	ldr	r3, [r4, #28]
	if (!hri_sercomusart_is_syncing(hw, SERCOM_USART_SYNCBUSY_SWRST)) {
     9ce:	07db      	lsls	r3, r3, #31
     9d0:	d41d      	bmi.n	a0e <_usart_init+0x4a>
		uint32_t mode = _usarts[i].ctrl_a & SERCOM_USART_CTRLA_MODE_Msk;
     9d2:	0083      	lsls	r3, r0, #2
     9d4:	181b      	adds	r3, r3, r0
     9d6:	009a      	lsls	r2, r3, #2
     9d8:	4b35      	ldr	r3, [pc, #212]	; (ab0 <_usart_init+0xec>)
     9da:	189b      	adds	r3, r3, r2
     9dc:	685a      	ldr	r2, [r3, #4]
     9de:	231c      	movs	r3, #28
     9e0:	401a      	ands	r2, r3
	while (((Sercom *)hw)->USART.SYNCBUSY.reg & reg) {
     9e2:	69e3      	ldr	r3, [r4, #28]
     9e4:	079b      	lsls	r3, r3, #30
     9e6:	d1fc      	bne.n	9e2 <_usart_init+0x1e>
	tmp = ((Sercom *)hw)->USART.CTRLA.reg;
     9e8:	6823      	ldr	r3, [r4, #0]
		if (hri_sercomusart_get_CTRLA_reg(hw, SERCOM_USART_CTRLA_ENABLE)) {
     9ea:	079b      	lsls	r3, r3, #30
     9ec:	d509      	bpl.n	a02 <_usart_init+0x3e>
	((Sercom *)hw)->USART.CTRLA.reg &= ~SERCOM_USART_CTRLA_ENABLE;
     9ee:	6823      	ldr	r3, [r4, #0]
     9f0:	2102      	movs	r1, #2
     9f2:	438b      	bics	r3, r1
     9f4:	6023      	str	r3, [r4, #0]
	while (((Sercom *)hw)->USART.SYNCBUSY.reg & reg) {
     9f6:	69e3      	ldr	r3, [r4, #28]
     9f8:	079b      	lsls	r3, r3, #30
     9fa:	d1fc      	bne.n	9f6 <_usart_init+0x32>
     9fc:	69e3      	ldr	r3, [r4, #28]
     9fe:	079b      	lsls	r3, r3, #30
     a00:	d4fc      	bmi.n	9fc <_usart_init+0x38>
		hri_sercomusart_write_CTRLA_reg(hw, SERCOM_USART_CTRLA_SWRST | mode);
     a02:	2301      	movs	r3, #1
     a04:	4313      	orrs	r3, r2
	((Sercom *)hw)->USART.CTRLA.reg = data;
     a06:	6023      	str	r3, [r4, #0]
	while (((Sercom *)hw)->USART.SYNCBUSY.reg & reg) {
     a08:	69e3      	ldr	r3, [r4, #28]
     a0a:	079b      	lsls	r3, r3, #30
     a0c:	d1fc      	bne.n	a08 <_usart_init+0x44>
     a0e:	69e3      	ldr	r3, [r4, #28]
     a10:	07db      	lsls	r3, r3, #31
     a12:	d4fc      	bmi.n	a0e <_usart_init+0x4a>
	hri_sercomusart_write_CTRLA_reg(hw, _usarts[i].ctrl_a);
     a14:	0083      	lsls	r3, r0, #2
     a16:	181b      	adds	r3, r3, r0
     a18:	009a      	lsls	r2, r3, #2
     a1a:	4b25      	ldr	r3, [pc, #148]	; (ab0 <_usart_init+0xec>)
     a1c:	189b      	adds	r3, r3, r2
     a1e:	685b      	ldr	r3, [r3, #4]
	((Sercom *)hw)->USART.CTRLA.reg = data;
     a20:	6023      	str	r3, [r4, #0]
	while (((Sercom *)hw)->USART.SYNCBUSY.reg & reg) {
     a22:	69e3      	ldr	r3, [r4, #28]
     a24:	079b      	lsls	r3, r3, #30
     a26:	d1fc      	bne.n	a22 <_usart_init+0x5e>
	hri_sercomusart_write_CTRLB_reg(hw, _usarts[i].ctrl_b);
     a28:	0083      	lsls	r3, r0, #2
     a2a:	181b      	adds	r3, r3, r0
     a2c:	009a      	lsls	r2, r3, #2
     a2e:	4b20      	ldr	r3, [pc, #128]	; (ab0 <_usart_init+0xec>)
     a30:	189b      	adds	r3, r3, r2
     a32:	689b      	ldr	r3, [r3, #8]
	((Sercom *)hw)->USART.CTRLB.reg = data;
     a34:	6063      	str	r3, [r4, #4]
	while (((Sercom *)hw)->USART.SYNCBUSY.reg & reg) {
     a36:	69e3      	ldr	r3, [r4, #28]
     a38:	075b      	lsls	r3, r3, #29
     a3a:	d1fc      	bne.n	a36 <_usart_init+0x72>
	if ((_usarts[i].ctrl_a & SERCOM_USART_CTRLA_SAMPR(0x1)) || (_usarts[i].ctrl_a & SERCOM_USART_CTRLA_SAMPR(0x3))) {
     a3c:	0083      	lsls	r3, r0, #2
     a3e:	181b      	adds	r3, r3, r0
     a40:	009a      	lsls	r2, r3, #2
     a42:	4b1b      	ldr	r3, [pc, #108]	; (ab0 <_usart_init+0xec>)
     a44:	189b      	adds	r3, r3, r2
     a46:	685b      	ldr	r3, [r3, #4]
     a48:	049a      	lsls	r2, r3, #18
     a4a:	d40b      	bmi.n	a64 <_usart_init+0xa0>
     a4c:	22c0      	movs	r2, #192	; 0xc0
     a4e:	01d2      	lsls	r2, r2, #7
     a50:	4213      	tst	r3, r2
     a52:	d107      	bne.n	a64 <_usart_init+0xa0>
		hri_sercomusart_write_BAUD_reg(hw, _usarts[i].baud);
     a54:	0083      	lsls	r3, r0, #2
     a56:	181b      	adds	r3, r3, r0
     a58:	009a      	lsls	r2, r3, #2
     a5a:	4b15      	ldr	r3, [pc, #84]	; (ab0 <_usart_init+0xec>)
     a5c:	189b      	adds	r3, r3, r2
     a5e:	899b      	ldrh	r3, [r3, #12]
	((Sercom *)hw)->USART.BAUD.reg = data;
     a60:	81a3      	strh	r3, [r4, #12]
     a62:	e015      	b.n	a90 <_usart_init+0xcc>
		((Sercom *)hw)->USART.BAUD.FRAC.BAUD = _usarts[i].baud;
     a64:	0083      	lsls	r3, r0, #2
     a66:	181b      	adds	r3, r3, r0
     a68:	009a      	lsls	r2, r3, #2
     a6a:	4911      	ldr	r1, [pc, #68]	; (ab0 <_usart_init+0xec>)
     a6c:	1889      	adds	r1, r1, r2
     a6e:	898a      	ldrh	r2, [r1, #12]
     a70:	89a3      	ldrh	r3, [r4, #12]
     a72:	04d2      	lsls	r2, r2, #19
     a74:	0cd2      	lsrs	r2, r2, #19
     a76:	0b5b      	lsrs	r3, r3, #13
     a78:	035b      	lsls	r3, r3, #13
     a7a:	4313      	orrs	r3, r2
     a7c:	81a3      	strh	r3, [r4, #12]
		((Sercom *)hw)->USART.BAUD.FRAC.FP   = _usarts[i].fractional;
     a7e:	7b8b      	ldrb	r3, [r1, #14]
     a80:	2207      	movs	r2, #7
     a82:	401a      	ands	r2, r3
     a84:	89a3      	ldrh	r3, [r4, #12]
     a86:	0352      	lsls	r2, r2, #13
     a88:	04db      	lsls	r3, r3, #19
     a8a:	0cdb      	lsrs	r3, r3, #19
     a8c:	4313      	orrs	r3, r2
     a8e:	81a3      	strh	r3, [r4, #12]
	hri_sercomusart_write_RXPL_reg(hw, _usarts[i].rxpl);
     a90:	4a07      	ldr	r2, [pc, #28]	; (ab0 <_usart_init+0xec>)
     a92:	0083      	lsls	r3, r0, #2
     a94:	181d      	adds	r5, r3, r0
     a96:	00a9      	lsls	r1, r5, #2
     a98:	000d      	movs	r5, r1
     a9a:	1851      	adds	r1, r2, r1
     a9c:	7bc9      	ldrb	r1, [r1, #15]
	((Sercom *)hw)->USART.RXPL.reg = data;
     a9e:	73a1      	strb	r1, [r4, #14]
	hri_sercomusart_write_DBGCTRL_reg(hw, _usarts[i].debug_ctrl);
     aa0:	1952      	adds	r2, r2, r5
     aa2:	7c12      	ldrb	r2, [r2, #16]
	((Sercom *)hw)->USART.DBGCTRL.reg = data;
     aa4:	2330      	movs	r3, #48	; 0x30
     aa6:	54e2      	strb	r2, [r4, r3]
}
     aa8:	2000      	movs	r0, #0
     aaa:	bd70      	pop	{r4, r5, r6, pc}
     aac:	00000981 	.word	0x00000981
     ab0:	00008b70 	.word	0x00008b70

00000ab4 <_get_i2cm_index>:
{
     ab4:	b510      	push	{r4, lr}
	uint8_t sercom_offset = _sercom_get_hardware_index(hw);
     ab6:	4b0d      	ldr	r3, [pc, #52]	; (aec <_get_i2cm_index+0x38>)
     ab8:	4798      	blx	r3
	for (i = 0; i < ARRAY_SIZE(_i2cms); i++) {
     aba:	2300      	movs	r3, #0
     abc:	2b00      	cmp	r3, #0
     abe:	d008      	beq.n	ad2 <_get_i2cm_index+0x1e>
	ASSERT(false);
     ac0:	22f0      	movs	r2, #240	; 0xf0
     ac2:	0092      	lsls	r2, r2, #2
     ac4:	490a      	ldr	r1, [pc, #40]	; (af0 <_get_i2cm_index+0x3c>)
     ac6:	2000      	movs	r0, #0
     ac8:	4b0a      	ldr	r3, [pc, #40]	; (af4 <_get_i2cm_index+0x40>)
     aca:	4798      	blx	r3
	return -1;
     acc:	2001      	movs	r0, #1
     ace:	4240      	negs	r0, r0
}
     ad0:	bd10      	pop	{r4, pc}
		if (_i2cms[i].number == sercom_offset) {
     ad2:	005a      	lsls	r2, r3, #1
     ad4:	18d2      	adds	r2, r2, r3
     ad6:	00d1      	lsls	r1, r2, #3
     ad8:	4a07      	ldr	r2, [pc, #28]	; (af8 <_get_i2cm_index+0x44>)
     ada:	1852      	adds	r2, r2, r1
     adc:	7d12      	ldrb	r2, [r2, #20]
     ade:	4290      	cmp	r0, r2
     ae0:	d002      	beq.n	ae8 <_get_i2cm_index+0x34>
	for (i = 0; i < ARRAY_SIZE(_i2cms); i++) {
     ae2:	3301      	adds	r3, #1
     ae4:	b2db      	uxtb	r3, r3
     ae6:	e7e9      	b.n	abc <_get_i2cm_index+0x8>
			return i;
     ae8:	b258      	sxtb	r0, r3
     aea:	e7f1      	b.n	ad0 <_get_i2cm_index+0x1c>
     aec:	000008e5 	.word	0x000008e5
     af0:	00008bc0 	.word	0x00008bc0
     af4:	00000725 	.word	0x00000725
     af8:	00008b70 	.word	0x00008b70

00000afc <_i2c_m_sync_init_impl>:
	}
	return ERR_NONE;
}

static int32_t _i2c_m_sync_init_impl(struct _i2c_m_service *const service, void *const hw)
{
     afc:	b570      	push	{r4, r5, r6, lr}
     afe:	0005      	movs	r5, r0
     b00:	000c      	movs	r4, r1
	uint8_t i = _get_i2cm_index(hw);
     b02:	0008      	movs	r0, r1
     b04:	4b2d      	ldr	r3, [pc, #180]	; (bbc <_i2c_m_sync_init_impl+0xc0>)
     b06:	4798      	blx	r3
     b08:	b2c0      	uxtb	r0, r0
	return ((Sercom *)hw)->I2CM.SYNCBUSY.reg & reg;
     b0a:	69e3      	ldr	r3, [r4, #28]

	if (!hri_sercomi2cm_is_syncing(hw, SERCOM_I2CM_SYNCBUSY_SWRST)) {
     b0c:	07db      	lsls	r3, r3, #31
     b0e:	d41d      	bmi.n	b4c <_i2c_m_sync_init_impl+0x50>
		uint32_t mode = _i2cms[i].ctrl_a & SERCOM_I2CM_CTRLA_MODE_Msk;
     b10:	0043      	lsls	r3, r0, #1
     b12:	181b      	adds	r3, r3, r0
     b14:	00da      	lsls	r2, r3, #3
     b16:	4b2a      	ldr	r3, [pc, #168]	; (bc0 <_i2c_m_sync_init_impl+0xc4>)
     b18:	189b      	adds	r3, r3, r2
     b1a:	699a      	ldr	r2, [r3, #24]
     b1c:	231c      	movs	r3, #28
     b1e:	401a      	ands	r2, r3
	while (((Sercom *)hw)->I2CM.SYNCBUSY.reg & reg) {
     b20:	69e3      	ldr	r3, [r4, #28]
     b22:	079b      	lsls	r3, r3, #30
     b24:	d1fc      	bne.n	b20 <_i2c_m_sync_init_impl+0x24>
	tmp = ((Sercom *)hw)->I2CM.CTRLA.reg;
     b26:	6823      	ldr	r3, [r4, #0]
		if (hri_sercomi2cm_get_CTRLA_reg(hw, SERCOM_I2CM_CTRLA_ENABLE)) {
     b28:	079b      	lsls	r3, r3, #30
     b2a:	d509      	bpl.n	b40 <_i2c_m_sync_init_impl+0x44>
	((Sercom *)hw)->I2CM.CTRLA.reg &= ~SERCOM_I2CM_CTRLA_ENABLE;
     b2c:	6823      	ldr	r3, [r4, #0]
     b2e:	2102      	movs	r1, #2
     b30:	438b      	bics	r3, r1
     b32:	6023      	str	r3, [r4, #0]
	while (((Sercom *)hw)->I2CM.SYNCBUSY.reg & reg) {
     b34:	69e3      	ldr	r3, [r4, #28]
     b36:	079b      	lsls	r3, r3, #30
     b38:	d1fc      	bne.n	b34 <_i2c_m_sync_init_impl+0x38>
     b3a:	69e3      	ldr	r3, [r4, #28]
     b3c:	079b      	lsls	r3, r3, #30
     b3e:	d4fc      	bmi.n	b3a <_i2c_m_sync_init_impl+0x3e>
			hri_sercomi2cm_clear_CTRLA_ENABLE_bit(hw);
			hri_sercomi2cm_wait_for_sync(hw, SERCOM_I2CM_SYNCBUSY_ENABLE);
		}
		hri_sercomi2cm_write_CTRLA_reg(hw, SERCOM_I2CM_CTRLA_SWRST | mode);
     b40:	2301      	movs	r3, #1
     b42:	4313      	orrs	r3, r2
	((Sercom *)hw)->I2CM.CTRLA.reg = data;
     b44:	6023      	str	r3, [r4, #0]
	while (((Sercom *)hw)->I2CM.SYNCBUSY.reg & reg) {
     b46:	69e3      	ldr	r3, [r4, #28]
     b48:	079b      	lsls	r3, r3, #30
     b4a:	d1fc      	bne.n	b46 <_i2c_m_sync_init_impl+0x4a>
     b4c:	69e3      	ldr	r3, [r4, #28]
     b4e:	07db      	lsls	r3, r3, #31
     b50:	d4fc      	bmi.n	b4c <_i2c_m_sync_init_impl+0x50>
	}
	hri_sercomi2cm_wait_for_sync(hw, SERCOM_I2CM_SYNCBUSY_SWRST);

	hri_sercomi2cm_write_CTRLA_reg(hw, _i2cms[i].ctrl_a);
     b52:	0043      	lsls	r3, r0, #1
     b54:	181b      	adds	r3, r3, r0
     b56:	00da      	lsls	r2, r3, #3
     b58:	4b19      	ldr	r3, [pc, #100]	; (bc0 <_i2c_m_sync_init_impl+0xc4>)
     b5a:	189b      	adds	r3, r3, r2
     b5c:	699b      	ldr	r3, [r3, #24]
	((Sercom *)hw)->I2CM.CTRLA.reg = data;
     b5e:	6023      	str	r3, [r4, #0]
	while (((Sercom *)hw)->I2CM.SYNCBUSY.reg & reg) {
     b60:	69e3      	ldr	r3, [r4, #28]
     b62:	079b      	lsls	r3, r3, #30
     b64:	d1fc      	bne.n	b60 <_i2c_m_sync_init_impl+0x64>
	hri_sercomi2cm_write_CTRLB_reg(hw, _i2cms[i].ctrl_b);
     b66:	0043      	lsls	r3, r0, #1
     b68:	181b      	adds	r3, r3, r0
     b6a:	00da      	lsls	r2, r3, #3
     b6c:	4b14      	ldr	r3, [pc, #80]	; (bc0 <_i2c_m_sync_init_impl+0xc4>)
     b6e:	189b      	adds	r3, r3, r2
     b70:	69db      	ldr	r3, [r3, #28]
	((Sercom *)hw)->I2CM.CTRLB.reg = data;
     b72:	6063      	str	r3, [r4, #4]
	while (((Sercom *)hw)->I2CM.SYNCBUSY.reg & reg) {
     b74:	69e3      	ldr	r3, [r4, #28]
     b76:	075b      	lsls	r3, r3, #29
     b78:	d4fc      	bmi.n	b74 <_i2c_m_sync_init_impl+0x78>
	hri_sercomi2cm_write_BAUD_reg(hw, _i2cms[i].baud);
     b7a:	0042      	lsls	r2, r0, #1
     b7c:	1812      	adds	r2, r2, r0
     b7e:	00d1      	lsls	r1, r2, #3
     b80:	4b0f      	ldr	r3, [pc, #60]	; (bc0 <_i2c_m_sync_init_impl+0xc4>)
     b82:	185b      	adds	r3, r3, r1
	((Sercom *)hw)->I2CM.BAUD.reg = data;
     b84:	6a1a      	ldr	r2, [r3, #32]
     b86:	60e2      	str	r2, [r4, #12]

	service->mode = (_i2cms[i].ctrl_a & SERCOM_I2CM_CTRLA_SPEED_Msk) >> SERCOM_I2CM_CTRLA_SPEED_Pos;
     b88:	7eda      	ldrb	r2, [r3, #27]
     b8a:	2303      	movs	r3, #3
     b8c:	401a      	ands	r2, r3
     b8e:	81aa      	strh	r2, [r5, #12]
	hri_sercomi2cm_write_ADDR_HS_bit(hw, service->mode < I2C_HS ? 0 : 1);
     b90:	3b02      	subs	r3, #2
     b92:	4293      	cmp	r3, r2
     b94:	419b      	sbcs	r3, r3
     b96:	425b      	negs	r3, r3
	tmp = ((Sercom *)hw)->I2CM.ADDR.reg;
     b98:	6a62      	ldr	r2, [r4, #36]	; 0x24
	tmp &= ~SERCOM_I2CM_ADDR_HS;
     b9a:	490a      	ldr	r1, [pc, #40]	; (bc4 <_i2c_m_sync_init_impl+0xc8>)
     b9c:	400a      	ands	r2, r1
	tmp |= value << SERCOM_I2CM_ADDR_HS_Pos;
     b9e:	039b      	lsls	r3, r3, #14
     ba0:	4313      	orrs	r3, r2
	((Sercom *)hw)->I2CM.ADDR.reg = tmp;
     ba2:	6263      	str	r3, [r4, #36]	; 0x24
	while (((Sercom *)hw)->I2CM.SYNCBUSY.reg & reg) {
     ba4:	69e3      	ldr	r3, [r4, #28]
     ba6:	075b      	lsls	r3, r3, #29
     ba8:	d4fc      	bmi.n	ba4 <_i2c_m_sync_init_impl+0xa8>

	service->trise = _i2cms[i].trise;
     baa:	0043      	lsls	r3, r0, #1
     bac:	1818      	adds	r0, r3, r0
     bae:	00c2      	lsls	r2, r0, #3
     bb0:	4b03      	ldr	r3, [pc, #12]	; (bc0 <_i2c_m_sync_init_impl+0xc4>)
     bb2:	189b      	adds	r3, r3, r2
     bb4:	8cdb      	ldrh	r3, [r3, #38]	; 0x26
     bb6:	81eb      	strh	r3, [r5, #14]

	return ERR_NONE;
}
     bb8:	2000      	movs	r0, #0
     bba:	bd70      	pop	{r4, r5, r6, pc}
     bbc:	00000ab5 	.word	0x00000ab5
     bc0:	00008b70 	.word	0x00008b70
     bc4:	ffffbfff 	.word	0xffffbfff

00000bc8 <_sercom_i2c_sync_send_address>:
{
     bc8:	b570      	push	{r4, r5, r6, lr}
     bca:	0005      	movs	r5, r0
	void *             hw    = i2c_dev->hw;
     bcc:	6904      	ldr	r4, [r0, #16]
	tmp = ((Sercom *)hw)->I2CM.CTRLA.reg;
     bce:	6823      	ldr	r3, [r4, #0]
	tmp = (tmp & SERCOM_I2CM_CTRLA_SCLSM) >> SERCOM_I2CM_CTRLA_SCLSM_Pos;
     bd0:	0edb      	lsrs	r3, r3, #27
     bd2:	2601      	movs	r6, #1
     bd4:	401e      	ands	r6, r3
	ASSERT(i2c_dev);
     bd6:	1e43      	subs	r3, r0, #1
     bd8:	4198      	sbcs	r0, r3
     bda:	b2c0      	uxtb	r0, r0
     bdc:	4a8e      	ldr	r2, [pc, #568]	; (e18 <_sercom_i2c_sync_send_address+0x250>)
     bde:	498f      	ldr	r1, [pc, #572]	; (e1c <_sercom_i2c_sync_send_address+0x254>)
     be0:	4b8f      	ldr	r3, [pc, #572]	; (e20 <_sercom_i2c_sync_send_address+0x258>)
     be2:	4798      	blx	r3
	if (msg->len == 1 && sclsm) {
     be4:	686b      	ldr	r3, [r5, #4]
     be6:	2b01      	cmp	r3, #1
     be8:	d04d      	beq.n	c86 <_sercom_i2c_sync_send_address+0xbe>
	((Sercom *)hw)->I2CM.CTRLB.reg &= ~SERCOM_I2CM_CTRLB_ACKACT;
     bea:	6863      	ldr	r3, [r4, #4]
     bec:	4a8d      	ldr	r2, [pc, #564]	; (e24 <_sercom_i2c_sync_send_address+0x25c>)
     bee:	4013      	ands	r3, r2
     bf0:	6063      	str	r3, [r4, #4]
	while (((Sercom *)hw)->I2CM.SYNCBUSY.reg & reg) {
     bf2:	69e3      	ldr	r3, [r4, #28]
     bf4:	075b      	lsls	r3, r3, #29
     bf6:	d4fc      	bmi.n	bf2 <_sercom_i2c_sync_send_address+0x2a>
	if (msg->addr & I2C_M_TEN) {
     bf8:	882b      	ldrh	r3, [r5, #0]
     bfa:	055a      	lsls	r2, r3, #21
     bfc:	d54e      	bpl.n	c9c <_sercom_i2c_sync_send_address+0xd4>
		if (msg->flags & I2C_M_RD) {
     bfe:	886a      	ldrh	r2, [r5, #2]
     c00:	07d2      	lsls	r2, r2, #31
     c02:	d504      	bpl.n	c0e <_sercom_i2c_sync_send_address+0x46>
			msg->flags |= I2C_M_TEN;
     c04:	886a      	ldrh	r2, [r5, #2]
     c06:	2180      	movs	r1, #128	; 0x80
     c08:	00c9      	lsls	r1, r1, #3
     c0a:	430a      	orrs	r2, r1
     c0c:	806a      	strh	r2, [r5, #2]
		                              ((msg->addr & TEN_ADDR_MASK) << 1) | SERCOM_I2CM_ADDR_TENBITEN
     c0e:	005b      	lsls	r3, r3, #1
		                                  | (hri_sercomi2cm_read_ADDR_reg(hw) & SERCOM_I2CM_ADDR_HS));
     c10:	4a85      	ldr	r2, [pc, #532]	; (e28 <_sercom_i2c_sync_send_address+0x260>)
     c12:	401a      	ands	r2, r3
     c14:	69e3      	ldr	r3, [r4, #28]
     c16:	075b      	lsls	r3, r3, #29
     c18:	d4fc      	bmi.n	c14 <_sercom_i2c_sync_send_address+0x4c>
	return ((Sercom *)hw)->I2CM.ADDR.reg;
     c1a:	6a63      	ldr	r3, [r4, #36]	; 0x24
     c1c:	2180      	movs	r1, #128	; 0x80
     c1e:	01c9      	lsls	r1, r1, #7
     c20:	400b      	ands	r3, r1
     c22:	4313      	orrs	r3, r2
		hri_sercomi2cm_write_ADDR_reg(hw,
     c24:	2280      	movs	r2, #128	; 0x80
     c26:	0212      	lsls	r2, r2, #8
     c28:	4313      	orrs	r3, r2
	((Sercom *)hw)->I2CM.ADDR.reg = data;
     c2a:	6263      	str	r3, [r4, #36]	; 0x24
	while (((Sercom *)hw)->I2CM.SYNCBUSY.reg & reg) {
     c2c:	69e3      	ldr	r3, [r4, #28]
     c2e:	075b      	lsls	r3, r3, #29
     c30:	d4fc      	bmi.n	c2c <_sercom_i2c_sync_send_address+0x64>
	void *   hw      = i2c_dev->hw;
     c32:	692e      	ldr	r6, [r5, #16]
	uint32_t timeout = 65535;
     c34:	4a7d      	ldr	r2, [pc, #500]	; (e2c <_sercom_i2c_sync_send_address+0x264>)
	return ((Sercom *)hw)->I2CM.INTFLAG.reg;
     c36:	7e33      	ldrb	r3, [r6, #24]
     c38:	b2db      	uxtb	r3, r3
		*flags = hri_sercomi2cm_read_INTFLAG_reg(hw);
     c3a:	0018      	movs	r0, r3
		if (timeout-- == 0) {
     c3c:	1e51      	subs	r1, r2, #1
     c3e:	2a00      	cmp	r2, #0
     c40:	d002      	beq.n	c48 <_sercom_i2c_sync_send_address+0x80>
     c42:	000a      	movs	r2, r1
	} while (!(*flags & MB_FLAG) && !(*flags & SB_FLAG));
     c44:	079b      	lsls	r3, r3, #30
     c46:	d0f6      	beq.n	c36 <_sercom_i2c_sync_send_address+0x6e>
	tmp = ((Sercom *)hw)->I2CM.CTRLA.reg;
     c48:	6823      	ldr	r3, [r4, #0]
	tmp = (tmp & SERCOM_I2CM_CTRLA_SCLSM) >> SERCOM_I2CM_CTRLA_SCLSM_Pos;
     c4a:	0edb      	lsrs	r3, r3, #27
     c4c:	2201      	movs	r2, #1
     c4e:	401a      	ands	r2, r3
	while (((Sercom *)hw)->I2CM.SYNCBUSY.reg & reg) {
     c50:	69e3      	ldr	r3, [r4, #28]
     c52:	075b      	lsls	r3, r3, #29
     c54:	d4fc      	bmi.n	c50 <_sercom_i2c_sync_send_address+0x88>
}

static inline hri_sercomi2cm_status_reg_t hri_sercomi2cm_read_STATUS_reg(const void *const hw)
{
	hri_sercomi2cm_wait_for_sync(hw, SERCOM_I2CM_SYNCBUSY_SYSOP);
	return ((Sercom *)hw)->I2CM.STATUS.reg;
     c56:	8b63      	ldrh	r3, [r4, #26]
     c58:	b29b      	uxth	r3, r3
	if (flags & MB_FLAG) {
     c5a:	07c1      	lsls	r1, r0, #31
     c5c:	d400      	bmi.n	c60 <_sercom_i2c_sync_send_address+0x98>
     c5e:	e08f      	b.n	d80 <_sercom_i2c_sync_send_address+0x1b8>
		if (status & SERCOM_I2CM_STATUS_ARBLOST) {
     c60:	079a      	lsls	r2, r3, #30
     c62:	d52f      	bpl.n	cc4 <_sercom_i2c_sync_send_address+0xfc>
	((Sercom *)hw)->I2CM.INTFLAG.reg = SERCOM_I2CM_INTFLAG_MB;
     c64:	2201      	movs	r2, #1
     c66:	7622      	strb	r2, [r4, #24]
			msg->flags |= I2C_M_FAIL;
     c68:	886a      	ldrh	r2, [r5, #2]
     c6a:	2180      	movs	r1, #128	; 0x80
     c6c:	0149      	lsls	r1, r1, #5
     c6e:	430a      	orrs	r2, r1
     c70:	806a      	strh	r2, [r5, #2]
			msg->flags &= ~I2C_M_BUSY;
     c72:	886a      	ldrh	r2, [r5, #2]
     c74:	496e      	ldr	r1, [pc, #440]	; (e30 <_sercom_i2c_sync_send_address+0x268>)
     c76:	400a      	ands	r2, r1
     c78:	806a      	strh	r2, [r5, #2]
			if (status & SERCOM_I2CM_STATUS_BUSERR) {
     c7a:	07db      	lsls	r3, r3, #31
     c7c:	d400      	bmi.n	c80 <_sercom_i2c_sync_send_address+0xb8>
     c7e:	e0c6      	b.n	e0e <_sercom_i2c_sync_send_address+0x246>
				return I2C_ERR_BUS;
     c80:	2005      	movs	r0, #5
     c82:	4240      	negs	r0, r0
     c84:	e0a2      	b.n	dcc <_sercom_i2c_sync_send_address+0x204>
	if (msg->len == 1 && sclsm) {
     c86:	2e00      	cmp	r6, #0
     c88:	d0af      	beq.n	bea <_sercom_i2c_sync_send_address+0x22>
	((Sercom *)hw)->I2CM.CTRLB.reg |= SERCOM_I2CM_CTRLB_ACKACT;
     c8a:	6862      	ldr	r2, [r4, #4]
     c8c:	2380      	movs	r3, #128	; 0x80
     c8e:	02db      	lsls	r3, r3, #11
     c90:	4313      	orrs	r3, r2
     c92:	6063      	str	r3, [r4, #4]
	while (((Sercom *)hw)->I2CM.SYNCBUSY.reg & reg) {
     c94:	69e3      	ldr	r3, [r4, #28]
     c96:	075b      	lsls	r3, r3, #29
     c98:	d4fc      	bmi.n	c94 <_sercom_i2c_sync_send_address+0xcc>
     c9a:	e7ad      	b.n	bf8 <_sercom_i2c_sync_send_address+0x30>
		                              ((msg->addr & SEVEN_ADDR_MASK) << 1) | (msg->flags & I2C_M_RD ? I2C_M_RD : 0x0)
     c9c:	005b      	lsls	r3, r3, #1
     c9e:	22ff      	movs	r2, #255	; 0xff
     ca0:	4013      	ands	r3, r2
     ca2:	886a      	ldrh	r2, [r5, #2]
     ca4:	2101      	movs	r1, #1
     ca6:	400a      	ands	r2, r1
     ca8:	431a      	orrs	r2, r3
     caa:	69e3      	ldr	r3, [r4, #28]
     cac:	075b      	lsls	r3, r3, #29
     cae:	d4fc      	bmi.n	caa <_sercom_i2c_sync_send_address+0xe2>
	return ((Sercom *)hw)->I2CM.ADDR.reg;
     cb0:	6a63      	ldr	r3, [r4, #36]	; 0x24
		                                  | (hri_sercomi2cm_read_ADDR_reg(hw) & SERCOM_I2CM_ADDR_HS));
     cb2:	2180      	movs	r1, #128	; 0x80
     cb4:	01c9      	lsls	r1, r1, #7
     cb6:	400b      	ands	r3, r1
		hri_sercomi2cm_write_ADDR_reg(hw,
     cb8:	4313      	orrs	r3, r2
	((Sercom *)hw)->I2CM.ADDR.reg = data;
     cba:	6263      	str	r3, [r4, #36]	; 0x24
	while (((Sercom *)hw)->I2CM.SYNCBUSY.reg & reg) {
     cbc:	69e3      	ldr	r3, [r4, #28]
     cbe:	075b      	lsls	r3, r3, #29
     cc0:	d4fc      	bmi.n	cbc <_sercom_i2c_sync_send_address+0xf4>
     cc2:	e7b6      	b.n	c32 <_sercom_i2c_sync_send_address+0x6a>
			if (status & SERCOM_I2CM_STATUS_RXNACK) {
     cc4:	075b      	lsls	r3, r3, #29
     cc6:	d41b      	bmi.n	d00 <_sercom_i2c_sync_send_address+0x138>
			if (msg->flags & I2C_M_TEN) {
     cc8:	886b      	ldrh	r3, [r5, #2]
     cca:	055b      	lsls	r3, r3, #21
     ccc:	d534      	bpl.n	d38 <_sercom_i2c_sync_send_address+0x170>
				                              ((((msg->addr & TEN_ADDR_MASK) >> 8) | TEN_ADDR_FRAME) << 1) | I2C_M_RD
     cce:	882a      	ldrh	r2, [r5, #0]
     cd0:	1212      	asrs	r2, r2, #8
     cd2:	0052      	lsls	r2, r2, #1
				                                  | (hri_sercomi2cm_read_ADDR_reg(hw) & SERCOM_I2CM_ADDR_HS));
     cd4:	2306      	movs	r3, #6
     cd6:	401a      	ands	r2, r3
     cd8:	69e3      	ldr	r3, [r4, #28]
     cda:	075b      	lsls	r3, r3, #29
     cdc:	d4fc      	bmi.n	cd8 <_sercom_i2c_sync_send_address+0x110>
	return ((Sercom *)hw)->I2CM.ADDR.reg;
     cde:	6a63      	ldr	r3, [r4, #36]	; 0x24
     ce0:	2180      	movs	r1, #128	; 0x80
     ce2:	01c9      	lsls	r1, r1, #7
     ce4:	400b      	ands	r3, r1
     ce6:	4313      	orrs	r3, r2
				hri_sercomi2cm_write_ADDR_reg(hw,
     ce8:	22f1      	movs	r2, #241	; 0xf1
     cea:	4313      	orrs	r3, r2
	((Sercom *)hw)->I2CM.ADDR.reg = data;
     cec:	6263      	str	r3, [r4, #36]	; 0x24
	while (((Sercom *)hw)->I2CM.SYNCBUSY.reg & reg) {
     cee:	69e3      	ldr	r3, [r4, #28]
     cf0:	075b      	lsls	r3, r3, #29
     cf2:	d4fc      	bmi.n	cee <_sercom_i2c_sync_send_address+0x126>
				msg->flags &= ~I2C_M_TEN;
     cf4:	886b      	ldrh	r3, [r5, #2]
     cf6:	4a4f      	ldr	r2, [pc, #316]	; (e34 <_sercom_i2c_sync_send_address+0x26c>)
     cf8:	4013      	ands	r3, r2
     cfa:	806b      	strh	r3, [r5, #2]
				return I2C_OK;
     cfc:	2000      	movs	r0, #0
     cfe:	e065      	b.n	dcc <_sercom_i2c_sync_send_address+0x204>
				if (msg->len > 0) {
     d00:	686b      	ldr	r3, [r5, #4]
     d02:	2b00      	cmp	r3, #0
     d04:	dd04      	ble.n	d10 <_sercom_i2c_sync_send_address+0x148>
					msg->flags |= I2C_M_FAIL;
     d06:	886b      	ldrh	r3, [r5, #2]
     d08:	2280      	movs	r2, #128	; 0x80
     d0a:	0152      	lsls	r2, r2, #5
     d0c:	4313      	orrs	r3, r2
     d0e:	806b      	strh	r3, [r5, #2]
				if (msg->flags & I2C_M_STOP) {
     d10:	886b      	ldrh	r3, [r5, #2]
     d12:	b21b      	sxth	r3, r3
     d14:	2b00      	cmp	r3, #0
     d16:	db06      	blt.n	d26 <_sercom_i2c_sync_send_address+0x15e>
				msg->flags &= ~I2C_M_BUSY;
     d18:	886b      	ldrh	r3, [r5, #2]
     d1a:	4a45      	ldr	r2, [pc, #276]	; (e30 <_sercom_i2c_sync_send_address+0x268>)
     d1c:	4013      	ands	r3, r2
     d1e:	806b      	strh	r3, [r5, #2]
				return I2C_NACK;
     d20:	2002      	movs	r0, #2
     d22:	4240      	negs	r0, r0
     d24:	e052      	b.n	dcc <_sercom_i2c_sync_send_address+0x204>
	((Sercom *)hw)->I2CM.CTRLB.reg |= SERCOM_I2CM_CTRLB_CMD(mask);
     d26:	6862      	ldr	r2, [r4, #4]
     d28:	23c0      	movs	r3, #192	; 0xc0
     d2a:	029b      	lsls	r3, r3, #10
     d2c:	4313      	orrs	r3, r2
     d2e:	6063      	str	r3, [r4, #4]
	while (((Sercom *)hw)->I2CM.SYNCBUSY.reg & reg) {
     d30:	69e3      	ldr	r3, [r4, #28]
     d32:	075b      	lsls	r3, r3, #29
     d34:	d4fc      	bmi.n	d30 <_sercom_i2c_sync_send_address+0x168>
     d36:	e7ef      	b.n	d18 <_sercom_i2c_sync_send_address+0x150>
			if (msg->len == 0) {
     d38:	6868      	ldr	r0, [r5, #4]
     d3a:	2800      	cmp	r0, #0
     d3c:	d111      	bne.n	d62 <_sercom_i2c_sync_send_address+0x19a>
				if (msg->flags & I2C_M_STOP) {
     d3e:	886b      	ldrh	r3, [r5, #2]
     d40:	b21b      	sxth	r3, r3
     d42:	2b00      	cmp	r3, #0
     d44:	db04      	blt.n	d50 <_sercom_i2c_sync_send_address+0x188>
				msg->flags &= ~I2C_M_BUSY;
     d46:	886b      	ldrh	r3, [r5, #2]
     d48:	4a39      	ldr	r2, [pc, #228]	; (e30 <_sercom_i2c_sync_send_address+0x268>)
     d4a:	4013      	ands	r3, r2
     d4c:	806b      	strh	r3, [r5, #2]
     d4e:	e03d      	b.n	dcc <_sercom_i2c_sync_send_address+0x204>
	((Sercom *)hw)->I2CM.CTRLB.reg |= SERCOM_I2CM_CTRLB_CMD(mask);
     d50:	6862      	ldr	r2, [r4, #4]
     d52:	23c0      	movs	r3, #192	; 0xc0
     d54:	029b      	lsls	r3, r3, #10
     d56:	4313      	orrs	r3, r2
     d58:	6063      	str	r3, [r4, #4]
	while (((Sercom *)hw)->I2CM.SYNCBUSY.reg & reg) {
     d5a:	69e3      	ldr	r3, [r4, #28]
     d5c:	075b      	lsls	r3, r3, #29
     d5e:	d4fc      	bmi.n	d5a <_sercom_i2c_sync_send_address+0x192>
     d60:	e7f1      	b.n	d46 <_sercom_i2c_sync_send_address+0x17e>
				hri_sercomi2cm_write_DATA_reg(hw, *msg->buffer);
     d62:	68ab      	ldr	r3, [r5, #8]
     d64:	781a      	ldrb	r2, [r3, #0]
	((Sercom *)hw)->I2CM.DATA.reg = data;
     d66:	2328      	movs	r3, #40	; 0x28
     d68:	54e2      	strb	r2, [r4, r3]
	while (((Sercom *)hw)->I2CM.SYNCBUSY.reg & reg) {
     d6a:	69e3      	ldr	r3, [r4, #28]
     d6c:	075b      	lsls	r3, r3, #29
     d6e:	d4fc      	bmi.n	d6a <_sercom_i2c_sync_send_address+0x1a2>
				msg->buffer++;
     d70:	68ab      	ldr	r3, [r5, #8]
     d72:	3301      	adds	r3, #1
     d74:	60ab      	str	r3, [r5, #8]
				msg->len--;
     d76:	686b      	ldr	r3, [r5, #4]
     d78:	3b01      	subs	r3, #1
     d7a:	606b      	str	r3, [r5, #4]
			return I2C_OK;
     d7c:	2000      	movs	r0, #0
     d7e:	e025      	b.n	dcc <_sercom_i2c_sync_send_address+0x204>
	} else if (flags & SB_FLAG) {
     d80:	0781      	lsls	r1, r0, #30
     d82:	d547      	bpl.n	e14 <_sercom_i2c_sync_send_address+0x24c>
		if ((msg->len) && !(status & SERCOM_I2CM_STATUS_RXNACK)) {
     d84:	6869      	ldr	r1, [r5, #4]
     d86:	2900      	cmp	r1, #0
     d88:	d03c      	beq.n	e04 <_sercom_i2c_sync_send_address+0x23c>
     d8a:	075b      	lsls	r3, r3, #29
     d8c:	d43a      	bmi.n	e04 <_sercom_i2c_sync_send_address+0x23c>
			msg->len--;
     d8e:	3901      	subs	r1, #1
     d90:	6069      	str	r1, [r5, #4]
			if ((msg->len == 0 && !sclsm) || (msg->len == 1 && sclsm)) {
     d92:	2900      	cmp	r1, #0
     d94:	d101      	bne.n	d9a <_sercom_i2c_sync_send_address+0x1d2>
     d96:	2a00      	cmp	r2, #0
     d98:	d01b      	beq.n	dd2 <_sercom_i2c_sync_send_address+0x20a>
     d9a:	2901      	cmp	r1, #1
     d9c:	d017      	beq.n	dce <_sercom_i2c_sync_send_address+0x206>
			if (msg->len == 0) {
     d9e:	686b      	ldr	r3, [r5, #4]
     da0:	2b00      	cmp	r3, #0
     da2:	d107      	bne.n	db4 <_sercom_i2c_sync_send_address+0x1ec>
				if (msg->flags & I2C_M_STOP) {
     da4:	886b      	ldrh	r3, [r5, #2]
     da6:	b21b      	sxth	r3, r3
     da8:	2b00      	cmp	r3, #0
     daa:	db1b      	blt.n	de4 <_sercom_i2c_sync_send_address+0x21c>
				msg->flags &= ~I2C_M_BUSY;
     dac:	886b      	ldrh	r3, [r5, #2]
     dae:	4a20      	ldr	r2, [pc, #128]	; (e30 <_sercom_i2c_sync_send_address+0x268>)
     db0:	4013      	ands	r3, r2
     db2:	806b      	strh	r3, [r5, #2]
			*msg->buffer++ = hri_sercomi2cm_read_DATA_reg(hw);
     db4:	68aa      	ldr	r2, [r5, #8]
     db6:	1c53      	adds	r3, r2, #1
     db8:	60ab      	str	r3, [r5, #8]
     dba:	69e3      	ldr	r3, [r4, #28]
     dbc:	075b      	lsls	r3, r3, #29
     dbe:	d4fc      	bmi.n	dba <_sercom_i2c_sync_send_address+0x1f2>
	return ((Sercom *)hw)->I2CM.DATA.reg;
     dc0:	2328      	movs	r3, #40	; 0x28
     dc2:	5ce3      	ldrb	r3, [r4, r3]
     dc4:	7013      	strb	r3, [r2, #0]
	((Sercom *)hw)->I2CM.INTFLAG.reg = SERCOM_I2CM_INTFLAG_SB;
     dc6:	2302      	movs	r3, #2
     dc8:	7623      	strb	r3, [r4, #24]
	return I2C_OK;
     dca:	2000      	movs	r0, #0
}
     dcc:	bd70      	pop	{r4, r5, r6, pc}
			if ((msg->len == 0 && !sclsm) || (msg->len == 1 && sclsm)) {
     dce:	2a00      	cmp	r2, #0
     dd0:	d0e5      	beq.n	d9e <_sercom_i2c_sync_send_address+0x1d6>
	((Sercom *)hw)->I2CM.CTRLB.reg |= SERCOM_I2CM_CTRLB_ACKACT;
     dd2:	6862      	ldr	r2, [r4, #4]
     dd4:	2380      	movs	r3, #128	; 0x80
     dd6:	02db      	lsls	r3, r3, #11
     dd8:	4313      	orrs	r3, r2
     dda:	6063      	str	r3, [r4, #4]
	while (((Sercom *)hw)->I2CM.SYNCBUSY.reg & reg) {
     ddc:	69e3      	ldr	r3, [r4, #28]
     dde:	075b      	lsls	r3, r3, #29
     de0:	d4fc      	bmi.n	ddc <_sercom_i2c_sync_send_address+0x214>
     de2:	e7dc      	b.n	d9e <_sercom_i2c_sync_send_address+0x1d6>
	((Sercom *)hw)->I2CM.CTRLB.reg &= ~SERCOM_I2CM_CTRLB_SMEN;
     de4:	6863      	ldr	r3, [r4, #4]
     de6:	4a12      	ldr	r2, [pc, #72]	; (e30 <_sercom_i2c_sync_send_address+0x268>)
     de8:	4013      	ands	r3, r2
     dea:	6063      	str	r3, [r4, #4]
	while (((Sercom *)hw)->I2CM.SYNCBUSY.reg & reg) {
     dec:	69e3      	ldr	r3, [r4, #28]
     dee:	075b      	lsls	r3, r3, #29
     df0:	d4fc      	bmi.n	dec <_sercom_i2c_sync_send_address+0x224>
	((Sercom *)hw)->I2CM.CTRLB.reg |= SERCOM_I2CM_CTRLB_CMD(mask);
     df2:	6862      	ldr	r2, [r4, #4]
     df4:	23c0      	movs	r3, #192	; 0xc0
     df6:	029b      	lsls	r3, r3, #10
     df8:	4313      	orrs	r3, r2
     dfa:	6063      	str	r3, [r4, #4]
	while (((Sercom *)hw)->I2CM.SYNCBUSY.reg & reg) {
     dfc:	69e3      	ldr	r3, [r4, #28]
     dfe:	075b      	lsls	r3, r3, #29
     e00:	d4fc      	bmi.n	dfc <_sercom_i2c_sync_send_address+0x234>
     e02:	e7d3      	b.n	dac <_sercom_i2c_sync_send_address+0x1e4>
	((Sercom *)hw)->I2CM.INTFLAG.reg = SERCOM_I2CM_INTFLAG_SB;
     e04:	2302      	movs	r3, #2
     e06:	7623      	strb	r3, [r4, #24]
			return I2C_NACK;
     e08:	2002      	movs	r0, #2
     e0a:	4240      	negs	r0, r0
     e0c:	e7de      	b.n	dcc <_sercom_i2c_sync_send_address+0x204>
			return I2C_ERR_BAD_ADDRESS;
     e0e:	2004      	movs	r0, #4
     e10:	4240      	negs	r0, r0
     e12:	e7db      	b.n	dcc <_sercom_i2c_sync_send_address+0x204>
	return I2C_OK;
     e14:	2000      	movs	r0, #0
	return _sercom_i2c_sync_analyse_flags(hw, flags, msg);
     e16:	e7d9      	b.n	dcc <_sercom_i2c_sync_send_address+0x204>
     e18:	000005bc 	.word	0x000005bc
     e1c:	00008bc0 	.word	0x00008bc0
     e20:	00000725 	.word	0x00000725
     e24:	fffbffff 	.word	0xfffbffff
     e28:	000007fe 	.word	0x000007fe
     e2c:	0000ffff 	.word	0x0000ffff
     e30:	fffffeff 	.word	0xfffffeff
     e34:	fffffbff 	.word	0xfffffbff

00000e38 <_usart_async_init>:
{
     e38:	b570      	push	{r4, r5, r6, lr}
     e3a:	0006      	movs	r6, r0
     e3c:	000c      	movs	r4, r1
	ASSERT(device);
     e3e:	1e43      	subs	r3, r0, #1
     e40:	4198      	sbcs	r0, r3
     e42:	b2c0      	uxtb	r0, r0
     e44:	22c4      	movs	r2, #196	; 0xc4
     e46:	4919      	ldr	r1, [pc, #100]	; (eac <_usart_async_init+0x74>)
     e48:	4b19      	ldr	r3, [pc, #100]	; (eb0 <_usart_async_init+0x78>)
     e4a:	4798      	blx	r3
	init_status = _usart_init(hw);
     e4c:	0020      	movs	r0, r4
     e4e:	4b19      	ldr	r3, [pc, #100]	; (eb4 <_usart_async_init+0x7c>)
     e50:	4798      	blx	r3
     e52:	1e05      	subs	r5, r0, #0
	if (init_status) {
     e54:	d001      	beq.n	e5a <_usart_async_init+0x22>
}
     e56:	0028      	movs	r0, r5
     e58:	bd70      	pop	{r4, r5, r6, pc}
	device->hw = hw;
     e5a:	61b4      	str	r4, [r6, #24]
	_sercom_init_irq_param(hw, (void *)device);
     e5c:	0031      	movs	r1, r6
     e5e:	0020      	movs	r0, r4
     e60:	4b15      	ldr	r3, [pc, #84]	; (eb8 <_usart_async_init+0x80>)
     e62:	4798      	blx	r3
	NVIC_DisableIRQ((IRQn_Type)_sercom_get_irq_num(hw));
     e64:	0020      	movs	r0, r4
     e66:	4b15      	ldr	r3, [pc, #84]	; (ebc <_usart_async_init+0x84>)
     e68:	4798      	blx	r3
     e6a:	b243      	sxtb	r3, r0
  \param [in]      IRQn  Device specific interrupt number.
  \note    IRQn must not be negative.
 */
__STATIC_INLINE void __NVIC_DisableIRQ(IRQn_Type IRQn)
{
  if ((int32_t)(IRQn) >= 0)
     e6c:	2b00      	cmp	r3, #0
     e6e:	db0a      	blt.n	e86 <_usart_async_init+0x4e>
  {
    NVIC->ICER[0U] = (uint32_t)(1UL << (((uint32_t)IRQn) & 0x1FUL));
     e70:	211f      	movs	r1, #31
     e72:	4001      	ands	r1, r0
     e74:	2201      	movs	r2, #1
     e76:	408a      	lsls	r2, r1
     e78:	2180      	movs	r1, #128	; 0x80
     e7a:	4c11      	ldr	r4, [pc, #68]	; (ec0 <_usart_async_init+0x88>)
     e7c:	5062      	str	r2, [r4, r1]
  __ASM volatile ("dsb 0xF":::"memory");
     e7e:	f3bf 8f4f 	dsb	sy
  __ASM volatile ("isb 0xF":::"memory");
     e82:	f3bf 8f6f 	isb	sy
  \param [in]      IRQn  Device specific interrupt number.
  \note    IRQn must not be negative.
 */
__STATIC_INLINE void __NVIC_ClearPendingIRQ(IRQn_Type IRQn)
{
  if ((int32_t)(IRQn) >= 0)
     e86:	2b00      	cmp	r3, #0
     e88:	db07      	blt.n	e9a <_usart_async_init+0x62>
  {
    NVIC->ICPR[0U] = (uint32_t)(1UL << (((uint32_t)IRQn) & 0x1FUL));
     e8a:	211f      	movs	r1, #31
     e8c:	4001      	ands	r1, r0
     e8e:	2201      	movs	r2, #1
     e90:	408a      	lsls	r2, r1
     e92:	21c0      	movs	r1, #192	; 0xc0
     e94:	0049      	lsls	r1, r1, #1
     e96:	4c0a      	ldr	r4, [pc, #40]	; (ec0 <_usart_async_init+0x88>)
     e98:	5062      	str	r2, [r4, r1]
  if ((int32_t)(IRQn) >= 0)
     e9a:	2b00      	cmp	r3, #0
     e9c:	dbdb      	blt.n	e56 <_usart_async_init+0x1e>
    NVIC->ISER[0U] = (uint32_t)(1UL << (((uint32_t)IRQn) & 0x1FUL));
     e9e:	231f      	movs	r3, #31
     ea0:	4018      	ands	r0, r3
     ea2:	3b1e      	subs	r3, #30
     ea4:	4083      	lsls	r3, r0
     ea6:	4a06      	ldr	r2, [pc, #24]	; (ec0 <_usart_async_init+0x88>)
     ea8:	6013      	str	r3, [r2, #0]
     eaa:	e7d4      	b.n	e56 <_usart_async_init+0x1e>
     eac:	00008bc0 	.word	0x00008bc0
     eb0:	00000725 	.word	0x00000725
     eb4:	000009c5 	.word	0x000009c5
     eb8:	00000959 	.word	0x00000959
     ebc:	00000971 	.word	0x00000971
     ec0:	e000e100 	.word	0xe000e100

00000ec4 <_usart_async_enable>:
	hri_sercomusart_set_CTRLA_ENABLE_bit(device->hw);
     ec4:	6982      	ldr	r2, [r0, #24]
	((Sercom *)hw)->USART.CTRLA.reg |= SERCOM_USART_CTRLA_ENABLE;
     ec6:	6813      	ldr	r3, [r2, #0]
     ec8:	2102      	movs	r1, #2
     eca:	430b      	orrs	r3, r1
     ecc:	6013      	str	r3, [r2, #0]
	while (((Sercom *)hw)->USART.SYNCBUSY.reg & reg) {
     ece:	69d3      	ldr	r3, [r2, #28]
     ed0:	079b      	lsls	r3, r3, #30
     ed2:	d1fc      	bne.n	ece <_usart_async_enable+0xa>
}
     ed4:	4770      	bx	lr

00000ed6 <_usart_async_write_byte>:
	hri_sercomusart_write_DATA_reg(device->hw, data);
     ed6:	6983      	ldr	r3, [r0, #24]
     ed8:	b289      	uxth	r1, r1
	((Sercom *)hw)->USART.DATA.reg = data;
     eda:	8519      	strh	r1, [r3, #40]	; 0x28
}
     edc:	4770      	bx	lr

00000ede <_usart_async_enable_byte_sent_irq>:
	hri_sercomusart_set_INTEN_DRE_bit(device->hw);
     ede:	6983      	ldr	r3, [r0, #24]
	((Sercom *)hw)->USART.INTENSET.reg = SERCOM_USART_INTENSET_DRE;
     ee0:	2201      	movs	r2, #1
     ee2:	759a      	strb	r2, [r3, #22]
}
     ee4:	4770      	bx	lr

00000ee6 <_usart_async_enable_tx_done_irq>:
	hri_sercomusart_set_INTEN_TXC_bit(device->hw);
     ee6:	6983      	ldr	r3, [r0, #24]
	((Sercom *)hw)->USART.INTENSET.reg = SERCOM_USART_INTENSET_TXC;
     ee8:	2202      	movs	r2, #2
     eea:	759a      	strb	r2, [r3, #22]
}
     eec:	4770      	bx	lr
	...

00000ef0 <_i2c_m_sync_init>:
{
     ef0:	b570      	push	{r4, r5, r6, lr}
     ef2:	0004      	movs	r4, r0
     ef4:	000d      	movs	r5, r1
	ASSERT(i2c_dev);
     ef6:	1e43      	subs	r3, r0, #1
     ef8:	4198      	sbcs	r0, r3
     efa:	b2c0      	uxtb	r0, r0
     efc:	4a04      	ldr	r2, [pc, #16]	; (f10 <_i2c_m_sync_init+0x20>)
     efe:	4905      	ldr	r1, [pc, #20]	; (f14 <_i2c_m_sync_init+0x24>)
     f00:	4b05      	ldr	r3, [pc, #20]	; (f18 <_i2c_m_sync_init+0x28>)
     f02:	4798      	blx	r3
	i2c_dev->hw = hw;
     f04:	6125      	str	r5, [r4, #16]
	return _i2c_m_sync_init_impl(&i2c_dev->service, hw);
     f06:	0029      	movs	r1, r5
     f08:	0020      	movs	r0, r4
     f0a:	4b04      	ldr	r3, [pc, #16]	; (f1c <_i2c_m_sync_init+0x2c>)
     f0c:	4798      	blx	r3
}
     f0e:	bd70      	pop	{r4, r5, r6, pc}
     f10:	0000052f 	.word	0x0000052f
     f14:	00008bc0 	.word	0x00008bc0
     f18:	00000725 	.word	0x00000725
     f1c:	00000afd 	.word	0x00000afd

00000f20 <_i2c_m_sync_enable>:
{
     f20:	b570      	push	{r4, r5, r6, lr}
     f22:	0004      	movs	r4, r0
	ASSERT(i2c_dev);
     f24:	4d19      	ldr	r5, [pc, #100]	; (f8c <_i2c_m_sync_enable+0x6c>)
     f26:	1e43      	subs	r3, r0, #1
     f28:	4198      	sbcs	r0, r3
     f2a:	b2c0      	uxtb	r0, r0
     f2c:	4a18      	ldr	r2, [pc, #96]	; (f90 <_i2c_m_sync_enable+0x70>)
     f2e:	0029      	movs	r1, r5
     f30:	4e18      	ldr	r6, [pc, #96]	; (f94 <_i2c_m_sync_enable+0x74>)
     f32:	47b0      	blx	r6
	return _i2c_m_enable_implementation(i2c_dev->hw);
     f34:	6924      	ldr	r4, [r4, #16]
	ASSERT(hw);
     f36:	0020      	movs	r0, r4
     f38:	1e43      	subs	r3, r0, #1
     f3a:	4198      	sbcs	r0, r3
     f3c:	b2c0      	uxtb	r0, r0
     f3e:	4a16      	ldr	r2, [pc, #88]	; (f98 <_i2c_m_sync_enable+0x78>)
     f40:	0029      	movs	r1, r5
     f42:	47b0      	blx	r6
	((Sercom *)hw)->I2CM.CTRLA.reg |= SERCOM_I2CM_CTRLA_ENABLE;
     f44:	6823      	ldr	r3, [r4, #0]
     f46:	2202      	movs	r2, #2
     f48:	4313      	orrs	r3, r2
     f4a:	6023      	str	r3, [r4, #0]
	while (((Sercom *)hw)->I2CM.SYNCBUSY.reg & reg) {
     f4c:	69e3      	ldr	r3, [r4, #28]
     f4e:	079b      	lsls	r3, r3, #30
     f50:	d1fc      	bne.n	f4c <_i2c_m_sync_enable+0x2c>
     f52:	2004      	movs	r0, #4
     f54:	4911      	ldr	r1, [pc, #68]	; (f9c <_i2c_m_sync_enable+0x7c>)
     f56:	69e3      	ldr	r3, [r4, #28]
     f58:	075b      	lsls	r3, r3, #29
     f5a:	d4fc      	bmi.n	f56 <_i2c_m_sync_enable+0x36>
	return (((Sercom *)hw)->I2CM.STATUS.reg & SERCOM_I2CM_STATUS_BUSSTATE_Msk) >> SERCOM_I2CM_STATUS_BUSSTATE_Pos;
     f5c:	8b62      	ldrh	r2, [r4, #26]
     f5e:	0912      	lsrs	r2, r2, #4
     f60:	2303      	movs	r3, #3
     f62:	4013      	ands	r3, r2
	while (hri_sercomi2cm_read_STATUS_BUSSTATE_bf(hw) != I2C_IDLE) {
     f64:	2b01      	cmp	r3, #1
     f66:	d00b      	beq.n	f80 <_i2c_m_sync_enable+0x60>
		timeout--;
     f68:	3901      	subs	r1, #1
		if (timeout <= 0) {
     f6a:	2900      	cmp	r1, #0
     f6c:	dcf3      	bgt.n	f56 <_i2c_m_sync_enable+0x36>
			if (--timeout_attempt)
     f6e:	3801      	subs	r0, #1
     f70:	2800      	cmp	r0, #0
     f72:	d007      	beq.n	f84 <_i2c_m_sync_enable+0x64>
}

static inline void hri_sercomi2cm_clear_STATUS_reg(const void *const hw, hri_sercomi2cm_status_reg_t mask)
{
	SERCOM_CRITICAL_SECTION_ENTER();
	((Sercom *)hw)->I2CM.STATUS.reg = mask;
     f74:	2310      	movs	r3, #16
     f76:	8363      	strh	r3, [r4, #26]
	while (((Sercom *)hw)->I2CM.SYNCBUSY.reg & reg) {
     f78:	69e3      	ldr	r3, [r4, #28]
     f7a:	075b      	lsls	r3, r3, #29
     f7c:	d4fc      	bmi.n	f78 <_i2c_m_sync_enable+0x58>
     f7e:	e7e9      	b.n	f54 <_i2c_m_sync_enable+0x34>
	return ERR_NONE;
     f80:	2000      	movs	r0, #0
}
     f82:	bd70      	pop	{r4, r5, r6, pc}
				return I2C_ERR_BUSY;
     f84:	2006      	movs	r0, #6
     f86:	4240      	negs	r0, r0
	return _i2c_m_enable_implementation(i2c_dev->hw);
     f88:	e7fb      	b.n	f82 <_i2c_m_sync_enable+0x62>
     f8a:	46c0      	nop			; (mov r8, r8)
     f8c:	00008bc0 	.word	0x00008bc0
     f90:	0000054c 	.word	0x0000054c
     f94:	00000725 	.word	0x00000725
     f98:	0000061c 	.word	0x0000061c
     f9c:	0000ffff 	.word	0x0000ffff

00000fa0 <_i2c_m_sync_transfer>:
{
     fa0:	b5f8      	push	{r3, r4, r5, r6, r7, lr}
     fa2:	0005      	movs	r5, r0
     fa4:	000e      	movs	r6, r1
	void *   hw = i2c_dev->hw;
     fa6:	6904      	ldr	r4, [r0, #16]
	ASSERT(i2c_dev);
     fa8:	1e43      	subs	r3, r0, #1
     faa:	4198      	sbcs	r0, r3
     fac:	b2c0      	uxtb	r0, r0
     fae:	4a93      	ldr	r2, [pc, #588]	; (11fc <_i2c_m_sync_transfer+0x25c>)
     fb0:	4993      	ldr	r1, [pc, #588]	; (1200 <_i2c_m_sync_transfer+0x260>)
     fb2:	4f94      	ldr	r7, [pc, #592]	; (1204 <_i2c_m_sync_transfer+0x264>)
     fb4:	47b8      	blx	r7
	ASSERT(i2c_dev->hw);
     fb6:	6928      	ldr	r0, [r5, #16]
     fb8:	1e43      	subs	r3, r0, #1
     fba:	4198      	sbcs	r0, r3
     fbc:	b2c0      	uxtb	r0, r0
     fbe:	22bd      	movs	r2, #189	; 0xbd
     fc0:	00d2      	lsls	r2, r2, #3
     fc2:	498f      	ldr	r1, [pc, #572]	; (1200 <_i2c_m_sync_transfer+0x260>)
     fc4:	47b8      	blx	r7
	ASSERT(msg);
     fc6:	0030      	movs	r0, r6
     fc8:	1e43      	subs	r3, r0, #1
     fca:	4198      	sbcs	r0, r3
     fcc:	b2c0      	uxtb	r0, r0
     fce:	4a8e      	ldr	r2, [pc, #568]	; (1208 <_i2c_m_sync_transfer+0x268>)
     fd0:	498b      	ldr	r1, [pc, #556]	; (1200 <_i2c_m_sync_transfer+0x260>)
     fd2:	47b8      	blx	r7
	if (i2c_dev->service.msg.flags & I2C_M_BUSY) {
     fd4:	886b      	ldrh	r3, [r5, #2]
     fd6:	05db      	lsls	r3, r3, #23
     fd8:	d500      	bpl.n	fdc <_i2c_m_sync_transfer+0x3c>
     fda:	e10b      	b.n	11f4 <_i2c_m_sync_transfer+0x254>
	msg->flags |= I2C_M_BUSY;
     fdc:	8872      	ldrh	r2, [r6, #2]
     fde:	2380      	movs	r3, #128	; 0x80
     fe0:	005b      	lsls	r3, r3, #1
     fe2:	469c      	mov	ip, r3
     fe4:	431a      	orrs	r2, r3
     fe6:	8072      	strh	r2, [r6, #2]
	i2c_dev->service.msg = *msg;
     fe8:	002a      	movs	r2, r5
     fea:	0031      	movs	r1, r6
     fec:	c989      	ldmia	r1!, {r0, r3, r7}
     fee:	c289      	stmia	r2!, {r0, r3, r7}
	((Sercom *)hw)->I2CM.CTRLB.reg |= SERCOM_I2CM_CTRLB_SMEN;
     ff0:	6862      	ldr	r2, [r4, #4]
     ff2:	4663      	mov	r3, ip
     ff4:	4313      	orrs	r3, r2
     ff6:	6063      	str	r3, [r4, #4]
	while (((Sercom *)hw)->I2CM.SYNCBUSY.reg & reg) {
     ff8:	69e3      	ldr	r3, [r4, #28]
     ffa:	075b      	lsls	r3, r3, #29
     ffc:	d4fc      	bmi.n	ff8 <_i2c_m_sync_transfer+0x58>
	ret = _sercom_i2c_sync_send_address(i2c_dev);
     ffe:	0028      	movs	r0, r5
    1000:	4b82      	ldr	r3, [pc, #520]	; (120c <_i2c_m_sync_transfer+0x26c>)
    1002:	4798      	blx	r3
	if (ret) {
    1004:	2800      	cmp	r0, #0
    1006:	d100      	bne.n	100a <_i2c_m_sync_transfer+0x6a>
    1008:	e09d      	b.n	1146 <_i2c_m_sync_transfer+0x1a6>
		i2c_dev->service.msg.flags &= ~I2C_M_BUSY;
    100a:	886b      	ldrh	r3, [r5, #2]
    100c:	4a80      	ldr	r2, [pc, #512]	; (1210 <_i2c_m_sync_transfer+0x270>)
    100e:	4013      	ands	r3, r2
    1010:	806b      	strh	r3, [r5, #2]
}
    1012:	bdf8      	pop	{r3, r4, r5, r6, r7, pc}
			return I2C_ERR_BUS;
    1014:	2005      	movs	r0, #5
    1016:	4240      	negs	r0, r0
    1018:	e0a6      	b.n	1168 <_i2c_m_sync_transfer+0x1c8>
			if (msg->flags & I2C_M_STOP) {
    101a:	8873      	ldrh	r3, [r6, #2]
    101c:	b21b      	sxth	r3, r3
    101e:	2b00      	cmp	r3, #0
    1020:	db04      	blt.n	102c <_i2c_m_sync_transfer+0x8c>
			i2c_dev->service.msg.flags &= ~I2C_M_BUSY;
    1022:	886b      	ldrh	r3, [r5, #2]
    1024:	4a7a      	ldr	r2, [pc, #488]	; (1210 <_i2c_m_sync_transfer+0x270>)
    1026:	4013      	ands	r3, r2
    1028:	806b      	strh	r3, [r5, #2]
			return ret;
    102a:	e7f2      	b.n	1012 <_i2c_m_sync_transfer+0x72>
	((Sercom *)hw)->I2CM.CTRLB.reg |= SERCOM_I2CM_CTRLB_CMD(mask);
    102c:	6862      	ldr	r2, [r4, #4]
    102e:	23c0      	movs	r3, #192	; 0xc0
    1030:	029b      	lsls	r3, r3, #10
    1032:	4313      	orrs	r3, r2
    1034:	6063      	str	r3, [r4, #4]
	while (((Sercom *)hw)->I2CM.SYNCBUSY.reg & reg) {
    1036:	69e3      	ldr	r3, [r4, #28]
    1038:	075b      	lsls	r3, r3, #29
    103a:	d4fc      	bmi.n	1036 <_i2c_m_sync_transfer+0x96>
    103c:	e7f1      	b.n	1022 <_i2c_m_sync_transfer+0x82>
			if (status & SERCOM_I2CM_STATUS_RXNACK) {
    103e:	0753      	lsls	r3, r2, #29
    1040:	d41b      	bmi.n	107a <_i2c_m_sync_transfer+0xda>
			if (msg->flags & I2C_M_TEN) {
    1042:	886b      	ldrh	r3, [r5, #2]
    1044:	055b      	lsls	r3, r3, #21
    1046:	d534      	bpl.n	10b2 <_i2c_m_sync_transfer+0x112>
				                              ((((msg->addr & TEN_ADDR_MASK) >> 8) | TEN_ADDR_FRAME) << 1) | I2C_M_RD
    1048:	882a      	ldrh	r2, [r5, #0]
    104a:	1212      	asrs	r2, r2, #8
    104c:	0052      	lsls	r2, r2, #1
				                                  | (hri_sercomi2cm_read_ADDR_reg(hw) & SERCOM_I2CM_ADDR_HS));
    104e:	2306      	movs	r3, #6
    1050:	401a      	ands	r2, r3
    1052:	69e3      	ldr	r3, [r4, #28]
    1054:	075b      	lsls	r3, r3, #29
    1056:	d4fc      	bmi.n	1052 <_i2c_m_sync_transfer+0xb2>
	return ((Sercom *)hw)->I2CM.ADDR.reg;
    1058:	6a63      	ldr	r3, [r4, #36]	; 0x24
    105a:	2180      	movs	r1, #128	; 0x80
    105c:	01c9      	lsls	r1, r1, #7
    105e:	400b      	ands	r3, r1
    1060:	4313      	orrs	r3, r2
				hri_sercomi2cm_write_ADDR_reg(hw,
    1062:	22f1      	movs	r2, #241	; 0xf1
    1064:	4313      	orrs	r3, r2
	((Sercom *)hw)->I2CM.ADDR.reg = data;
    1066:	6263      	str	r3, [r4, #36]	; 0x24
	while (((Sercom *)hw)->I2CM.SYNCBUSY.reg & reg) {
    1068:	69e3      	ldr	r3, [r4, #28]
    106a:	075b      	lsls	r3, r3, #29
    106c:	d4fc      	bmi.n	1068 <_i2c_m_sync_transfer+0xc8>
				msg->flags &= ~I2C_M_TEN;
    106e:	886b      	ldrh	r3, [r5, #2]
    1070:	4a68      	ldr	r2, [pc, #416]	; (1214 <_i2c_m_sync_transfer+0x274>)
    1072:	4013      	ands	r3, r2
    1074:	806b      	strh	r3, [r5, #2]
				return I2C_OK;
    1076:	2000      	movs	r0, #0
    1078:	e065      	b.n	1146 <_i2c_m_sync_transfer+0x1a6>
				if (msg->len > 0) {
    107a:	686b      	ldr	r3, [r5, #4]
    107c:	2b00      	cmp	r3, #0
    107e:	dd04      	ble.n	108a <_i2c_m_sync_transfer+0xea>
					msg->flags |= I2C_M_FAIL;
    1080:	886b      	ldrh	r3, [r5, #2]
    1082:	2280      	movs	r2, #128	; 0x80
    1084:	0152      	lsls	r2, r2, #5
    1086:	4313      	orrs	r3, r2
    1088:	806b      	strh	r3, [r5, #2]
				if (msg->flags & I2C_M_STOP) {
    108a:	886b      	ldrh	r3, [r5, #2]
    108c:	b21b      	sxth	r3, r3
    108e:	2b00      	cmp	r3, #0
    1090:	db06      	blt.n	10a0 <_i2c_m_sync_transfer+0x100>
				msg->flags &= ~I2C_M_BUSY;
    1092:	886b      	ldrh	r3, [r5, #2]
    1094:	4a5e      	ldr	r2, [pc, #376]	; (1210 <_i2c_m_sync_transfer+0x270>)
    1096:	4013      	ands	r3, r2
    1098:	806b      	strh	r3, [r5, #2]
				return I2C_NACK;
    109a:	2002      	movs	r0, #2
    109c:	4240      	negs	r0, r0
    109e:	e052      	b.n	1146 <_i2c_m_sync_transfer+0x1a6>
	((Sercom *)hw)->I2CM.CTRLB.reg |= SERCOM_I2CM_CTRLB_CMD(mask);
    10a0:	6862      	ldr	r2, [r4, #4]
    10a2:	23c0      	movs	r3, #192	; 0xc0
    10a4:	029b      	lsls	r3, r3, #10
    10a6:	4313      	orrs	r3, r2
    10a8:	6063      	str	r3, [r4, #4]
	while (((Sercom *)hw)->I2CM.SYNCBUSY.reg & reg) {
    10aa:	69e3      	ldr	r3, [r4, #28]
    10ac:	075b      	lsls	r3, r3, #29
    10ae:	d4fc      	bmi.n	10aa <_i2c_m_sync_transfer+0x10a>
    10b0:	e7ef      	b.n	1092 <_i2c_m_sync_transfer+0xf2>
			if (msg->len == 0) {
    10b2:	6868      	ldr	r0, [r5, #4]
    10b4:	2800      	cmp	r0, #0
    10b6:	d111      	bne.n	10dc <_i2c_m_sync_transfer+0x13c>
				if (msg->flags & I2C_M_STOP) {
    10b8:	886b      	ldrh	r3, [r5, #2]
    10ba:	b21b      	sxth	r3, r3
    10bc:	2b00      	cmp	r3, #0
    10be:	db04      	blt.n	10ca <_i2c_m_sync_transfer+0x12a>
				msg->flags &= ~I2C_M_BUSY;
    10c0:	886b      	ldrh	r3, [r5, #2]
    10c2:	4a53      	ldr	r2, [pc, #332]	; (1210 <_i2c_m_sync_transfer+0x270>)
    10c4:	4013      	ands	r3, r2
    10c6:	806b      	strh	r3, [r5, #2]
    10c8:	e03d      	b.n	1146 <_i2c_m_sync_transfer+0x1a6>
	((Sercom *)hw)->I2CM.CTRLB.reg |= SERCOM_I2CM_CTRLB_CMD(mask);
    10ca:	6862      	ldr	r2, [r4, #4]
    10cc:	23c0      	movs	r3, #192	; 0xc0
    10ce:	029b      	lsls	r3, r3, #10
    10d0:	4313      	orrs	r3, r2
    10d2:	6063      	str	r3, [r4, #4]
	while (((Sercom *)hw)->I2CM.SYNCBUSY.reg & reg) {
    10d4:	69e3      	ldr	r3, [r4, #28]
    10d6:	075b      	lsls	r3, r3, #29
    10d8:	d4fc      	bmi.n	10d4 <_i2c_m_sync_transfer+0x134>
    10da:	e7f1      	b.n	10c0 <_i2c_m_sync_transfer+0x120>
				hri_sercomi2cm_write_DATA_reg(hw, *msg->buffer);
    10dc:	68ab      	ldr	r3, [r5, #8]
    10de:	781a      	ldrb	r2, [r3, #0]
	((Sercom *)hw)->I2CM.DATA.reg = data;
    10e0:	2328      	movs	r3, #40	; 0x28
    10e2:	54e2      	strb	r2, [r4, r3]
	while (((Sercom *)hw)->I2CM.SYNCBUSY.reg & reg) {
    10e4:	69e3      	ldr	r3, [r4, #28]
    10e6:	075b      	lsls	r3, r3, #29
    10e8:	d4fc      	bmi.n	10e4 <_i2c_m_sync_transfer+0x144>
				msg->buffer++;
    10ea:	68ab      	ldr	r3, [r5, #8]
    10ec:	3301      	adds	r3, #1
    10ee:	60ab      	str	r3, [r5, #8]
				msg->len--;
    10f0:	686b      	ldr	r3, [r5, #4]
    10f2:	3b01      	subs	r3, #1
    10f4:	606b      	str	r3, [r5, #4]
			return I2C_OK;
    10f6:	2000      	movs	r0, #0
    10f8:	e025      	b.n	1146 <_i2c_m_sync_transfer+0x1a6>
	} else if (flags & SB_FLAG) {
    10fa:	07bb      	lsls	r3, r7, #30
    10fc:	d578      	bpl.n	11f0 <_i2c_m_sync_transfer+0x250>
		if ((msg->len) && !(status & SERCOM_I2CM_STATUS_RXNACK)) {
    10fe:	686b      	ldr	r3, [r5, #4]
    1100:	2b00      	cmp	r3, #0
    1102:	d06d      	beq.n	11e0 <_i2c_m_sync_transfer+0x240>
    1104:	0752      	lsls	r2, r2, #29
    1106:	d46b      	bmi.n	11e0 <_i2c_m_sync_transfer+0x240>
			msg->len--;
    1108:	3b01      	subs	r3, #1
    110a:	606b      	str	r3, [r5, #4]
			if ((msg->len == 0 && !sclsm) || (msg->len == 1 && sclsm)) {
    110c:	2b00      	cmp	r3, #0
    110e:	d101      	bne.n	1114 <_i2c_m_sync_transfer+0x174>
    1110:	2900      	cmp	r1, #0
    1112:	d04c      	beq.n	11ae <_i2c_m_sync_transfer+0x20e>
    1114:	2b01      	cmp	r3, #1
    1116:	d048      	beq.n	11aa <_i2c_m_sync_transfer+0x20a>
			if (msg->len == 0) {
    1118:	686b      	ldr	r3, [r5, #4]
    111a:	2b00      	cmp	r3, #0
    111c:	d107      	bne.n	112e <_i2c_m_sync_transfer+0x18e>
				if (msg->flags & I2C_M_STOP) {
    111e:	886b      	ldrh	r3, [r5, #2]
    1120:	b21b      	sxth	r3, r3
    1122:	2b00      	cmp	r3, #0
    1124:	db4c      	blt.n	11c0 <_i2c_m_sync_transfer+0x220>
				msg->flags &= ~I2C_M_BUSY;
    1126:	886b      	ldrh	r3, [r5, #2]
    1128:	4a39      	ldr	r2, [pc, #228]	; (1210 <_i2c_m_sync_transfer+0x270>)
    112a:	4013      	ands	r3, r2
    112c:	806b      	strh	r3, [r5, #2]
			*msg->buffer++ = hri_sercomi2cm_read_DATA_reg(hw);
    112e:	68aa      	ldr	r2, [r5, #8]
    1130:	1c53      	adds	r3, r2, #1
    1132:	60ab      	str	r3, [r5, #8]
    1134:	69e3      	ldr	r3, [r4, #28]
    1136:	075b      	lsls	r3, r3, #29
    1138:	d4fc      	bmi.n	1134 <_i2c_m_sync_transfer+0x194>
	return ((Sercom *)hw)->I2CM.DATA.reg;
    113a:	2328      	movs	r3, #40	; 0x28
    113c:	5ce3      	ldrb	r3, [r4, r3]
    113e:	7013      	strb	r3, [r2, #0]
	((Sercom *)hw)->I2CM.INTFLAG.reg = SERCOM_I2CM_INTFLAG_SB;
    1140:	2302      	movs	r3, #2
    1142:	7623      	strb	r3, [r4, #24]
	return I2C_OK;
    1144:	2000      	movs	r0, #0
	while (i2c_dev->service.msg.flags & I2C_M_BUSY) {
    1146:	886b      	ldrh	r3, [r5, #2]
    1148:	05db      	lsls	r3, r3, #23
    114a:	d400      	bmi.n	114e <_i2c_m_sync_transfer+0x1ae>
    114c:	e761      	b.n	1012 <_i2c_m_sync_transfer+0x72>
	void *   hw      = i2c_dev->hw;
    114e:	6928      	ldr	r0, [r5, #16]
	uint32_t timeout = 65535;
    1150:	4a31      	ldr	r2, [pc, #196]	; (1218 <_i2c_m_sync_transfer+0x278>)
	return ((Sercom *)hw)->I2CM.INTFLAG.reg;
    1152:	7e03      	ldrb	r3, [r0, #24]
    1154:	b2db      	uxtb	r3, r3
		*flags = hri_sercomi2cm_read_INTFLAG_reg(hw);
    1156:	001f      	movs	r7, r3
		if (timeout-- == 0) {
    1158:	1e51      	subs	r1, r2, #1
    115a:	2a00      	cmp	r2, #0
    115c:	d100      	bne.n	1160 <_i2c_m_sync_transfer+0x1c0>
    115e:	e759      	b.n	1014 <_i2c_m_sync_transfer+0x74>
    1160:	000a      	movs	r2, r1
	} while (!(*flags & MB_FLAG) && !(*flags & SB_FLAG));
    1162:	079b      	lsls	r3, r3, #30
    1164:	d0f5      	beq.n	1152 <_i2c_m_sync_transfer+0x1b2>
	return I2C_OK;
    1166:	2000      	movs	r0, #0
		if (ret) {
    1168:	2800      	cmp	r0, #0
    116a:	d000      	beq.n	116e <_i2c_m_sync_transfer+0x1ce>
    116c:	e755      	b.n	101a <_i2c_m_sync_transfer+0x7a>
	tmp = ((Sercom *)hw)->I2CM.CTRLA.reg;
    116e:	6823      	ldr	r3, [r4, #0]
	tmp = (tmp & SERCOM_I2CM_CTRLA_SCLSM) >> SERCOM_I2CM_CTRLA_SCLSM_Pos;
    1170:	0edb      	lsrs	r3, r3, #27
    1172:	2101      	movs	r1, #1
    1174:	4019      	ands	r1, r3
	while (((Sercom *)hw)->I2CM.SYNCBUSY.reg & reg) {
    1176:	69e3      	ldr	r3, [r4, #28]
    1178:	075b      	lsls	r3, r3, #29
    117a:	d4fc      	bmi.n	1176 <_i2c_m_sync_transfer+0x1d6>
	return ((Sercom *)hw)->I2CM.STATUS.reg;
    117c:	8b62      	ldrh	r2, [r4, #26]
    117e:	b292      	uxth	r2, r2
	if (flags & MB_FLAG) {
    1180:	07fb      	lsls	r3, r7, #31
    1182:	d5ba      	bpl.n	10fa <_i2c_m_sync_transfer+0x15a>
		if (status & SERCOM_I2CM_STATUS_ARBLOST) {
    1184:	0793      	lsls	r3, r2, #30
    1186:	d400      	bmi.n	118a <_i2c_m_sync_transfer+0x1ea>
    1188:	e759      	b.n	103e <_i2c_m_sync_transfer+0x9e>
	((Sercom *)hw)->I2CM.INTFLAG.reg = SERCOM_I2CM_INTFLAG_MB;
    118a:	2301      	movs	r3, #1
    118c:	7623      	strb	r3, [r4, #24]
			msg->flags |= I2C_M_FAIL;
    118e:	886b      	ldrh	r3, [r5, #2]
    1190:	2180      	movs	r1, #128	; 0x80
    1192:	0149      	lsls	r1, r1, #5
    1194:	430b      	orrs	r3, r1
    1196:	806b      	strh	r3, [r5, #2]
			msg->flags &= ~I2C_M_BUSY;
    1198:	886b      	ldrh	r3, [r5, #2]
    119a:	491d      	ldr	r1, [pc, #116]	; (1210 <_i2c_m_sync_transfer+0x270>)
    119c:	400b      	ands	r3, r1
    119e:	806b      	strh	r3, [r5, #2]
			if (status & SERCOM_I2CM_STATUS_BUSERR) {
    11a0:	07d3      	lsls	r3, r2, #31
    11a2:	d522      	bpl.n	11ea <_i2c_m_sync_transfer+0x24a>
				return I2C_ERR_BUS;
    11a4:	2005      	movs	r0, #5
    11a6:	4240      	negs	r0, r0
    11a8:	e7cd      	b.n	1146 <_i2c_m_sync_transfer+0x1a6>
			if ((msg->len == 0 && !sclsm) || (msg->len == 1 && sclsm)) {
    11aa:	2900      	cmp	r1, #0
    11ac:	d0b4      	beq.n	1118 <_i2c_m_sync_transfer+0x178>
	((Sercom *)hw)->I2CM.CTRLB.reg |= SERCOM_I2CM_CTRLB_ACKACT;
    11ae:	6862      	ldr	r2, [r4, #4]
    11b0:	2380      	movs	r3, #128	; 0x80
    11b2:	02db      	lsls	r3, r3, #11
    11b4:	4313      	orrs	r3, r2
    11b6:	6063      	str	r3, [r4, #4]
	while (((Sercom *)hw)->I2CM.SYNCBUSY.reg & reg) {
    11b8:	69e3      	ldr	r3, [r4, #28]
    11ba:	075b      	lsls	r3, r3, #29
    11bc:	d4fc      	bmi.n	11b8 <_i2c_m_sync_transfer+0x218>
    11be:	e7ab      	b.n	1118 <_i2c_m_sync_transfer+0x178>
	((Sercom *)hw)->I2CM.CTRLB.reg &= ~SERCOM_I2CM_CTRLB_SMEN;
    11c0:	6863      	ldr	r3, [r4, #4]
    11c2:	4a13      	ldr	r2, [pc, #76]	; (1210 <_i2c_m_sync_transfer+0x270>)
    11c4:	4013      	ands	r3, r2
    11c6:	6063      	str	r3, [r4, #4]
	while (((Sercom *)hw)->I2CM.SYNCBUSY.reg & reg) {
    11c8:	69e3      	ldr	r3, [r4, #28]
    11ca:	075b      	lsls	r3, r3, #29
    11cc:	d4fc      	bmi.n	11c8 <_i2c_m_sync_transfer+0x228>
	((Sercom *)hw)->I2CM.CTRLB.reg |= SERCOM_I2CM_CTRLB_CMD(mask);
    11ce:	6862      	ldr	r2, [r4, #4]
    11d0:	23c0      	movs	r3, #192	; 0xc0
    11d2:	029b      	lsls	r3, r3, #10
    11d4:	4313      	orrs	r3, r2
    11d6:	6063      	str	r3, [r4, #4]
	while (((Sercom *)hw)->I2CM.SYNCBUSY.reg & reg) {
    11d8:	69e3      	ldr	r3, [r4, #28]
    11da:	075b      	lsls	r3, r3, #29
    11dc:	d4fc      	bmi.n	11d8 <_i2c_m_sync_transfer+0x238>
    11de:	e7a2      	b.n	1126 <_i2c_m_sync_transfer+0x186>
	((Sercom *)hw)->I2CM.INTFLAG.reg = SERCOM_I2CM_INTFLAG_SB;
    11e0:	2302      	movs	r3, #2
    11e2:	7623      	strb	r3, [r4, #24]
			return I2C_NACK;
    11e4:	2002      	movs	r0, #2
    11e6:	4240      	negs	r0, r0
    11e8:	e7ad      	b.n	1146 <_i2c_m_sync_transfer+0x1a6>
			return I2C_ERR_BAD_ADDRESS;
    11ea:	2004      	movs	r0, #4
    11ec:	4240      	negs	r0, r0
    11ee:	e7aa      	b.n	1146 <_i2c_m_sync_transfer+0x1a6>
	return I2C_OK;
    11f0:	2000      	movs	r0, #0
    11f2:	e7a8      	b.n	1146 <_i2c_m_sync_transfer+0x1a6>
		return I2C_ERR_BUSY;
    11f4:	2006      	movs	r0, #6
    11f6:	4240      	negs	r0, r0
    11f8:	e70b      	b.n	1012 <_i2c_m_sync_transfer+0x72>
    11fa:	46c0      	nop			; (mov r8, r8)
    11fc:	000005e7 	.word	0x000005e7
    1200:	00008bc0 	.word	0x00008bc0
    1204:	00000725 	.word	0x00000725
    1208:	000005e9 	.word	0x000005e9
    120c:	00000bc9 	.word	0x00000bc9
    1210:	fffffeff 	.word	0xfffffeff
    1214:	fffffbff 	.word	0xfffffbff
    1218:	0000ffff 	.word	0x0000ffff

0000121c <SERCOM5_Handler>:

	return NULL;
}

void SERCOM5_Handler(void)
{
    121c:	b510      	push	{r4, lr}
	_sercom_usart_interrupt_handler(_sercom5_dev);
    121e:	4b02      	ldr	r3, [pc, #8]	; (1228 <SERCOM5_Handler+0xc>)
    1220:	6818      	ldr	r0, [r3, #0]
    1222:	4b02      	ldr	r3, [pc, #8]	; (122c <SERCOM5_Handler+0x10>)
    1224:	4798      	blx	r3
}
    1226:	bd10      	pop	{r4, pc}
    1228:	200009e4 	.word	0x200009e4
    122c:	000008f5 	.word	0x000008f5

00001230 <_sysctrl_init_sources>:
}

static inline hri_sysctrl_osc8m_reg_t hri_sysctrl_read_OSC8M_CALIB_bf(const void *const hw)
{
	uint32_t tmp;
	tmp = ((Sysctrl *)hw)->OSC8M.reg;
    1230:	4a0e      	ldr	r2, [pc, #56]	; (126c <_sysctrl_init_sources+0x3c>)
    1232:	6a11      	ldr	r1, [r2, #32]
	tmp = (tmp & SYSCTRL_OSC8M_CALIB_Msk) >> SYSCTRL_OSC8M_CALIB_Pos;
    1234:	0c09      	lsrs	r1, r1, #16
}

static inline hri_sysctrl_osc8m_reg_t hri_sysctrl_read_OSC8M_FRANGE_bf(const void *const hw)
{
	uint32_t tmp;
	tmp = ((Sysctrl *)hw)->OSC8M.reg;
    1236:	6a13      	ldr	r3, [r2, #32]

#if CONF_OSC8M_CONFIG == 1
	calib = hri_sysctrl_read_OSC8M_CALIB_bf(hw);

	hri_sysctrl_write_OSC8M_reg(hw,
	                            SYSCTRL_OSC8M_FRANGE(hri_sysctrl_read_OSC8M_FRANGE_bf(hw)) |
    1238:	0f9b      	lsrs	r3, r3, #30
    123a:	079b      	lsls	r3, r3, #30
#if CONF_OSC8M_OVERWRITE_CALIBRATION == 1
	                                SYSCTRL_OSC8M_CALIB(CONF_OSC8M_CALIB) |
#else
	                                SYSCTRL_OSC8M_CALIB(calib) |
    123c:	0409      	lsls	r1, r1, #16
    123e:	480c      	ldr	r0, [pc, #48]	; (1270 <_sysctrl_init_sources+0x40>)
    1240:	4001      	ands	r1, r0
#endif
	                                SYSCTRL_OSC8M_PRESC(CONF_OSC8M_PRESC)
	                                | (CONF_OSC8M_RUNSTDBY << SYSCTRL_OSC8M_RUNSTDBY_Pos)
    1242:	430b      	orrs	r3, r1
	hri_sysctrl_write_OSC8M_reg(hw,
    1244:	2102      	movs	r1, #2
    1246:	430b      	orrs	r3, r1
}

static inline void hri_sysctrl_write_OSC8M_reg(const void *const hw, hri_sysctrl_osc8m_reg_t data)
{
	SYSCTRL_CRITICAL_SECTION_ENTER();
	((Sysctrl *)hw)->OSC8M.reg = data;
    1248:	6213      	str	r3, [r2, #32]
	((Sysctrl *)hw)->OSC32K.reg |= SYSCTRL_OSC32K_ENABLE;
    124a:	6993      	ldr	r3, [r2, #24]
    124c:	430b      	orrs	r3, r1
    124e:	6193      	str	r3, [r2, #24]
	tmp = ((Sysctrl *)hw)->OSCULP32K.reg;
    1250:	7f13      	ldrb	r3, [r2, #28]
	tmp = (tmp & SYSCTRL_OSCULP32K_CALIB_Msk) >> SYSCTRL_OSCULP32K_CALIB_Pos;
    1252:	311d      	adds	r1, #29
    1254:	400b      	ands	r3, r1
	((Sysctrl *)hw)->OSCULP32K.reg = data;
    1256:	7713      	strb	r3, [r2, #28]
	return (((Sysctrl *)hw)->PCLKSR.reg & SYSCTRL_PCLKSR_OSC8MRDY) >> SYSCTRL_PCLKSR_OSC8MRDY_Pos;
    1258:	4b04      	ldr	r3, [pc, #16]	; (126c <_sysctrl_init_sources+0x3c>)
    125a:	68db      	ldr	r3, [r3, #12]
#endif
#endif

#if CONF_OSC8M_CONFIG == 1
#if CONF_OSC8M_ENABLE == 1
	while (!hri_sysctrl_get_PCLKSR_OSC8MRDY_bit(hw))
    125c:	071b      	lsls	r3, r3, #28
    125e:	d5fb      	bpl.n	1258 <_sysctrl_init_sources+0x28>
	((Sysctrl *)hw)->OSC8M.reg |= SYSCTRL_OSC8M_ONDEMAND;
    1260:	4a02      	ldr	r2, [pc, #8]	; (126c <_sysctrl_init_sources+0x3c>)
    1262:	6a13      	ldr	r3, [r2, #32]
    1264:	2180      	movs	r1, #128	; 0x80
    1266:	430b      	orrs	r3, r1
    1268:	6213      	str	r3, [r2, #32]
	hri_sysctrl_set_OSC8M_ONDEMAND_bit(hw);
#endif
#endif

	(void)calib, (void)hw;
}
    126a:	4770      	bx	lr
    126c:	40000800 	.word	0x40000800
    1270:	0fff0000 	.word	0x0fff0000

00001274 <_sysctrl_init_referenced_generators>:
	((Sysctrl *)hw)->OSC32K.reg &= ~SYSCTRL_OSC32K_ENABLE;
    1274:	4a02      	ldr	r2, [pc, #8]	; (1280 <_sysctrl_init_referenced_generators+0xc>)
    1276:	6993      	ldr	r3, [r2, #24]
    1278:	2102      	movs	r1, #2
    127a:	438b      	bics	r3, r1
    127c:	6193      	str	r3, [r2, #24]
	/* Disable after all possible configurations needs sync written. */
	hri_sysctrl_clear_OSC32K_ENABLE_bit(hw);
#endif

	(void)hw;
}
    127e:	4770      	bx	lr
    1280:	40000800 	.word	0x40000800

00001284 <main>:
void print(char *const pBuffer, size_t u8Length);
uint8_t i2c_read_data(uint8_t addr, uint8_t reg, uint8_t *buf, uint16_t len);
uint8_t i2c_write_data(uint8_t addr, uint8_t reg, uint8_t *buf, uint16_t len);

int main(void)
{
    1284:	b5f0      	push	{r4, r5, r6, r7, lr}
    1286:	b085      	sub	sp, #20
	/* Initializes MCU, drivers and middle-ware */
	atmel_start_init();
    1288:	4b3f      	ldr	r3, [pc, #252]	; (1388 <main+0x104>)
    128a:	4798      	blx	r3
	sht40x_basic_initialize(SHT40_AD1B_VARIANT);
    128c:	2000      	movs	r0, #0
    128e:	4b3f      	ldr	r3, [pc, #252]	; (138c <main+0x108>)
    1290:	4798      	blx	r3
	sht40x_info(&sht40xInfo);
    1292:	4c3f      	ldr	r4, [pc, #252]	; (1390 <main+0x10c>)
    1294:	0020      	movs	r0, r4
    1296:	4b3f      	ldr	r3, [pc, #252]	; (1394 <main+0x110>)
    1298:	4798      	blx	r3
	
	sht40x_interface_debug_print("Chip Name: \t%s\r\n", sht40xInfo.chip_name);
    129a:	0021      	movs	r1, r4
    129c:	483e      	ldr	r0, [pc, #248]	; (1398 <main+0x114>)
    129e:	4d3f      	ldr	r5, [pc, #252]	; (139c <main+0x118>)
    12a0:	47a8      	blx	r5
	sht40x_interface_debug_print("Manufacturer: \t%s\r\n",sht40xInfo.manufacturer_name);
    12a2:	0021      	movs	r1, r4
    12a4:	310a      	adds	r1, #10
    12a6:	483e      	ldr	r0, [pc, #248]	; (13a0 <main+0x11c>)
    12a8:	47a8      	blx	r5
	sht40x_interface_debug_print("Interface Protocol: \t%s\r\n", sht40xInfo.interface);
    12aa:	0021      	movs	r1, r4
    12ac:	3123      	adds	r1, #35	; 0x23
    12ae:	483d      	ldr	r0, [pc, #244]	; (13a4 <main+0x120>)
    12b0:	47a8      	blx	r5
	sht40x_interface_debug_print("Supply Volt Max: \t%.1f V\r\n",sht40xInfo.supply_voltage_max_v);
    12b2:	4e3d      	ldr	r6, [pc, #244]	; (13a8 <main+0x124>)
    12b4:	6ae0      	ldr	r0, [r4, #44]	; 0x2c
    12b6:	47b0      	blx	r6
    12b8:	0002      	movs	r2, r0
    12ba:	000b      	movs	r3, r1
    12bc:	483b      	ldr	r0, [pc, #236]	; (13ac <main+0x128>)
    12be:	47a8      	blx	r5
	sht40x_interface_debug_print("Supply Volt Min: \t%.1f V\r\n",sht40xInfo.supply_voltage_min_v);
    12c0:	6aa0      	ldr	r0, [r4, #40]	; 0x28
    12c2:	47b0      	blx	r6
    12c4:	0002      	movs	r2, r0
    12c6:	000b      	movs	r3, r1
    12c8:	4839      	ldr	r0, [pc, #228]	; (13b0 <main+0x12c>)
    12ca:	47a8      	blx	r5
	sht40x_interface_debug_print("Maximum Current: \t%.1f uA\r\n",sht40xInfo.max_current_ma);
    12cc:	6b20      	ldr	r0, [r4, #48]	; 0x30
    12ce:	47b0      	blx	r6
    12d0:	0002      	movs	r2, r0
    12d2:	000b      	movs	r3, r1
    12d4:	4837      	ldr	r0, [pc, #220]	; (13b4 <main+0x130>)
    12d6:	47a8      	blx	r5
	sht40x_interface_debug_print("Max Temperature: \t%.1f C\r\n",sht40xInfo.temperature_max);
    12d8:	6ba0      	ldr	r0, [r4, #56]	; 0x38
    12da:	47b0      	blx	r6
    12dc:	0002      	movs	r2, r0
    12de:	000b      	movs	r3, r1
    12e0:	4835      	ldr	r0, [pc, #212]	; (13b8 <main+0x134>)
    12e2:	47a8      	blx	r5
	sht40x_interface_debug_print("Diver Version: \t\tV%.1f.%.2d\r\n",(sht40xInfo.driver_version /1000), (uint8_t)(sht40xInfo.driver_version - (uint8_t)(sht40xInfo.driver_version / 100)*100));
    12e4:	6be4      	ldr	r4, [r4, #60]	; 0x3c
    12e6:	4f35      	ldr	r7, [pc, #212]	; (13bc <main+0x138>)
    12e8:	4935      	ldr	r1, [pc, #212]	; (13c0 <main+0x13c>)
    12ea:	1c20      	adds	r0, r4, #0
    12ec:	47b8      	blx	r7
    12ee:	9003      	str	r0, [sp, #12]
    12f0:	4934      	ldr	r1, [pc, #208]	; (13c4 <main+0x140>)
    12f2:	1c20      	adds	r0, r4, #0
    12f4:	47b8      	blx	r7
    12f6:	4f34      	ldr	r7, [pc, #208]	; (13c8 <main+0x144>)
    12f8:	47b8      	blx	r7
    12fa:	b2c3      	uxtb	r3, r0
    12fc:	2064      	movs	r0, #100	; 0x64
    12fe:	4358      	muls	r0, r3
    1300:	4b32      	ldr	r3, [pc, #200]	; (13cc <main+0x148>)
    1302:	4798      	blx	r3
    1304:	1c01      	adds	r1, r0, #0
    1306:	1c20      	adds	r0, r4, #0
    1308:	4b31      	ldr	r3, [pc, #196]	; (13d0 <main+0x14c>)
    130a:	4798      	blx	r3
    130c:	47b8      	blx	r7
    130e:	b2c4      	uxtb	r4, r0
    1310:	9803      	ldr	r0, [sp, #12]
    1312:	47b0      	blx	r6
    1314:	0002      	movs	r2, r0
    1316:	000b      	movs	r3, r1
    1318:	9400      	str	r4, [sp, #0]
    131a:	482e      	ldr	r0, [pc, #184]	; (13d4 <main+0x150>)
    131c:	47a8      	blx	r5
    131e:	e012      	b.n	1346 <main+0xc2>
		sht40x_interface_debug_print("\nTemp C: %.2f\n", dataRead.temperature_C);
		sht40x_interface_debug_print("Temp F: %.2f\n", dataRead.temperature_F);
		sht40x_interface_debug_print("Humidity: %.2f\n", dataRead.humidity);
		
		for(int index = 0; index < RESPONSE_LENGTH; index++){
			sht40x_interface_debug_print("raw data: 0x%.2x\n", dataRead.rawData[index]);
    1320:	4b2d      	ldr	r3, [pc, #180]	; (13d8 <main+0x154>)
    1322:	191b      	adds	r3, r3, r4
    1324:	7b19      	ldrb	r1, [r3, #12]
    1326:	482d      	ldr	r0, [pc, #180]	; (13dc <main+0x158>)
    1328:	4b1c      	ldr	r3, [pc, #112]	; (139c <main+0x118>)
    132a:	4798      	blx	r3
		for(int index = 0; index < RESPONSE_LENGTH; index++){
    132c:	3401      	adds	r4, #1
    132e:	2c05      	cmp	r4, #5
    1330:	ddf6      	ble.n	1320 <main+0x9c>
		}
		
		err = sht40x_basic_get_serial_number( (uint32_t*)&UID );                                                 /**< Read sensor unique ID (Serial number) */
    1332:	4c2b      	ldr	r4, [pc, #172]	; (13e0 <main+0x15c>)
    1334:	0020      	movs	r0, r4
    1336:	4b2b      	ldr	r3, [pc, #172]	; (13e4 <main+0x160>)
    1338:	4798      	blx	r3
    133a:	4b2b      	ldr	r3, [pc, #172]	; (13e8 <main+0x164>)
    133c:	6018      	str	r0, [r3, #0]
		sht40x_interface_debug_print("\nserial number : %lu\n", UID);
    133e:	6821      	ldr	r1, [r4, #0]
    1340:	482a      	ldr	r0, [pc, #168]	; (13ec <main+0x168>)
    1342:	4b16      	ldr	r3, [pc, #88]	; (139c <main+0x118>)
    1344:	4798      	blx	r3
		sht40x_interface_delay_ms(3000);
    1346:	482a      	ldr	r0, [pc, #168]	; (13f0 <main+0x16c>)
    1348:	4b2a      	ldr	r3, [pc, #168]	; (13f4 <main+0x170>)
    134a:	4798      	blx	r3
		err =  sht40x_basic_get_temp_rh(SHT40X_PRECISION_HIGH, &dataRead);                                      /**< Take temperature and humidity measurement */
    134c:	4c22      	ldr	r4, [pc, #136]	; (13d8 <main+0x154>)
    134e:	0021      	movs	r1, r4
    1350:	2000      	movs	r0, #0
    1352:	4b29      	ldr	r3, [pc, #164]	; (13f8 <main+0x174>)
    1354:	4798      	blx	r3
    1356:	4b24      	ldr	r3, [pc, #144]	; (13e8 <main+0x164>)
    1358:	6018      	str	r0, [r3, #0]
		sht40x_interface_debug_print("\nTemp C: %.2f\n", dataRead.temperature_C);
    135a:	4e13      	ldr	r6, [pc, #76]	; (13a8 <main+0x124>)
    135c:	6820      	ldr	r0, [r4, #0]
    135e:	47b0      	blx	r6
    1360:	0002      	movs	r2, r0
    1362:	000b      	movs	r3, r1
    1364:	4825      	ldr	r0, [pc, #148]	; (13fc <main+0x178>)
    1366:	4d0d      	ldr	r5, [pc, #52]	; (139c <main+0x118>)
    1368:	47a8      	blx	r5
		sht40x_interface_debug_print("Temp F: %.2f\n", dataRead.temperature_F);
    136a:	6860      	ldr	r0, [r4, #4]
    136c:	47b0      	blx	r6
    136e:	0002      	movs	r2, r0
    1370:	000b      	movs	r3, r1
    1372:	4823      	ldr	r0, [pc, #140]	; (1400 <main+0x17c>)
    1374:	47a8      	blx	r5
		sht40x_interface_debug_print("Humidity: %.2f\n", dataRead.humidity);
    1376:	68a0      	ldr	r0, [r4, #8]
    1378:	47b0      	blx	r6
    137a:	0002      	movs	r2, r0
    137c:	000b      	movs	r3, r1
    137e:	4821      	ldr	r0, [pc, #132]	; (1404 <main+0x180>)
    1380:	47a8      	blx	r5
		for(int index = 0; index < RESPONSE_LENGTH; index++){
    1382:	2400      	movs	r4, #0
    1384:	e7d3      	b.n	132e <main+0xaa>
    1386:	46c0      	nop			; (mov r8, r8)
    1388:	00000115 	.word	0x00000115
    138c:	00001891 	.word	0x00001891
    1390:	20000ad0 	.word	0x20000ad0
    1394:	00001819 	.word	0x00001819
    1398:	00008bdc 	.word	0x00008bdc
    139c:	000019fd 	.word	0x000019fd
    13a0:	00008bf0 	.word	0x00008bf0
    13a4:	00008c04 	.word	0x00008c04
    13a8:	00004445 	.word	0x00004445
    13ac:	00008c20 	.word	0x00008c20
    13b0:	00008c3c 	.word	0x00008c3c
    13b4:	00008c58 	.word	0x00008c58
    13b8:	00008c74 	.word	0x00008c74
    13bc:	000020fd 	.word	0x000020fd
    13c0:	447a0000 	.word	0x447a0000
    13c4:	42c80000 	.word	0x42c80000
    13c8:	00001c29 	.word	0x00001c29
    13cc:	00002a95 	.word	0x00002a95
    13d0:	0000271d 	.word	0x0000271d
    13d4:	00008c90 	.word	0x00008c90
    13d8:	20000ab0 	.word	0x20000ab0
    13dc:	00008ce0 	.word	0x00008ce0
    13e0:	20000ac4 	.word	0x20000ac4
    13e4:	0000199d 	.word	0x0000199d
    13e8:	20000ac8 	.word	0x20000ac8
    13ec:	00008cf4 	.word	0x00008cf4
    13f0:	00000bb8 	.word	0x00000bb8
    13f4:	000019f1 	.word	0x000019f1
    13f8:	0000196d 	.word	0x0000196d
    13fc:	00008cb0 	.word	0x00008cb0
    1400:	00008cc0 	.word	0x00008cc0
    1404:	00008cd0 	.word	0x00008cd0

00001408 <print>:
	}
}


void print(char *const pBuffer, size_t u8Length)
{
    1408:	b570      	push	{r4, r5, r6, lr}
    140a:	b082      	sub	sp, #8
    140c:	0006      	movs	r6, r0
    140e:	000c      	movs	r4, r1
	struct io_descriptor *io;
	usart_async_get_io_descriptor(&USART_0, &io);
    1410:	4d07      	ldr	r5, [pc, #28]	; (1430 <print+0x28>)
    1412:	a901      	add	r1, sp, #4
    1414:	0028      	movs	r0, r5
    1416:	4b07      	ldr	r3, [pc, #28]	; (1434 <print+0x2c>)
    1418:	4798      	blx	r3
	usart_async_enable(&USART_0);
    141a:	0028      	movs	r0, r5
    141c:	4b06      	ldr	r3, [pc, #24]	; (1438 <print+0x30>)
    141e:	4798      	blx	r3

	io_write(io, (char *)pBuffer, u8Length);
    1420:	b2a2      	uxth	r2, r4
    1422:	0031      	movs	r1, r6
    1424:	9801      	ldr	r0, [sp, #4]
    1426:	4b05      	ldr	r3, [pc, #20]	; (143c <print+0x34>)
    1428:	4798      	blx	r3
	
}
    142a:	b002      	add	sp, #8
    142c:	bd70      	pop	{r4, r5, r6, pc}
    142e:	46c0      	nop			; (mov r8, r8)
    1430:	20000a3c 	.word	0x20000a3c
    1434:	000006f5 	.word	0x000006f5
    1438:	000006c9 	.word	0x000006c9
    143c:	00000451 	.word	0x00000451

00001440 <i2c_read_data>:

uint8_t i2c_read_data(uint8_t addr, uint8_t reg, uint8_t *buf, uint16_t len)
{
    1440:	b5f0      	push	{r4, r5, r6, r7, lr}
    1442:	b083      	sub	sp, #12
    1444:	0005      	movs	r5, r0
    1446:	0016      	movs	r6, r2
    1448:	001f      	movs	r7, r3
	struct io_descriptor *I2C_0_io;

	i2c_m_sync_get_io_descriptor(&I2C_0, &I2C_0_io);
    144a:	4c0b      	ldr	r4, [pc, #44]	; (1478 <i2c_read_data+0x38>)
    144c:	a901      	add	r1, sp, #4
    144e:	0020      	movs	r0, r4
    1450:	4b0a      	ldr	r3, [pc, #40]	; (147c <i2c_read_data+0x3c>)
    1452:	4798      	blx	r3
	i2c_m_sync_enable(&I2C_0);
    1454:	0020      	movs	r0, r4
    1456:	4b0a      	ldr	r3, [pc, #40]	; (1480 <i2c_read_data+0x40>)
    1458:	4798      	blx	r3
	i2c_m_sync_set_slaveaddr(&I2C_0, addr, I2C_M_SEVEN);
    145a:	b229      	sxth	r1, r5
    145c:	2280      	movs	r2, #128	; 0x80
    145e:	0112      	lsls	r2, r2, #4
    1460:	0020      	movs	r0, r4
    1462:	4b08      	ldr	r3, [pc, #32]	; (1484 <i2c_read_data+0x44>)
    1464:	4798      	blx	r3
	
	io_read(I2C_0_io, buf,  len);
    1466:	003a      	movs	r2, r7
    1468:	0031      	movs	r1, r6
    146a:	9801      	ldr	r0, [sp, #4]
    146c:	4b06      	ldr	r3, [pc, #24]	; (1488 <i2c_read_data+0x48>)
    146e:	4798      	blx	r3
	return 0;
}
    1470:	2000      	movs	r0, #0
    1472:	b003      	add	sp, #12
    1474:	bdf0      	pop	{r4, r5, r6, r7, pc}
    1476:	46c0      	nop			; (mov r8, r8)
    1478:	20000a8c 	.word	0x20000a8c
    147c:	00000447 	.word	0x00000447
    1480:	00000429 	.word	0x00000429
    1484:	00000435 	.word	0x00000435
    1488:	00000489 	.word	0x00000489

0000148c <i2c_write_data>:

uint8_t i2c_write_data(uint8_t addr, uint8_t reg, uint8_t *buf, uint16_t len)
{
    148c:	b570      	push	{r4, r5, r6, lr}
    148e:	b084      	sub	sp, #16
    1490:	0005      	movs	r5, r0
    1492:	466b      	mov	r3, sp
    1494:	1dde      	adds	r6, r3, #7
    1496:	71d9      	strb	r1, [r3, #7]
	struct io_descriptor *I2C_0_io;

	i2c_m_sync_get_io_descriptor(&I2C_0, &I2C_0_io);
    1498:	4c0a      	ldr	r4, [pc, #40]	; (14c4 <i2c_write_data+0x38>)
    149a:	a903      	add	r1, sp, #12
    149c:	0020      	movs	r0, r4
    149e:	4b0a      	ldr	r3, [pc, #40]	; (14c8 <i2c_write_data+0x3c>)
    14a0:	4798      	blx	r3
	i2c_m_sync_enable(&I2C_0);
    14a2:	0020      	movs	r0, r4
    14a4:	4b09      	ldr	r3, [pc, #36]	; (14cc <i2c_write_data+0x40>)
    14a6:	4798      	blx	r3
	i2c_m_sync_set_slaveaddr(&I2C_0, addr, I2C_M_SEVEN);
    14a8:	b229      	sxth	r1, r5
    14aa:	2280      	movs	r2, #128	; 0x80
    14ac:	0112      	lsls	r2, r2, #4
    14ae:	0020      	movs	r0, r4
    14b0:	4b07      	ldr	r3, [pc, #28]	; (14d0 <i2c_write_data+0x44>)
    14b2:	4798      	blx	r3
	
	io_write(I2C_0_io, (uint8_t *)&reg, 1);
    14b4:	2201      	movs	r2, #1
    14b6:	0031      	movs	r1, r6
    14b8:	9803      	ldr	r0, [sp, #12]
    14ba:	4b06      	ldr	r3, [pc, #24]	; (14d4 <i2c_write_data+0x48>)
    14bc:	4798      	blx	r3
	return 0;
    14be:	2000      	movs	r0, #0
    14c0:	b004      	add	sp, #16
    14c2:	bd70      	pop	{r4, r5, r6, pc}
    14c4:	20000a8c 	.word	0x20000a8c
    14c8:	00000447 	.word	0x00000447
    14cc:	00000429 	.word	0x00000429
    14d0:	00000435 	.word	0x00000435
    14d4:	00000451 	.word	0x00000451

000014d8 <a_sht40x_i2c_write>:
            - 0 success
            - 1 failed to write
* @note none
*/
uint8_t a_sht40x_i2c_write(sht40x_handle_t *const pHandle, uint8_t u8Reg, void *pBuf, uint8_t u8Length)
{
    14d8:	b510      	push	{r4, lr}
    if(pHandle->i2c_write(pHandle->i2c_address, u8Reg, (uint8_t*)pBuf, u8Length) !=  0)
    14da:	68c4      	ldr	r4, [r0, #12]
    14dc:	b29b      	uxth	r3, r3
    14de:	7e00      	ldrb	r0, [r0, #24]
    14e0:	47a0      	blx	r4
    14e2:	2800      	cmp	r0, #0
    14e4:	d100      	bne.n	14e8 <a_sht40x_i2c_write+0x10>
    {
        return 1;                                      /**< return an error if failed to execute */
    }
    return 0;                                          /**< return success */
}
    14e6:	bd10      	pop	{r4, pc}
        return 1;                                      /**< return an error if failed to execute */
    14e8:	2001      	movs	r0, #1
    14ea:	e7fc      	b.n	14e6 <a_sht40x_i2c_write+0xe>

000014ec <a_sht40x_i2c_read>:
*          - 1 failed to read
* @note none
*/

uint8_t a_sht40x_i2c_read(sht40x_handle_t  *const pHandle, uint16_t u8Reg, void *pBuf, uint8_t u8Length)
{
    14ec:	b510      	push	{r4, lr}
    if(pHandle->i2c_read(pHandle->i2c_address, u8Reg, (uint8_t*)pBuf, u8Length) != 0)
    14ee:	6884      	ldr	r4, [r0, #8]
    14f0:	b29b      	uxth	r3, r3
    14f2:	b2c9      	uxtb	r1, r1
    14f4:	7e00      	ldrb	r0, [r0, #24]
    14f6:	47a0      	blx	r4
    14f8:	2800      	cmp	r0, #0
    14fa:	d100      	bne.n	14fe <a_sht40x_i2c_read+0x12>
    {
        return 1;                                       /**< return an error if failed to execute */
    }
    return 0;                                           /**< return success */
}
    14fc:	bd10      	pop	{r4, pc}
        return 1;                                       /**< return an error if failed to execute */
    14fe:	2001      	movs	r0, #1
    1500:	e7fc      	b.n	14fc <a_sht40x_i2c_read+0x10>
	...

00001504 <a_sht40x_print_error_msg>:
* @param[in] *pBuffer point to the string to be printed
* @return none
* @note   none
*/
void a_sht40x_print_error_msg(sht40x_handle_t *const pHandle, char *const pBuffer)
{
    1504:	b510      	push	{r4, lr}
#ifdef SHT40X_DEBUG_MODE
    pHandle->debug_print("sht40x: failed to %s.\r\n", pBuffer);
    1506:	6943      	ldr	r3, [r0, #20]
    1508:	4801      	ldr	r0, [pc, #4]	; (1510 <a_sht40x_print_error_msg+0xc>)
    150a:	4798      	blx	r3
#endif // SHT40X_DEBUG_MODE
}
    150c:	bd10      	pop	{r4, pc}
    150e:	46c0      	nop			; (mov r8, r8)
    1510:	00008d18 	.word	0x00008d18

00001514 <sht40x_init>:
 *            - 2 pHandle is NULL
 *            - 3 linked functions is NULL
 * @note      none
 */
uint8_t sht40x_init(sht40x_handle_t *pHandle)
{
    1514:	b510      	push	{r4, lr}
    1516:	1e04      	subs	r4, r0, #0

    if(pHandle == NULL)
    1518:	d031      	beq.n	157e <sht40x_init+0x6a>
        return 2;     /**< return failed error */
    if(pHandle->debug_print == NULL)
    151a:	6943      	ldr	r3, [r0, #20]
    151c:	2b00      	cmp	r3, #0
    151e:	d030      	beq.n	1582 <sht40x_init+0x6e>
        return 3;      /**< return failed error */

    if(pHandle->delay_ms == NULL)
    1520:	6902      	ldr	r2, [r0, #16]
    1522:	2a00      	cmp	r2, #0
    1524:	d011      	beq.n	154a <sht40x_init+0x36>
        pHandle->debug_print("sht40x: delay_ms is null\r\n");
#endif // SHT40X_DEBUG_MODE
        return 3;
    }

    if(pHandle->i2c_init == NULL )
    1526:	6802      	ldr	r2, [r0, #0]
    1528:	2a00      	cmp	r2, #0
    152a:	d012      	beq.n	1552 <sht40x_init+0x3e>
        pHandle->debug_print("sht40x: i2c_init is null\r\n");
#endif // SHT40X_DEBUG_MODE
        return 3;
    }

    if(pHandle->i2c_deinit == NULL )
    152c:	6841      	ldr	r1, [r0, #4]
    152e:	2900      	cmp	r1, #0
    1530:	d013      	beq.n	155a <sht40x_init+0x46>
        pHandle->debug_print("sht40x: i2c_deinit is null\r\n");
#endif // SHT40X_DEBUG_MODE
        return 3;
    }

    if(pHandle->i2c_read == NULL )
    1532:	6881      	ldr	r1, [r0, #8]
    1534:	2900      	cmp	r1, #0
    1536:	d014      	beq.n	1562 <sht40x_init+0x4e>
        pHandle->debug_print("sht40x: i2c_read is null\r\n");
#endif // SHT40X_DEBUG_MODE
        return 3;
    }

    if(pHandle->i2c_write == NULL )
    1538:	68c1      	ldr	r1, [r0, #12]
    153a:	2900      	cmp	r1, #0
    153c:	d015      	beq.n	156a <sht40x_init+0x56>
        pHandle->debug_print("sht40x: i2c_write is null\r\n");
#endif // SHT40X_DEBUG_MODE
        return 3;
    }

    if(pHandle->i2c_init())
    153e:	4790      	blx	r2
    1540:	2800      	cmp	r0, #0
    1542:	d116      	bne.n	1572 <sht40x_init+0x5e>
    {
        a_sht40x_print_error_msg(pHandle, "initialize i2c");
        return 1 ;
    }
    pHandle->inited = 1;
    1544:	2301      	movs	r3, #1
    1546:	76a3      	strb	r3, [r4, #26]
    return 0;                   /**< return success */
    1548:	e01a      	b.n	1580 <sht40x_init+0x6c>
        pHandle->debug_print("sht40x: delay_ms is null\r\n");
    154a:	480f      	ldr	r0, [pc, #60]	; (1588 <sht40x_init+0x74>)
    154c:	4798      	blx	r3
        return 3;
    154e:	2003      	movs	r0, #3
    1550:	e016      	b.n	1580 <sht40x_init+0x6c>
        pHandle->debug_print("sht40x: i2c_init is null\r\n");
    1552:	480e      	ldr	r0, [pc, #56]	; (158c <sht40x_init+0x78>)
    1554:	4798      	blx	r3
        return 3;
    1556:	2003      	movs	r0, #3
    1558:	e012      	b.n	1580 <sht40x_init+0x6c>
        pHandle->debug_print("sht40x: i2c_deinit is null\r\n");
    155a:	480d      	ldr	r0, [pc, #52]	; (1590 <sht40x_init+0x7c>)
    155c:	4798      	blx	r3
        return 3;
    155e:	2003      	movs	r0, #3
    1560:	e00e      	b.n	1580 <sht40x_init+0x6c>
        pHandle->debug_print("sht40x: i2c_read is null\r\n");
    1562:	480c      	ldr	r0, [pc, #48]	; (1594 <sht40x_init+0x80>)
    1564:	4798      	blx	r3
        return 3;
    1566:	2003      	movs	r0, #3
    1568:	e00a      	b.n	1580 <sht40x_init+0x6c>
        pHandle->debug_print("sht40x: i2c_write is null\r\n");
    156a:	480b      	ldr	r0, [pc, #44]	; (1598 <sht40x_init+0x84>)
    156c:	4798      	blx	r3
        return 3;
    156e:	2003      	movs	r0, #3
    1570:	e006      	b.n	1580 <sht40x_init+0x6c>
        a_sht40x_print_error_msg(pHandle, "initialize i2c");
    1572:	490a      	ldr	r1, [pc, #40]	; (159c <sht40x_init+0x88>)
    1574:	0020      	movs	r0, r4
    1576:	4b0a      	ldr	r3, [pc, #40]	; (15a0 <sht40x_init+0x8c>)
    1578:	4798      	blx	r3
        return 1 ;
    157a:	2001      	movs	r0, #1
    157c:	e000      	b.n	1580 <sht40x_init+0x6c>
        return 2;     /**< return failed error */
    157e:	2002      	movs	r0, #2
}
    1580:	bd10      	pop	{r4, pc}
        return 3;      /**< return failed error */
    1582:	2003      	movs	r0, #3
    1584:	e7fc      	b.n	1580 <sht40x_init+0x6c>
    1586:	46c0      	nop			; (mov r8, r8)
    1588:	00008d30 	.word	0x00008d30
    158c:	00008d4c 	.word	0x00008d4c
    1590:	00008d68 	.word	0x00008d68
    1594:	00008d88 	.word	0x00008d88
    1598:	00008da4 	.word	0x00008da4
    159c:	00008dc0 	.word	0x00008dc0
    15a0:	00001505 	.word	0x00001505

000015a4 <sht40x_set_addr>:
 * @note      none
 */
uint8_t sht40x_set_addr(sht40x_handle_t *const pHandle)
{

    if(pHandle == NULL)
    15a4:	2800      	cmp	r0, #0
    15a6:	d008      	beq.n	15ba <sht40x_set_addr+0x16>
        return 2;     /**< return failed error */
    if(pHandle->inited != 1)
    15a8:	7e83      	ldrb	r3, [r0, #26]
    15aa:	2b01      	cmp	r3, #1
    15ac:	d001      	beq.n	15b2 <sht40x_set_addr+0xe>
        return 3;      /**< return failed error */
    15ae:	2003      	movs	r0, #3
        a_sht40x_print_error_msg(pHandle, "set i2c address");
        return 1;           /*< failed */
    }

    return 0;     /*< success */
}
    15b0:	4770      	bx	lr
    pHandle->i2c_address = pHandle->addres;
    15b2:	7ec3      	ldrb	r3, [r0, #27]
    15b4:	7603      	strb	r3, [r0, #24]
    return 0;     /*< success */
    15b6:	2000      	movs	r0, #0
    15b8:	e7fa      	b.n	15b0 <sht40x_set_addr+0xc>
        return 2;     /**< return failed error */
    15ba:	2002      	movs	r0, #2
    15bc:	e7f8      	b.n	15b0 <sht40x_set_addr+0xc>

000015be <sht40x_set_variant>:
 * @note      none
 */
uint8_t sht40x_set_variant(sht40x_handle_t *const pHandle, sht40x_variant_t variant)
{

    if(pHandle == NULL)
    15be:	2800      	cmp	r0, #0
    15c0:	d01f      	beq.n	1602 <sht40x_set_variant+0x44>
        return 2;     /**< return failed error */
    if(pHandle->inited != 1)
    15c2:	7e83      	ldrb	r3, [r0, #26]
    15c4:	2b01      	cmp	r3, #1
    15c6:	d001      	beq.n	15cc <sht40x_set_variant+0xe>
        return 3;      /**< return failed error */
    15c8:	2003      	movs	r0, #3
        }

    }

    return 0;   /**< success */
}
    15ca:	4770      	bx	lr
    pHandle->variant = variant;
    15cc:	7641      	strb	r1, [r0, #25]
    switch(variant)
    15ce:	2901      	cmp	r1, #1
    15d0:	d00b      	beq.n	15ea <sht40x_set_variant+0x2c>
    15d2:	2900      	cmp	r1, #0
    15d4:	d005      	beq.n	15e2 <sht40x_set_variant+0x24>
    15d6:	2902      	cmp	r1, #2
    15d8:	d00b      	beq.n	15f2 <sht40x_set_variant+0x34>
    15da:	2903      	cmp	r1, #3
    15dc:	d00d      	beq.n	15fa <sht40x_set_variant+0x3c>
    return 0;   /**< success */
    15de:	2000      	movs	r0, #0
    15e0:	e7f3      	b.n	15ca <sht40x_set_variant+0xc>
            pHandle->addres = (sht40x_i2c_address_t)SHT40_AD1B_IIC_ADDRESS;
    15e2:	2344      	movs	r3, #68	; 0x44
    15e4:	76c3      	strb	r3, [r0, #27]
    return 0;   /**< success */
    15e6:	2000      	movs	r0, #0
            break;
    15e8:	e7ef      	b.n	15ca <sht40x_set_variant+0xc>
            pHandle->addres = (sht40x_i2c_address_t)SHT40_BD1B_IIC_ADDRESS;
    15ea:	2345      	movs	r3, #69	; 0x45
    15ec:	76c3      	strb	r3, [r0, #27]
    return 0;   /**< success */
    15ee:	2000      	movs	r0, #0
            break;
    15f0:	e7eb      	b.n	15ca <sht40x_set_variant+0xc>
            pHandle->addres = (sht40x_i2c_address_t)SHT41_AD1B_IIC_ADDRESS;
    15f2:	2344      	movs	r3, #68	; 0x44
    15f4:	76c3      	strb	r3, [r0, #27]
    return 0;   /**< success */
    15f6:	2000      	movs	r0, #0
            break;
    15f8:	e7e7      	b.n	15ca <sht40x_set_variant+0xc>
            pHandle->addres = (sht40x_i2c_address_t)SHT45_AD1B_IIC_ADDRESS;
    15fa:	2344      	movs	r3, #68	; 0x44
    15fc:	76c3      	strb	r3, [r0, #27]
    return 0;   /**< success */
    15fe:	2000      	movs	r0, #0
            break;
    1600:	e7e3      	b.n	15ca <sht40x_set_variant+0xc>
        return 2;     /**< return failed error */
    1602:	2002      	movs	r0, #2
    1604:	e7e1      	b.n	15ca <sht40x_set_variant+0xc>
	...

00001608 <sht40x_get_temp_rh>:
 *            - 2 pHandle is NULL
 *            - 3 pHandle is not initialized
 * @note      none
 */
uint8_t sht40x_get_temp_rh(sht40x_handle_t *const pHandle,  sht40x_precision_t precision, sht40x_data_t *pData)
{
    1608:	b5f0      	push	{r4, r5, r6, r7, lr}
    160a:	46de      	mov	lr, fp
    160c:	4657      	mov	r7, sl
    160e:	464e      	mov	r6, r9
    1610:	4645      	mov	r5, r8
    1612:	b5e0      	push	{r5, r6, r7, lr}
    1614:	b083      	sub	sp, #12
    1616:	0004      	movs	r4, r0
    1618:	0016      	movs	r6, r2
    uint8_t err;
    uint8_t pStatus[RESPONSE_LENGTH];

    if(pHandle == NULL)
    161a:	2800      	cmp	r0, #0
    161c:	d100      	bne.n	1620 <sht40x_get_temp_rh+0x18>
    161e:	e077      	b.n	1710 <sht40x_get_temp_rh+0x108>
        return 2;     /**< return failed error */
    if(pHandle->inited != 1)
    1620:	7e83      	ldrb	r3, [r0, #26]
    1622:	2b01      	cmp	r3, #1
    1624:	d008      	beq.n	1638 <sht40x_get_temp_rh+0x30>
        return 3;      /**< return failed error */
    1626:	2503      	movs	r5, #3
    pData->humidity =  pData->humidity < HUMIDITY_MIN ? HUMIDITY_MIN:  pData->humidity;                    /**< if humidity is less than min allowed, set to 0 */

    memcpy(pData->rawData, pStatus, RESPONSE_LENGTH);

    return 0;
}
    1628:	0028      	movs	r0, r5
    162a:	b003      	add	sp, #12
    162c:	bc3c      	pop	{r2, r3, r4, r5}
    162e:	4690      	mov	r8, r2
    1630:	4699      	mov	r9, r3
    1632:	46a2      	mov	sl, r4
    1634:	46ab      	mov	fp, r5
    1636:	bdf0      	pop	{r4, r5, r6, r7, pc}
    err = a_sht40x_i2c_write(pHandle, READ_PRECISION[precision], DUMMY_DATA, 0);
    1638:	4b36      	ldr	r3, [pc, #216]	; (1714 <sht40x_get_temp_rh+0x10c>)
    163a:	5c59      	ldrb	r1, [r3, r1]
    163c:	2300      	movs	r3, #0
    163e:	2200      	movs	r2, #0
    1640:	4d35      	ldr	r5, [pc, #212]	; (1718 <sht40x_get_temp_rh+0x110>)
    1642:	47a8      	blx	r5
    1644:	1e05      	subs	r5, r0, #0
    if(err)
    1646:	d157      	bne.n	16f8 <sht40x_get_temp_rh+0xf0>
    pHandle->delay_ms(10);      /**< wait 10 ms for conversion to complete */
    1648:	200a      	movs	r0, #10
    164a:	6923      	ldr	r3, [r4, #16]
    164c:	4798      	blx	r3
    err = a_sht40x_i2c_read(pHandle, DUMMY_DATA, (uint8_t *)pStatus, RESPONSE_LENGTH);  /**< read result */
    164e:	2306      	movs	r3, #6
    1650:	466a      	mov	r2, sp
    1652:	2100      	movs	r1, #0
    1654:	0020      	movs	r0, r4
    1656:	4d31      	ldr	r5, [pc, #196]	; (171c <sht40x_get_temp_rh+0x114>)
    1658:	47a8      	blx	r5
    165a:	1e05      	subs	r5, r0, #0
    if(err)
    165c:	d151      	bne.n	1702 <sht40x_get_temp_rh+0xfa>
    pData->temperature_C = (pStatus[0] << 8) |  pStatus[1];
    165e:	466b      	mov	r3, sp
    1660:	7818      	ldrb	r0, [r3, #0]
    1662:	0200      	lsls	r0, r0, #8
    1664:	785b      	ldrb	r3, [r3, #1]
    1666:	4318      	orrs	r0, r3
    1668:	4b2d      	ldr	r3, [pc, #180]	; (1720 <sht40x_get_temp_rh+0x118>)
    166a:	469b      	mov	fp, r3
    166c:	4798      	blx	r3
    pData->temperature_C = ((pData->temperature_C/65535.0) * 175) - 45;
    166e:	4b2d      	ldr	r3, [pc, #180]	; (1724 <sht40x_get_temp_rh+0x11c>)
    1670:	469a      	mov	sl, r3
    1672:	4798      	blx	r3
    1674:	4b2c      	ldr	r3, [pc, #176]	; (1728 <sht40x_get_temp_rh+0x120>)
    1676:	4699      	mov	r9, r3
    1678:	2200      	movs	r2, #0
    167a:	4b2c      	ldr	r3, [pc, #176]	; (172c <sht40x_get_temp_rh+0x124>)
    167c:	47c8      	blx	r9
    167e:	4b2c      	ldr	r3, [pc, #176]	; (1730 <sht40x_get_temp_rh+0x128>)
    1680:	4698      	mov	r8, r3
    1682:	2200      	movs	r2, #0
    1684:	4b2b      	ldr	r3, [pc, #172]	; (1734 <sht40x_get_temp_rh+0x12c>)
    1686:	47c0      	blx	r8
    1688:	4f2b      	ldr	r7, [pc, #172]	; (1738 <sht40x_get_temp_rh+0x130>)
    168a:	2200      	movs	r2, #0
    168c:	4b2b      	ldr	r3, [pc, #172]	; (173c <sht40x_get_temp_rh+0x134>)
    168e:	47b8      	blx	r7
    1690:	4c2b      	ldr	r4, [pc, #172]	; (1740 <sht40x_get_temp_rh+0x138>)
    1692:	47a0      	blx	r4
    1694:	6030      	str	r0, [r6, #0]
    pData->temperature_F = (pData->temperature_C * 9/5) + 32;
    1696:	492b      	ldr	r1, [pc, #172]	; (1744 <sht40x_get_temp_rh+0x13c>)
    1698:	4b2b      	ldr	r3, [pc, #172]	; (1748 <sht40x_get_temp_rh+0x140>)
    169a:	4798      	blx	r3
    169c:	492b      	ldr	r1, [pc, #172]	; (174c <sht40x_get_temp_rh+0x144>)
    169e:	4b2c      	ldr	r3, [pc, #176]	; (1750 <sht40x_get_temp_rh+0x148>)
    16a0:	4798      	blx	r3
    16a2:	2184      	movs	r1, #132	; 0x84
    16a4:	05c9      	lsls	r1, r1, #23
    16a6:	4b2b      	ldr	r3, [pc, #172]	; (1754 <sht40x_get_temp_rh+0x14c>)
    16a8:	4798      	blx	r3
    16aa:	6070      	str	r0, [r6, #4]
    pData->humidity = (pStatus[3] << 8) | pStatus[4];
    16ac:	466b      	mov	r3, sp
    16ae:	78d8      	ldrb	r0, [r3, #3]
    16b0:	0200      	lsls	r0, r0, #8
    16b2:	791b      	ldrb	r3, [r3, #4]
    16b4:	4318      	orrs	r0, r3
    16b6:	47d8      	blx	fp
    pData->humidity = ((pData->humidity/65535.0) * 125) - 6;
    16b8:	47d0      	blx	sl
    16ba:	2200      	movs	r2, #0
    16bc:	4b1b      	ldr	r3, [pc, #108]	; (172c <sht40x_get_temp_rh+0x124>)
    16be:	47c8      	blx	r9
    16c0:	2200      	movs	r2, #0
    16c2:	4b25      	ldr	r3, [pc, #148]	; (1758 <sht40x_get_temp_rh+0x150>)
    16c4:	47c0      	blx	r8
    16c6:	2200      	movs	r2, #0
    16c8:	4b24      	ldr	r3, [pc, #144]	; (175c <sht40x_get_temp_rh+0x154>)
    16ca:	47b8      	blx	r7
    16cc:	47a0      	blx	r4
    16ce:	1c04      	adds	r4, r0, #0
    pData->humidity =  pData->humidity > HUMIDITY_MAX ? HUMIDITY_MAX: pData->humidity;                     /**< if humidity is high than max allowed, set to 100 */
    16d0:	4923      	ldr	r1, [pc, #140]	; (1760 <sht40x_get_temp_rh+0x158>)
    16d2:	4b24      	ldr	r3, [pc, #144]	; (1764 <sht40x_get_temp_rh+0x15c>)
    16d4:	4798      	blx	r3
    16d6:	2800      	cmp	r0, #0
    16d8:	d000      	beq.n	16dc <sht40x_get_temp_rh+0xd4>
    16da:	4c21      	ldr	r4, [pc, #132]	; (1760 <sht40x_get_temp_rh+0x158>)
    pData->humidity =  pData->humidity < HUMIDITY_MIN ? HUMIDITY_MIN:  pData->humidity;                    /**< if humidity is less than min allowed, set to 0 */
    16dc:	2100      	movs	r1, #0
    16de:	1c20      	adds	r0, r4, #0
    16e0:	4b21      	ldr	r3, [pc, #132]	; (1768 <sht40x_get_temp_rh+0x160>)
    16e2:	4798      	blx	r3
    16e4:	2800      	cmp	r0, #0
    16e6:	d111      	bne.n	170c <sht40x_get_temp_rh+0x104>
    16e8:	60b4      	str	r4, [r6, #8]
    memcpy(pData->rawData, pStatus, RESPONSE_LENGTH);
    16ea:	0030      	movs	r0, r6
    16ec:	300c      	adds	r0, #12
    16ee:	2206      	movs	r2, #6
    16f0:	4669      	mov	r1, sp
    16f2:	4b1e      	ldr	r3, [pc, #120]	; (176c <sht40x_get_temp_rh+0x164>)
    16f4:	4798      	blx	r3
    return 0;
    16f6:	e797      	b.n	1628 <sht40x_get_temp_rh+0x20>
        a_sht40x_print_error_msg(pHandle, "write temp and humidity cmd");
    16f8:	491d      	ldr	r1, [pc, #116]	; (1770 <sht40x_get_temp_rh+0x168>)
    16fa:	0020      	movs	r0, r4
    16fc:	4b1d      	ldr	r3, [pc, #116]	; (1774 <sht40x_get_temp_rh+0x16c>)
    16fe:	4798      	blx	r3
        return err;  /**< failed*/
    1700:	e792      	b.n	1628 <sht40x_get_temp_rh+0x20>
        a_sht40x_print_error_msg(pHandle, "read temp and humidity");
    1702:	491d      	ldr	r1, [pc, #116]	; (1778 <sht40x_get_temp_rh+0x170>)
    1704:	0020      	movs	r0, r4
    1706:	4b1b      	ldr	r3, [pc, #108]	; (1774 <sht40x_get_temp_rh+0x16c>)
    1708:	4798      	blx	r3
        return err;  /**< failed*/
    170a:	e78d      	b.n	1628 <sht40x_get_temp_rh+0x20>
    pData->humidity =  pData->humidity < HUMIDITY_MIN ? HUMIDITY_MIN:  pData->humidity;                    /**< if humidity is less than min allowed, set to 0 */
    170c:	2400      	movs	r4, #0
    170e:	e7eb      	b.n	16e8 <sht40x_get_temp_rh+0xe0>
        return 2;     /**< return failed error */
    1710:	2502      	movs	r5, #2
    1712:	e789      	b.n	1628 <sht40x_get_temp_rh+0x20>
    1714:	00008d0c 	.word	0x00008d0c
    1718:	000014d9 	.word	0x000014d9
    171c:	000014ed 	.word	0x000014ed
    1720:	00002a95 	.word	0x00002a95
    1724:	00004445 	.word	0x00004445
    1728:	00003155 	.word	0x00003155
    172c:	40efffe0 	.word	0x40efffe0
    1730:	000037bd 	.word	0x000037bd
    1734:	4065e000 	.word	0x4065e000
    1738:	00003cbd 	.word	0x00003cbd
    173c:	40468000 	.word	0x40468000
    1740:	000044e9 	.word	0x000044e9
    1744:	41100000 	.word	0x41100000
    1748:	000024dd 	.word	0x000024dd
    174c:	40a00000 	.word	0x40a00000
    1750:	000020fd 	.word	0x000020fd
    1754:	00001dd9 	.word	0x00001dd9
    1758:	405f4000 	.word	0x405f4000
    175c:	40180000 	.word	0x40180000
    1760:	42c80000 	.word	0x42c80000
    1764:	00001bc1 	.word	0x00001bc1
    1768:	00001b99 	.word	0x00001b99
    176c:	00004915 	.word	0x00004915
    1770:	00008e08 	.word	0x00008e08
    1774:	00001505 	.word	0x00001505
    1778:	00008e24 	.word	0x00008e24

0000177c <sht40x_get_serial_number>:
 *            - 2 pHandle is NULL
 *            - 3 pHandle is not initialized
 * @note      none
 */
uint8_t sht40x_get_serial_number(sht40x_handle_t *const pHandle, uint32_t *pSerial_Number)
{
    177c:	b570      	push	{r4, r5, r6, lr}
    177e:	b082      	sub	sp, #8
    1780:	0004      	movs	r4, r0
    1782:	000e      	movs	r6, r1
    uint8_t temp_data[4];         /**< temporary data to hold serial number */
    uint8_t count = 3;
    uint8_t dataOut[4];
    int index;

    if(pHandle == NULL)
    1784:	2800      	cmp	r0, #0
    1786:	d039      	beq.n	17fc <sht40x_get_serial_number+0x80>
        return 2;     /**< return failed error */
    if(pHandle->inited != 1)
    1788:	7e83      	ldrb	r3, [r0, #26]
    178a:	2b01      	cmp	r3, #1
    178c:	d003      	beq.n	1796 <sht40x_get_serial_number+0x1a>
        return 3;      /**< return failed error */
    178e:	2503      	movs	r5, #3
    }
   memcpy(serial.pBuffer, dataOut, 4);
  *pSerial_Number = serial.raw;

    return 0;           /**< success */
}
    1790:	0028      	movs	r0, r5
    1792:	b002      	add	sp, #8
    1794:	bd70      	pop	{r4, r5, r6, pc}
    memset(temp_data, 0, 4);
    1796:	2300      	movs	r3, #0
    1798:	9301      	str	r3, [sp, #4]
     err = a_sht40x_i2c_write(pHandle, SHT40X_READ_SERIAL_NUMBER_CMD, DUMMY_DATA, 0);
    179a:	2200      	movs	r2, #0
    179c:	2189      	movs	r1, #137	; 0x89
    179e:	4d18      	ldr	r5, [pc, #96]	; (1800 <sht40x_get_serial_number+0x84>)
    17a0:	47a8      	blx	r5
    17a2:	1e05      	subs	r5, r0, #0
    if(err)
    17a4:	d112      	bne.n	17cc <sht40x_get_serial_number+0x50>
    pHandle->delay_ms(10);
    17a6:	200a      	movs	r0, #10
    17a8:	6923      	ldr	r3, [r4, #16]
    17aa:	4798      	blx	r3
    err = a_sht40x_i2c_read(pHandle, DUMMY_DATA, (uint8_t *)temp_data, RESPONSE_LENGTH);
    17ac:	2306      	movs	r3, #6
    17ae:	aa01      	add	r2, sp, #4
    17b0:	2100      	movs	r1, #0
    17b2:	0020      	movs	r0, r4
    17b4:	4d13      	ldr	r5, [pc, #76]	; (1804 <sht40x_get_serial_number+0x88>)
    17b6:	47a8      	blx	r5
    17b8:	1e05      	subs	r5, r0, #0
    if(err)
    17ba:	d10c      	bne.n	17d6 <sht40x_get_serial_number+0x5a>
	temp_data[2] = temp_data[3];
    17bc:	ab01      	add	r3, sp, #4
    17be:	78da      	ldrb	r2, [r3, #3]
    17c0:	709a      	strb	r2, [r3, #2]
	temp_data[3] = temp_data[4];
    17c2:	791a      	ldrb	r2, [r3, #4]
    17c4:	70da      	strb	r2, [r3, #3]
  for( index = 0; index < 4; ++index)
    17c6:	2200      	movs	r2, #0
    uint8_t count = 3;
    17c8:	2303      	movs	r3, #3
  for( index = 0; index < 4; ++index)
    17ca:	e010      	b.n	17ee <sht40x_get_serial_number+0x72>
        a_sht40x_print_error_msg(pHandle, "write UID cmd");
    17cc:	490e      	ldr	r1, [pc, #56]	; (1808 <sht40x_get_serial_number+0x8c>)
    17ce:	0020      	movs	r0, r4
    17d0:	4b0e      	ldr	r3, [pc, #56]	; (180c <sht40x_get_serial_number+0x90>)
    17d2:	4798      	blx	r3
        return err;  /**< failed*/
    17d4:	e7dc      	b.n	1790 <sht40x_get_serial_number+0x14>
        a_sht40x_print_error_msg(pHandle, "get UID");
    17d6:	490e      	ldr	r1, [pc, #56]	; (1810 <sht40x_get_serial_number+0x94>)
    17d8:	0020      	movs	r0, r4
    17da:	4b0c      	ldr	r3, [pc, #48]	; (180c <sht40x_get_serial_number+0x90>)
    17dc:	4798      	blx	r3
        return err;  /**< failed*/
    17de:	e7d7      	b.n	1790 <sht40x_get_serial_number+0x14>
        dataOut[count] = temp_data[index];     /**< move data into a temporarily buffer in reverse order*/
    17e0:	a901      	add	r1, sp, #4
    17e2:	5c89      	ldrb	r1, [r1, r2]
    17e4:	4668      	mov	r0, sp
    17e6:	54c1      	strb	r1, [r0, r3]
        count--;
    17e8:	3b01      	subs	r3, #1
    17ea:	b2db      	uxtb	r3, r3
  for( index = 0; index < 4; ++index)
    17ec:	3201      	adds	r2, #1
    17ee:	2a03      	cmp	r2, #3
    17f0:	ddf6      	ble.n	17e0 <sht40x_get_serial_number+0x64>
   memcpy(serial.pBuffer, dataOut, 4);
    17f2:	9b00      	ldr	r3, [sp, #0]
    17f4:	4a07      	ldr	r2, [pc, #28]	; (1814 <sht40x_get_serial_number+0x98>)
    17f6:	6013      	str	r3, [r2, #0]
  *pSerial_Number = serial.raw;
    17f8:	6033      	str	r3, [r6, #0]
    return 0;           /**< success */
    17fa:	e7c9      	b.n	1790 <sht40x_get_serial_number+0x14>
        return 2;     /**< return failed error */
    17fc:	2502      	movs	r5, #2
    17fe:	e7c7      	b.n	1790 <sht40x_get_serial_number+0x14>
    1800:	000014d9 	.word	0x000014d9
    1804:	000014ed 	.word	0x000014ed
    1808:	00008e3c 	.word	0x00008e3c
    180c:	00001505 	.word	0x00001505
    1810:	00008e4c 	.word	0x00008e4c
    1814:	200009e8 	.word	0x200009e8

00001818 <sht40x_info>:
 *             - 0 success
 *             - 2 pHandle is NULL
 * @note       none
 */
uint8_t sht40x_info(sht40x_info_t *const pInfo)
{
    1818:	b570      	push	{r4, r5, r6, lr}
    181a:	1e04      	subs	r4, r0, #0
    if (pInfo == NULL)     /**< check if handle is null */
    181c:	d020      	beq.n	1860 <sht40x_info+0x48>
    {
        return 2;              /**<failed, return error */
    }
    memset(pInfo, 0, sizeof (sht40x_info_t));                        /**< initialize sht40x info structure */
    181e:	2240      	movs	r2, #64	; 0x40
    1820:	2100      	movs	r1, #0
    1822:	4b10      	ldr	r3, [pc, #64]	; (1864 <sht40x_info+0x4c>)
    1824:	4798      	blx	r3
    strncpy(pInfo->chip_name, CHIP_NAME, 10);                        /**< copy chip name */
    1826:	220a      	movs	r2, #10
    1828:	490f      	ldr	r1, [pc, #60]	; (1868 <sht40x_info+0x50>)
    182a:	0020      	movs	r0, r4
    182c:	4d0f      	ldr	r5, [pc, #60]	; (186c <sht40x_info+0x54>)
    182e:	47a8      	blx	r5
    strncpy(pInfo->interface, INTERFACE, 8);                         /**< copy interface name */
    1830:	0020      	movs	r0, r4
    1832:	3023      	adds	r0, #35	; 0x23
    1834:	2208      	movs	r2, #8
    1836:	490e      	ldr	r1, [pc, #56]	; (1870 <sht40x_info+0x58>)
    1838:	47a8      	blx	r5
    strncpy(pInfo->manufacturer_name, MANUFACTURER_NAME, 25);        /**< copy manufacturer name */
    183a:	0020      	movs	r0, r4
    183c:	300a      	adds	r0, #10
    183e:	2219      	movs	r2, #25
    1840:	490c      	ldr	r1, [pc, #48]	; (1874 <sht40x_info+0x5c>)
    1842:	47a8      	blx	r5
    pInfo->supply_voltage_max_v = SUPPLY_VOLTAGE_MAX;                /**< set minimal supply voltage */
    1844:	4b0c      	ldr	r3, [pc, #48]	; (1878 <sht40x_info+0x60>)
    1846:	62e3      	str	r3, [r4, #44]	; 0x2c
    pInfo->supply_voltage_min_v = SUPPLY_VOLTAGE_MIN;                /**< set maximum supply voltage */
    1848:	4b0c      	ldr	r3, [pc, #48]	; (187c <sht40x_info+0x64>)
    184a:	62a3      	str	r3, [r4, #40]	; 0x28
    pInfo->max_current_ma = MAX_CURRENT;                             /**< set maximum current */
    184c:	4b0c      	ldr	r3, [pc, #48]	; (1880 <sht40x_info+0x68>)
    184e:	6323      	str	r3, [r4, #48]	; 0x30
    pInfo->temperature_max = TEMPERATURE_MAX;                        /**< set minimal temperature */
    1850:	4b0c      	ldr	r3, [pc, #48]	; (1884 <sht40x_info+0x6c>)
    1852:	63a3      	str	r3, [r4, #56]	; 0x38
    pInfo->temperature_min = TEMPERATURE_MIN;                        /**< set maximum temperature */
    1854:	4b0c      	ldr	r3, [pc, #48]	; (1888 <sht40x_info+0x70>)
    1856:	6363      	str	r3, [r4, #52]	; 0x34
    pInfo->driver_version = DRIVER_VERSION;                          /**< set driver version */
    1858:	4b0c      	ldr	r3, [pc, #48]	; (188c <sht40x_info+0x74>)
    185a:	63e3      	str	r3, [r4, #60]	; 0x3c

    return 0;                                                        /**< return success */
    185c:	2000      	movs	r0, #0
}
    185e:	bd70      	pop	{r4, r5, r6, pc}
        return 2;              /**<failed, return error */
    1860:	2002      	movs	r0, #2
    1862:	e7fc      	b.n	185e <sht40x_info+0x46>
    1864:	00004999 	.word	0x00004999
    1868:	00008e74 	.word	0x00008e74
    186c:	00004a91 	.word	0x00004a91
    1870:	00008e7c 	.word	0x00008e7c
    1874:	00008e80 	.word	0x00008e80
    1878:	40666666 	.word	0x40666666
    187c:	3fe66666 	.word	0x3fe66666
    1880:	3dcccccd 	.word	0x3dcccccd
    1884:	42fa0000 	.word	0x42fa0000
    1888:	c2200000 	.word	0xc2200000
    188c:	44960000 	.word	0x44960000

00001890 <sht40x_basic_initialize>:
 *          - 1 initialize failed
 * @note    none
 */

uint8_t sht40x_basic_initialize(sht40x_variant_t variant)
{
    1890:	b530      	push	{r4, r5, lr}
    1892:	b083      	sub	sp, #12
    1894:	0005      	movs	r5, r0

    volatile uint8_t err;

    /*link function*/
    DRIVER_SHT40X_LINK_INIT(&sht40x_handler, sht40x_handle_t);                               /**< Link the  */
    1896:	4c26      	ldr	r4, [pc, #152]	; (1930 <sht40x_basic_initialize+0xa0>)
    1898:	221c      	movs	r2, #28
    189a:	2100      	movs	r1, #0
    189c:	0020      	movs	r0, r4
    189e:	4b25      	ldr	r3, [pc, #148]	; (1934 <sht40x_basic_initialize+0xa4>)
    18a0:	4798      	blx	r3
    DRIVER_SHT40X_LINK_I2C_INIT(&sht40x_handler, sht40x_interface_i2c_init);                 /**< Link the i2c initialize function */
    18a2:	4b25      	ldr	r3, [pc, #148]	; (1938 <sht40x_basic_initialize+0xa8>)
    18a4:	6023      	str	r3, [r4, #0]
    DRIVER_SHT40X_LINK_I2C_DEINIT(&sht40x_handler, sht40x_interface_i2c_deinit);             /**< Link the the i2c de-initialize function */
    18a6:	4b25      	ldr	r3, [pc, #148]	; (193c <sht40x_basic_initialize+0xac>)
    18a8:	6063      	str	r3, [r4, #4]
    DRIVER_SHT40X_LINK_I2C_WRITE(&sht40x_handler, sht40x_interface_i2c_write);               /**< Link the i2c  write function */
    18aa:	4b25      	ldr	r3, [pc, #148]	; (1940 <sht40x_basic_initialize+0xb0>)
    18ac:	60e3      	str	r3, [r4, #12]
    DRIVER_SHT40X_LINK_I2C_READ(&sht40x_handler, sht40x_interface_i2c_read);                 /**< Link the i2c read function */
    18ae:	4b25      	ldr	r3, [pc, #148]	; (1944 <sht40x_basic_initialize+0xb4>)
    18b0:	60a3      	str	r3, [r4, #8]
    DRIVER_SHT40X_LINK_DELAY_MS(&sht40x_handler,sht40x_interface_delay_ms);                  /**< Link delay function */
    18b2:	4b25      	ldr	r3, [pc, #148]	; (1948 <sht40x_basic_initialize+0xb8>)
    18b4:	6123      	str	r3, [r4, #16]
    DRIVER_SHT40X_LINK_DEBUG_PRINT(&sht40x_handler, sht40x_interface_debug_print);           /**< Link the the debug print function */
    18b6:	4b25      	ldr	r3, [pc, #148]	; (194c <sht40x_basic_initialize+0xbc>)
    18b8:	6163      	str	r3, [r4, #20]

    /* sht40x initialize */
    err = sht40x_init(&sht40x_handler);
    18ba:	0020      	movs	r0, r4
    18bc:	4b24      	ldr	r3, [pc, #144]	; (1950 <sht40x_basic_initialize+0xc0>)
    18be:	4798      	blx	r3
    18c0:	466b      	mov	r3, sp
    18c2:	71d8      	strb	r0, [r3, #7]
    18c4:	3307      	adds	r3, #7
    if(err)
    18c6:	781b      	ldrb	r3, [r3, #0]
    18c8:	2b00      	cmp	r3, #0
    18ca:	d117      	bne.n	18fc <sht40x_basic_initialize+0x6c>
        a_sht40x_print_error_msg(&sht40x_handler, "initialize");
        return err;       /**< failed */
    }

    /* set device variant */
    err = sht40x_set_variant(&sht40x_handler, variant);
    18cc:	0029      	movs	r1, r5
    18ce:	4818      	ldr	r0, [pc, #96]	; (1930 <sht40x_basic_initialize+0xa0>)
    18d0:	4b20      	ldr	r3, [pc, #128]	; (1954 <sht40x_basic_initialize+0xc4>)
    18d2:	4798      	blx	r3
    18d4:	466b      	mov	r3, sp
    18d6:	71d8      	strb	r0, [r3, #7]
    18d8:	3307      	adds	r3, #7
    if(err)
    18da:	781b      	ldrb	r3, [r3, #0]
    18dc:	2b00      	cmp	r3, #0
    18de:	d116      	bne.n	190e <sht40x_basic_initialize+0x7e>
        a_sht40x_print_error_msg(&sht40x_handler, "set device variant");
        return err;   /**< failed */
    }

    /** set device address */
    err= sht40x_set_addr(&sht40x_handler);
    18e0:	4813      	ldr	r0, [pc, #76]	; (1930 <sht40x_basic_initialize+0xa0>)
    18e2:	4b1d      	ldr	r3, [pc, #116]	; (1958 <sht40x_basic_initialize+0xc8>)
    18e4:	4798      	blx	r3
    18e6:	466b      	mov	r3, sp
    18e8:	71d8      	strb	r0, [r3, #7]
    18ea:	3307      	adds	r3, #7
    if(err)
    18ec:	781b      	ldrb	r3, [r3, #0]
    18ee:	2b00      	cmp	r3, #0
    18f0:	d115      	bne.n	191e <sht40x_basic_initialize+0x8e>
    {
         a_sht40x_print_error_msg(&sht40x_handler, "set device i2c address");
        return err;
    }

    sht40x_interface_delay_ms(10);         /**< wait 10 ms after initialize complete */
    18f2:	200a      	movs	r0, #10
    18f4:	4b14      	ldr	r3, [pc, #80]	; (1948 <sht40x_basic_initialize+0xb8>)
    18f6:	4798      	blx	r3

    return 0;   /**< success */
    18f8:	2000      	movs	r0, #0
    18fa:	e006      	b.n	190a <sht40x_basic_initialize+0x7a>
        a_sht40x_print_error_msg(&sht40x_handler, "initialize");
    18fc:	4917      	ldr	r1, [pc, #92]	; (195c <sht40x_basic_initialize+0xcc>)
    18fe:	480c      	ldr	r0, [pc, #48]	; (1930 <sht40x_basic_initialize+0xa0>)
    1900:	4b17      	ldr	r3, [pc, #92]	; (1960 <sht40x_basic_initialize+0xd0>)
    1902:	4798      	blx	r3
        return err;       /**< failed */
    1904:	466b      	mov	r3, sp
    1906:	79d8      	ldrb	r0, [r3, #7]
    1908:	b2c0      	uxtb	r0, r0
}
    190a:	b003      	add	sp, #12
    190c:	bd30      	pop	{r4, r5, pc}
        a_sht40x_print_error_msg(&sht40x_handler, "set device variant");
    190e:	4915      	ldr	r1, [pc, #84]	; (1964 <sht40x_basic_initialize+0xd4>)
    1910:	4807      	ldr	r0, [pc, #28]	; (1930 <sht40x_basic_initialize+0xa0>)
    1912:	4b13      	ldr	r3, [pc, #76]	; (1960 <sht40x_basic_initialize+0xd0>)
    1914:	4798      	blx	r3
        return err;   /**< failed */
    1916:	466b      	mov	r3, sp
    1918:	79d8      	ldrb	r0, [r3, #7]
    191a:	b2c0      	uxtb	r0, r0
    191c:	e7f5      	b.n	190a <sht40x_basic_initialize+0x7a>
         a_sht40x_print_error_msg(&sht40x_handler, "set device i2c address");
    191e:	4912      	ldr	r1, [pc, #72]	; (1968 <sht40x_basic_initialize+0xd8>)
    1920:	4803      	ldr	r0, [pc, #12]	; (1930 <sht40x_basic_initialize+0xa0>)
    1922:	4b0f      	ldr	r3, [pc, #60]	; (1960 <sht40x_basic_initialize+0xd0>)
    1924:	4798      	blx	r3
        return err;
    1926:	466b      	mov	r3, sp
    1928:	79d8      	ldrb	r0, [r3, #7]
    192a:	b2c0      	uxtb	r0, r0
    192c:	e7ed      	b.n	190a <sht40x_basic_initialize+0x7a>
    192e:	46c0      	nop			; (mov r8, r8)
    1930:	200009ec 	.word	0x200009ec
    1934:	00004999 	.word	0x00004999
    1938:	000019c9 	.word	0x000019c9
    193c:	000019cd 	.word	0x000019cd
    1940:	000019e1 	.word	0x000019e1
    1944:	000019d1 	.word	0x000019d1
    1948:	000019f1 	.word	0x000019f1
    194c:	000019fd 	.word	0x000019fd
    1950:	00001515 	.word	0x00001515
    1954:	000015bf 	.word	0x000015bf
    1958:	000015a5 	.word	0x000015a5
    195c:	00008e8c 	.word	0x00008e8c
    1960:	00001505 	.word	0x00001505
    1964:	00008e98 	.word	0x00008e98
    1968:	00008eac 	.word	0x00008eac

0000196c <sht40x_basic_get_temp_rh>:
 *            - 0 success
 *            - 1 failed to get temp/humidity
 * @note      none
 */
uint8_t sht40x_basic_get_temp_rh(sht40x_precision_t precision, sht40x_data_t *pData)
{
    196c:	b510      	push	{r4, lr}
    196e:	000a      	movs	r2, r1
    if(sht40x_get_temp_rh(&sht40x_handler, precision, pData) != SHT40X_DRV_OK)
    1970:	0001      	movs	r1, r0
    1972:	4806      	ldr	r0, [pc, #24]	; (198c <sht40x_basic_get_temp_rh+0x20>)
    1974:	4b06      	ldr	r3, [pc, #24]	; (1990 <sht40x_basic_get_temp_rh+0x24>)
    1976:	4798      	blx	r3
    1978:	2800      	cmp	r0, #0
    197a:	d100      	bne.n	197e <sht40x_basic_get_temp_rh+0x12>
    {
        a_sht40x_print_error_msg(&sht40x_handler, "read data");
        return 1; /**< failed */
    }
    return 0;   /**< success*/
}
    197c:	bd10      	pop	{r4, pc}
        a_sht40x_print_error_msg(&sht40x_handler, "read data");
    197e:	4905      	ldr	r1, [pc, #20]	; (1994 <sht40x_basic_get_temp_rh+0x28>)
    1980:	4802      	ldr	r0, [pc, #8]	; (198c <sht40x_basic_get_temp_rh+0x20>)
    1982:	4b05      	ldr	r3, [pc, #20]	; (1998 <sht40x_basic_get_temp_rh+0x2c>)
    1984:	4798      	blx	r3
        return 1; /**< failed */
    1986:	2001      	movs	r0, #1
    1988:	e7f8      	b.n	197c <sht40x_basic_get_temp_rh+0x10>
    198a:	46c0      	nop			; (mov r8, r8)
    198c:	200009ec 	.word	0x200009ec
    1990:	00001609 	.word	0x00001609
    1994:	00008ec4 	.word	0x00008ec4
    1998:	00001505 	.word	0x00001505

0000199c <sht40x_basic_get_serial_number>:
 *            - 0 success
 *            - 1 failed to get S/N
 * @note      none
 */
uint8_t sht40x_basic_get_serial_number(uint32_t *pSerial_Number)
{
    199c:	b510      	push	{r4, lr}
    199e:	0001      	movs	r1, r0
  if(sht40x_get_serial_number(&sht40x_handler, (uint32_t *)pSerial_Number) != SHT40X_DRV_OK)
    19a0:	4805      	ldr	r0, [pc, #20]	; (19b8 <sht40x_basic_get_serial_number+0x1c>)
    19a2:	4b06      	ldr	r3, [pc, #24]	; (19bc <sht40x_basic_get_serial_number+0x20>)
    19a4:	4798      	blx	r3
    19a6:	2800      	cmp	r0, #0
    19a8:	d100      	bne.n	19ac <sht40x_basic_get_serial_number+0x10>
  {
     a_sht40x_print_error_msg(&sht40x_handler, "read serial number");
     return 1; /**< failed */
  }
  return 0;     /**< success */
}
    19aa:	bd10      	pop	{r4, pc}
     a_sht40x_print_error_msg(&sht40x_handler, "read serial number");
    19ac:	4904      	ldr	r1, [pc, #16]	; (19c0 <sht40x_basic_get_serial_number+0x24>)
    19ae:	4802      	ldr	r0, [pc, #8]	; (19b8 <sht40x_basic_get_serial_number+0x1c>)
    19b0:	4b04      	ldr	r3, [pc, #16]	; (19c4 <sht40x_basic_get_serial_number+0x28>)
    19b2:	4798      	blx	r3
     return 1; /**< failed */
    19b4:	2001      	movs	r0, #1
    19b6:	e7f8      	b.n	19aa <sht40x_basic_get_serial_number+0xe>
    19b8:	200009ec 	.word	0x200009ec
    19bc:	0000177d 	.word	0x0000177d
    19c0:	00008ee4 	.word	0x00008ee4
    19c4:	00001505 	.word	0x00001505

000019c8 <sht40x_interface_i2c_init>:
    /*call your i2c initialize function here*/
    /*user code begin */
 
    /*user code end*/
    return 0; /**< success */
}
    19c8:	2000      	movs	r0, #0
    19ca:	4770      	bx	lr

000019cc <sht40x_interface_i2c_deinit>:
    /*call your i2c de-initialize function here*/
    /*user code begin */
 
    /*user code end*/
    return 0; /**< success */
}
    19cc:	2000      	movs	r0, #0
    19ce:	4770      	bx	lr

000019d0 <sht40x_interface_i2c_read>:
 *             - 0 success
 *             - 1 read failed
 * @note       none
 */
uint8_t sht40x_interface_i2c_read(uint8_t addr, uint8_t reg, uint8_t *buf, uint16_t len)
{
    19d0:	b510      	push	{r4, lr}
    /*call your i2c read function here*/
    /*user code begin */
	i2c_read_data(addr, reg, buf, len);
    19d2:	4c02      	ldr	r4, [pc, #8]	; (19dc <sht40x_interface_i2c_read+0xc>)
    19d4:	47a0      	blx	r4
    /*user code end*/
    return 0; /**< success */
}
    19d6:	2000      	movs	r0, #0
    19d8:	bd10      	pop	{r4, pc}
    19da:	46c0      	nop			; (mov r8, r8)
    19dc:	00001441 	.word	0x00001441

000019e0 <sht40x_interface_i2c_write>:
 *            - 0 success
 *            - 1 write failed
 * @note      none
 */
uint8_t sht40x_interface_i2c_write(uint8_t addr, uint8_t reg, uint8_t *buf, uint16_t len)
{
    19e0:	b510      	push	{r4, lr}
    /*call your i2c write function here*/
    /*user code begin */
	i2c_write_data(addr, reg, buf, len);
    19e2:	4c02      	ldr	r4, [pc, #8]	; (19ec <sht40x_interface_i2c_write+0xc>)
    19e4:	47a0      	blx	r4
    /*user code end*/
    return 0; /**< success */
}
    19e6:	2000      	movs	r0, #0
    19e8:	bd10      	pop	{r4, pc}
    19ea:	46c0      	nop			; (mov r8, r8)
    19ec:	0000148d 	.word	0x0000148d

000019f0 <sht40x_interface_delay_ms>:
 * @brief     interface delay ms
 * @param[in] u32Ms is the time in milliseconds
 * @note      none
 */
void sht40x_interface_delay_ms(uint32_t u32Ms)
{
    19f0:	b510      	push	{r4, lr}
    /*call your delay function here*/
    /*user code begin */
    delay_ms(u32Ms);
    19f2:	4b01      	ldr	r3, [pc, #4]	; (19f8 <sht40x_interface_delay_ms+0x8>)
    19f4:	4798      	blx	r3
    /*user code end*/
}
    19f6:	bd10      	pop	{r4, pc}
    19f8:	00000361 	.word	0x00000361

000019fc <sht40x_interface_debug_print>:
 * @brief     interface print format data
 * @param[in] fmt is the format data
 * @note      none
 */
void sht40x_interface_debug_print(const char *const fmt, ...)
{
    19fc:	b40f      	push	{r0, r1, r2, r3}
    19fe:	b570      	push	{r4, r5, r6, lr}
    1a00:	b0c2      	sub	sp, #264	; 0x108
    1a02:	ac46      	add	r4, sp, #280	; 0x118
    1a04:	cc40      	ldmia	r4!, {r6}
#ifdef SHT40X_DEBUG_MODE
     volatile char str[256];
     volatile uint8_t len;
     va_list args;

     memset((char *) str, 0, sizeof (char)*256);
    1a06:	2580      	movs	r5, #128	; 0x80
    1a08:	006d      	lsls	r5, r5, #1
    1a0a:	002a      	movs	r2, r5
    1a0c:	2100      	movs	r1, #0
    1a0e:	a802      	add	r0, sp, #8
    1a10:	4b0d      	ldr	r3, [pc, #52]	; (1a48 <sht40x_interface_debug_print+0x4c>)
    1a12:	4798      	blx	r3
     va_start(args, fmt);
    1a14:	9400      	str	r4, [sp, #0]
     vsnprintf((char *) str, 256, (char const *) fmt, args);
    1a16:	0023      	movs	r3, r4
    1a18:	0032      	movs	r2, r6
    1a1a:	0029      	movs	r1, r5
    1a1c:	a802      	add	r0, sp, #8
    1a1e:	4c0b      	ldr	r4, [pc, #44]	; (1a4c <sht40x_interface_debug_print+0x50>)
    1a20:	47a0      	blx	r4
     va_end(args);

     len = strlen((char *) str);
    1a22:	a802      	add	r0, sp, #8
    1a24:	4b0a      	ldr	r3, [pc, #40]	; (1a50 <sht40x_interface_debug_print+0x54>)
    1a26:	4798      	blx	r3
    1a28:	b2c0      	uxtb	r0, r0
    1a2a:	466b      	mov	r3, sp
    1a2c:	71d8      	strb	r0, [r3, #7]
     print((char *const)str, len);
    1a2e:	79d9      	ldrb	r1, [r3, #7]
    1a30:	b2c9      	uxtb	r1, r1
    1a32:	a802      	add	r0, sp, #8
    1a34:	4b07      	ldr	r3, [pc, #28]	; (1a54 <sht40x_interface_debug_print+0x58>)
    1a36:	4798      	blx	r3
     sht40x_interface_delay_ms(10);
    1a38:	200a      	movs	r0, #10
    1a3a:	4b07      	ldr	r3, [pc, #28]	; (1a58 <sht40x_interface_debug_print+0x5c>)
    1a3c:	4798      	blx	r3
#endif
}
    1a3e:	b042      	add	sp, #264	; 0x108
    1a40:	bc70      	pop	{r4, r5, r6}
    1a42:	bc08      	pop	{r3}
    1a44:	b004      	add	sp, #16
    1a46:	4718      	bx	r3
    1a48:	00004999 	.word	0x00004999
    1a4c:	00004b7d 	.word	0x00004b7d
    1a50:	00004a2d 	.word	0x00004a2d
    1a54:	00001409 	.word	0x00001409
    1a58:	000019f1 	.word	0x000019f1

00001a5c <__udivsi3>:
    1a5c:	2200      	movs	r2, #0
    1a5e:	0843      	lsrs	r3, r0, #1
    1a60:	428b      	cmp	r3, r1
    1a62:	d374      	bcc.n	1b4e <__udivsi3+0xf2>
    1a64:	0903      	lsrs	r3, r0, #4
    1a66:	428b      	cmp	r3, r1
    1a68:	d35f      	bcc.n	1b2a <__udivsi3+0xce>
    1a6a:	0a03      	lsrs	r3, r0, #8
    1a6c:	428b      	cmp	r3, r1
    1a6e:	d344      	bcc.n	1afa <__udivsi3+0x9e>
    1a70:	0b03      	lsrs	r3, r0, #12
    1a72:	428b      	cmp	r3, r1
    1a74:	d328      	bcc.n	1ac8 <__udivsi3+0x6c>
    1a76:	0c03      	lsrs	r3, r0, #16
    1a78:	428b      	cmp	r3, r1
    1a7a:	d30d      	bcc.n	1a98 <__udivsi3+0x3c>
    1a7c:	22ff      	movs	r2, #255	; 0xff
    1a7e:	0209      	lsls	r1, r1, #8
    1a80:	ba12      	rev	r2, r2
    1a82:	0c03      	lsrs	r3, r0, #16
    1a84:	428b      	cmp	r3, r1
    1a86:	d302      	bcc.n	1a8e <__udivsi3+0x32>
    1a88:	1212      	asrs	r2, r2, #8
    1a8a:	0209      	lsls	r1, r1, #8
    1a8c:	d065      	beq.n	1b5a <__udivsi3+0xfe>
    1a8e:	0b03      	lsrs	r3, r0, #12
    1a90:	428b      	cmp	r3, r1
    1a92:	d319      	bcc.n	1ac8 <__udivsi3+0x6c>
    1a94:	e000      	b.n	1a98 <__udivsi3+0x3c>
    1a96:	0a09      	lsrs	r1, r1, #8
    1a98:	0bc3      	lsrs	r3, r0, #15
    1a9a:	428b      	cmp	r3, r1
    1a9c:	d301      	bcc.n	1aa2 <__udivsi3+0x46>
    1a9e:	03cb      	lsls	r3, r1, #15
    1aa0:	1ac0      	subs	r0, r0, r3
    1aa2:	4152      	adcs	r2, r2
    1aa4:	0b83      	lsrs	r3, r0, #14
    1aa6:	428b      	cmp	r3, r1
    1aa8:	d301      	bcc.n	1aae <__udivsi3+0x52>
    1aaa:	038b      	lsls	r3, r1, #14
    1aac:	1ac0      	subs	r0, r0, r3
    1aae:	4152      	adcs	r2, r2
    1ab0:	0b43      	lsrs	r3, r0, #13
    1ab2:	428b      	cmp	r3, r1
    1ab4:	d301      	bcc.n	1aba <__udivsi3+0x5e>
    1ab6:	034b      	lsls	r3, r1, #13
    1ab8:	1ac0      	subs	r0, r0, r3
    1aba:	4152      	adcs	r2, r2
    1abc:	0b03      	lsrs	r3, r0, #12
    1abe:	428b      	cmp	r3, r1
    1ac0:	d301      	bcc.n	1ac6 <__udivsi3+0x6a>
    1ac2:	030b      	lsls	r3, r1, #12
    1ac4:	1ac0      	subs	r0, r0, r3
    1ac6:	4152      	adcs	r2, r2
    1ac8:	0ac3      	lsrs	r3, r0, #11
    1aca:	428b      	cmp	r3, r1
    1acc:	d301      	bcc.n	1ad2 <__udivsi3+0x76>
    1ace:	02cb      	lsls	r3, r1, #11
    1ad0:	1ac0      	subs	r0, r0, r3
    1ad2:	4152      	adcs	r2, r2
    1ad4:	0a83      	lsrs	r3, r0, #10
    1ad6:	428b      	cmp	r3, r1
    1ad8:	d301      	bcc.n	1ade <__udivsi3+0x82>
    1ada:	028b      	lsls	r3, r1, #10
    1adc:	1ac0      	subs	r0, r0, r3
    1ade:	4152      	adcs	r2, r2
    1ae0:	0a43      	lsrs	r3, r0, #9
    1ae2:	428b      	cmp	r3, r1
    1ae4:	d301      	bcc.n	1aea <__udivsi3+0x8e>
    1ae6:	024b      	lsls	r3, r1, #9
    1ae8:	1ac0      	subs	r0, r0, r3
    1aea:	4152      	adcs	r2, r2
    1aec:	0a03      	lsrs	r3, r0, #8
    1aee:	428b      	cmp	r3, r1
    1af0:	d301      	bcc.n	1af6 <__udivsi3+0x9a>
    1af2:	020b      	lsls	r3, r1, #8
    1af4:	1ac0      	subs	r0, r0, r3
    1af6:	4152      	adcs	r2, r2
    1af8:	d2cd      	bcs.n	1a96 <__udivsi3+0x3a>
    1afa:	09c3      	lsrs	r3, r0, #7
    1afc:	428b      	cmp	r3, r1
    1afe:	d301      	bcc.n	1b04 <__udivsi3+0xa8>
    1b00:	01cb      	lsls	r3, r1, #7
    1b02:	1ac0      	subs	r0, r0, r3
    1b04:	4152      	adcs	r2, r2
    1b06:	0983      	lsrs	r3, r0, #6
    1b08:	428b      	cmp	r3, r1
    1b0a:	d301      	bcc.n	1b10 <__udivsi3+0xb4>
    1b0c:	018b      	lsls	r3, r1, #6
    1b0e:	1ac0      	subs	r0, r0, r3
    1b10:	4152      	adcs	r2, r2
    1b12:	0943      	lsrs	r3, r0, #5
    1b14:	428b      	cmp	r3, r1
    1b16:	d301      	bcc.n	1b1c <__udivsi3+0xc0>
    1b18:	014b      	lsls	r3, r1, #5
    1b1a:	1ac0      	subs	r0, r0, r3
    1b1c:	4152      	adcs	r2, r2
    1b1e:	0903      	lsrs	r3, r0, #4
    1b20:	428b      	cmp	r3, r1
    1b22:	d301      	bcc.n	1b28 <__udivsi3+0xcc>
    1b24:	010b      	lsls	r3, r1, #4
    1b26:	1ac0      	subs	r0, r0, r3
    1b28:	4152      	adcs	r2, r2
    1b2a:	08c3      	lsrs	r3, r0, #3
    1b2c:	428b      	cmp	r3, r1
    1b2e:	d301      	bcc.n	1b34 <__udivsi3+0xd8>
    1b30:	00cb      	lsls	r3, r1, #3
    1b32:	1ac0      	subs	r0, r0, r3
    1b34:	4152      	adcs	r2, r2
    1b36:	0883      	lsrs	r3, r0, #2
    1b38:	428b      	cmp	r3, r1
    1b3a:	d301      	bcc.n	1b40 <__udivsi3+0xe4>
    1b3c:	008b      	lsls	r3, r1, #2
    1b3e:	1ac0      	subs	r0, r0, r3
    1b40:	4152      	adcs	r2, r2
    1b42:	0843      	lsrs	r3, r0, #1
    1b44:	428b      	cmp	r3, r1
    1b46:	d301      	bcc.n	1b4c <__udivsi3+0xf0>
    1b48:	004b      	lsls	r3, r1, #1
    1b4a:	1ac0      	subs	r0, r0, r3
    1b4c:	4152      	adcs	r2, r2
    1b4e:	1a41      	subs	r1, r0, r1
    1b50:	d200      	bcs.n	1b54 <__udivsi3+0xf8>
    1b52:	4601      	mov	r1, r0
    1b54:	4152      	adcs	r2, r2
    1b56:	4610      	mov	r0, r2
    1b58:	4770      	bx	lr
    1b5a:	e7ff      	b.n	1b5c <__udivsi3+0x100>
    1b5c:	b501      	push	{r0, lr}
    1b5e:	2000      	movs	r0, #0
    1b60:	f000 f806 	bl	1b70 <__aeabi_idiv0>
    1b64:	bd02      	pop	{r1, pc}
    1b66:	46c0      	nop			; (mov r8, r8)

00001b68 <__aeabi_uidivmod>:
    1b68:	2900      	cmp	r1, #0
    1b6a:	d0f7      	beq.n	1b5c <__udivsi3+0x100>
    1b6c:	e776      	b.n	1a5c <__udivsi3>
    1b6e:	4770      	bx	lr

00001b70 <__aeabi_idiv0>:
    1b70:	4770      	bx	lr
    1b72:	46c0      	nop			; (mov r8, r8)

00001b74 <__aeabi_cfrcmple>:
    1b74:	4684      	mov	ip, r0
    1b76:	1c08      	adds	r0, r1, #0
    1b78:	4661      	mov	r1, ip
    1b7a:	e7ff      	b.n	1b7c <__aeabi_cfcmpeq>

00001b7c <__aeabi_cfcmpeq>:
    1b7c:	b51f      	push	{r0, r1, r2, r3, r4, lr}
    1b7e:	f000 fc6b 	bl	2458 <__lesf2>
    1b82:	2800      	cmp	r0, #0
    1b84:	d401      	bmi.n	1b8a <__aeabi_cfcmpeq+0xe>
    1b86:	2100      	movs	r1, #0
    1b88:	42c8      	cmn	r0, r1
    1b8a:	bd1f      	pop	{r0, r1, r2, r3, r4, pc}

00001b8c <__aeabi_fcmpeq>:
    1b8c:	b510      	push	{r4, lr}
    1b8e:	f000 fbfd 	bl	238c <__eqsf2>
    1b92:	4240      	negs	r0, r0
    1b94:	3001      	adds	r0, #1
    1b96:	bd10      	pop	{r4, pc}

00001b98 <__aeabi_fcmplt>:
    1b98:	b510      	push	{r4, lr}
    1b9a:	f000 fc5d 	bl	2458 <__lesf2>
    1b9e:	2800      	cmp	r0, #0
    1ba0:	db01      	blt.n	1ba6 <__aeabi_fcmplt+0xe>
    1ba2:	2000      	movs	r0, #0
    1ba4:	bd10      	pop	{r4, pc}
    1ba6:	2001      	movs	r0, #1
    1ba8:	bd10      	pop	{r4, pc}
    1baa:	46c0      	nop			; (mov r8, r8)

00001bac <__aeabi_fcmple>:
    1bac:	b510      	push	{r4, lr}
    1bae:	f000 fc53 	bl	2458 <__lesf2>
    1bb2:	2800      	cmp	r0, #0
    1bb4:	dd01      	ble.n	1bba <__aeabi_fcmple+0xe>
    1bb6:	2000      	movs	r0, #0
    1bb8:	bd10      	pop	{r4, pc}
    1bba:	2001      	movs	r0, #1
    1bbc:	bd10      	pop	{r4, pc}
    1bbe:	46c0      	nop			; (mov r8, r8)

00001bc0 <__aeabi_fcmpgt>:
    1bc0:	b510      	push	{r4, lr}
    1bc2:	f000 fc09 	bl	23d8 <__gesf2>
    1bc6:	2800      	cmp	r0, #0
    1bc8:	dc01      	bgt.n	1bce <__aeabi_fcmpgt+0xe>
    1bca:	2000      	movs	r0, #0
    1bcc:	bd10      	pop	{r4, pc}
    1bce:	2001      	movs	r0, #1
    1bd0:	bd10      	pop	{r4, pc}
    1bd2:	46c0      	nop			; (mov r8, r8)

00001bd4 <__aeabi_fcmpge>:
    1bd4:	b510      	push	{r4, lr}
    1bd6:	f000 fbff 	bl	23d8 <__gesf2>
    1bda:	2800      	cmp	r0, #0
    1bdc:	da01      	bge.n	1be2 <__aeabi_fcmpge+0xe>
    1bde:	2000      	movs	r0, #0
    1be0:	bd10      	pop	{r4, pc}
    1be2:	2001      	movs	r0, #1
    1be4:	bd10      	pop	{r4, pc}
    1be6:	46c0      	nop			; (mov r8, r8)

00001be8 <__aeabi_uldivmod>:
    1be8:	2b00      	cmp	r3, #0
    1bea:	d111      	bne.n	1c10 <__aeabi_uldivmod+0x28>
    1bec:	2a00      	cmp	r2, #0
    1bee:	d10f      	bne.n	1c10 <__aeabi_uldivmod+0x28>
    1bf0:	2900      	cmp	r1, #0
    1bf2:	d100      	bne.n	1bf6 <__aeabi_uldivmod+0xe>
    1bf4:	2800      	cmp	r0, #0
    1bf6:	d002      	beq.n	1bfe <__aeabi_uldivmod+0x16>
    1bf8:	2100      	movs	r1, #0
    1bfa:	43c9      	mvns	r1, r1
    1bfc:	1c08      	adds	r0, r1, #0
    1bfe:	b407      	push	{r0, r1, r2}
    1c00:	4802      	ldr	r0, [pc, #8]	; (1c0c <__aeabi_uldivmod+0x24>)
    1c02:	a102      	add	r1, pc, #8	; (adr r1, 1c0c <__aeabi_uldivmod+0x24>)
    1c04:	1840      	adds	r0, r0, r1
    1c06:	9002      	str	r0, [sp, #8]
    1c08:	bd03      	pop	{r0, r1, pc}
    1c0a:	46c0      	nop			; (mov r8, r8)
    1c0c:	ffffff65 	.word	0xffffff65
    1c10:	b403      	push	{r0, r1}
    1c12:	4668      	mov	r0, sp
    1c14:	b501      	push	{r0, lr}
    1c16:	9802      	ldr	r0, [sp, #8]
    1c18:	f000 f81e 	bl	1c58 <__udivmoddi4>
    1c1c:	9b01      	ldr	r3, [sp, #4]
    1c1e:	469e      	mov	lr, r3
    1c20:	b002      	add	sp, #8
    1c22:	bc0c      	pop	{r2, r3}
    1c24:	4770      	bx	lr
    1c26:	46c0      	nop			; (mov r8, r8)

00001c28 <__aeabi_f2uiz>:
    1c28:	219e      	movs	r1, #158	; 0x9e
    1c2a:	b510      	push	{r4, lr}
    1c2c:	05c9      	lsls	r1, r1, #23
    1c2e:	1c04      	adds	r4, r0, #0
    1c30:	f7ff ffd0 	bl	1bd4 <__aeabi_fcmpge>
    1c34:	2800      	cmp	r0, #0
    1c36:	d103      	bne.n	1c40 <__aeabi_f2uiz+0x18>
    1c38:	1c20      	adds	r0, r4, #0
    1c3a:	f000 ff0b 	bl	2a54 <__aeabi_f2iz>
    1c3e:	bd10      	pop	{r4, pc}
    1c40:	219e      	movs	r1, #158	; 0x9e
    1c42:	1c20      	adds	r0, r4, #0
    1c44:	05c9      	lsls	r1, r1, #23
    1c46:	f000 fd69 	bl	271c <__aeabi_fsub>
    1c4a:	f000 ff03 	bl	2a54 <__aeabi_f2iz>
    1c4e:	2380      	movs	r3, #128	; 0x80
    1c50:	061b      	lsls	r3, r3, #24
    1c52:	469c      	mov	ip, r3
    1c54:	4460      	add	r0, ip
    1c56:	e7f2      	b.n	1c3e <__aeabi_f2uiz+0x16>

00001c58 <__udivmoddi4>:
    1c58:	b5f0      	push	{r4, r5, r6, r7, lr}
    1c5a:	4657      	mov	r7, sl
    1c5c:	464e      	mov	r6, r9
    1c5e:	4645      	mov	r5, r8
    1c60:	46de      	mov	lr, fp
    1c62:	b5e0      	push	{r5, r6, r7, lr}
    1c64:	0004      	movs	r4, r0
    1c66:	b083      	sub	sp, #12
    1c68:	000d      	movs	r5, r1
    1c6a:	4692      	mov	sl, r2
    1c6c:	4699      	mov	r9, r3
    1c6e:	428b      	cmp	r3, r1
    1c70:	d82f      	bhi.n	1cd2 <__udivmoddi4+0x7a>
    1c72:	d02c      	beq.n	1cce <__udivmoddi4+0x76>
    1c74:	4649      	mov	r1, r9
    1c76:	4650      	mov	r0, sl
    1c78:	f002 fd1c 	bl	46b4 <__clzdi2>
    1c7c:	0029      	movs	r1, r5
    1c7e:	0006      	movs	r6, r0
    1c80:	0020      	movs	r0, r4
    1c82:	f002 fd17 	bl	46b4 <__clzdi2>
    1c86:	1a33      	subs	r3, r6, r0
    1c88:	4698      	mov	r8, r3
    1c8a:	3b20      	subs	r3, #32
    1c8c:	469b      	mov	fp, r3
    1c8e:	d500      	bpl.n	1c92 <__udivmoddi4+0x3a>
    1c90:	e074      	b.n	1d7c <__udivmoddi4+0x124>
    1c92:	4653      	mov	r3, sl
    1c94:	465a      	mov	r2, fp
    1c96:	4093      	lsls	r3, r2
    1c98:	001f      	movs	r7, r3
    1c9a:	4653      	mov	r3, sl
    1c9c:	4642      	mov	r2, r8
    1c9e:	4093      	lsls	r3, r2
    1ca0:	001e      	movs	r6, r3
    1ca2:	42af      	cmp	r7, r5
    1ca4:	d829      	bhi.n	1cfa <__udivmoddi4+0xa2>
    1ca6:	d026      	beq.n	1cf6 <__udivmoddi4+0x9e>
    1ca8:	465b      	mov	r3, fp
    1caa:	1ba4      	subs	r4, r4, r6
    1cac:	41bd      	sbcs	r5, r7
    1cae:	2b00      	cmp	r3, #0
    1cb0:	da00      	bge.n	1cb4 <__udivmoddi4+0x5c>
    1cb2:	e079      	b.n	1da8 <__udivmoddi4+0x150>
    1cb4:	2200      	movs	r2, #0
    1cb6:	2300      	movs	r3, #0
    1cb8:	9200      	str	r2, [sp, #0]
    1cba:	9301      	str	r3, [sp, #4]
    1cbc:	2301      	movs	r3, #1
    1cbe:	465a      	mov	r2, fp
    1cc0:	4093      	lsls	r3, r2
    1cc2:	9301      	str	r3, [sp, #4]
    1cc4:	2301      	movs	r3, #1
    1cc6:	4642      	mov	r2, r8
    1cc8:	4093      	lsls	r3, r2
    1cca:	9300      	str	r3, [sp, #0]
    1ccc:	e019      	b.n	1d02 <__udivmoddi4+0xaa>
    1cce:	4282      	cmp	r2, r0
    1cd0:	d9d0      	bls.n	1c74 <__udivmoddi4+0x1c>
    1cd2:	2200      	movs	r2, #0
    1cd4:	2300      	movs	r3, #0
    1cd6:	9200      	str	r2, [sp, #0]
    1cd8:	9301      	str	r3, [sp, #4]
    1cda:	9b0c      	ldr	r3, [sp, #48]	; 0x30
    1cdc:	2b00      	cmp	r3, #0
    1cde:	d001      	beq.n	1ce4 <__udivmoddi4+0x8c>
    1ce0:	601c      	str	r4, [r3, #0]
    1ce2:	605d      	str	r5, [r3, #4]
    1ce4:	9800      	ldr	r0, [sp, #0]
    1ce6:	9901      	ldr	r1, [sp, #4]
    1ce8:	b003      	add	sp, #12
    1cea:	bc3c      	pop	{r2, r3, r4, r5}
    1cec:	4690      	mov	r8, r2
    1cee:	4699      	mov	r9, r3
    1cf0:	46a2      	mov	sl, r4
    1cf2:	46ab      	mov	fp, r5
    1cf4:	bdf0      	pop	{r4, r5, r6, r7, pc}
    1cf6:	42a3      	cmp	r3, r4
    1cf8:	d9d6      	bls.n	1ca8 <__udivmoddi4+0x50>
    1cfa:	2200      	movs	r2, #0
    1cfc:	2300      	movs	r3, #0
    1cfe:	9200      	str	r2, [sp, #0]
    1d00:	9301      	str	r3, [sp, #4]
    1d02:	4643      	mov	r3, r8
    1d04:	2b00      	cmp	r3, #0
    1d06:	d0e8      	beq.n	1cda <__udivmoddi4+0x82>
    1d08:	07fb      	lsls	r3, r7, #31
    1d0a:	0872      	lsrs	r2, r6, #1
    1d0c:	431a      	orrs	r2, r3
    1d0e:	4646      	mov	r6, r8
    1d10:	087b      	lsrs	r3, r7, #1
    1d12:	e00e      	b.n	1d32 <__udivmoddi4+0xda>
    1d14:	42ab      	cmp	r3, r5
    1d16:	d101      	bne.n	1d1c <__udivmoddi4+0xc4>
    1d18:	42a2      	cmp	r2, r4
    1d1a:	d80c      	bhi.n	1d36 <__udivmoddi4+0xde>
    1d1c:	1aa4      	subs	r4, r4, r2
    1d1e:	419d      	sbcs	r5, r3
    1d20:	2001      	movs	r0, #1
    1d22:	1924      	adds	r4, r4, r4
    1d24:	416d      	adcs	r5, r5
    1d26:	2100      	movs	r1, #0
    1d28:	3e01      	subs	r6, #1
    1d2a:	1824      	adds	r4, r4, r0
    1d2c:	414d      	adcs	r5, r1
    1d2e:	2e00      	cmp	r6, #0
    1d30:	d006      	beq.n	1d40 <__udivmoddi4+0xe8>
    1d32:	42ab      	cmp	r3, r5
    1d34:	d9ee      	bls.n	1d14 <__udivmoddi4+0xbc>
    1d36:	3e01      	subs	r6, #1
    1d38:	1924      	adds	r4, r4, r4
    1d3a:	416d      	adcs	r5, r5
    1d3c:	2e00      	cmp	r6, #0
    1d3e:	d1f8      	bne.n	1d32 <__udivmoddi4+0xda>
    1d40:	465b      	mov	r3, fp
    1d42:	9800      	ldr	r0, [sp, #0]
    1d44:	9901      	ldr	r1, [sp, #4]
    1d46:	1900      	adds	r0, r0, r4
    1d48:	4169      	adcs	r1, r5
    1d4a:	2b00      	cmp	r3, #0
    1d4c:	db22      	blt.n	1d94 <__udivmoddi4+0x13c>
    1d4e:	002b      	movs	r3, r5
    1d50:	465a      	mov	r2, fp
    1d52:	40d3      	lsrs	r3, r2
    1d54:	002a      	movs	r2, r5
    1d56:	4644      	mov	r4, r8
    1d58:	40e2      	lsrs	r2, r4
    1d5a:	001c      	movs	r4, r3
    1d5c:	465b      	mov	r3, fp
    1d5e:	0015      	movs	r5, r2
    1d60:	2b00      	cmp	r3, #0
    1d62:	db2c      	blt.n	1dbe <__udivmoddi4+0x166>
    1d64:	0026      	movs	r6, r4
    1d66:	409e      	lsls	r6, r3
    1d68:	0033      	movs	r3, r6
    1d6a:	0026      	movs	r6, r4
    1d6c:	4647      	mov	r7, r8
    1d6e:	40be      	lsls	r6, r7
    1d70:	0032      	movs	r2, r6
    1d72:	1a80      	subs	r0, r0, r2
    1d74:	4199      	sbcs	r1, r3
    1d76:	9000      	str	r0, [sp, #0]
    1d78:	9101      	str	r1, [sp, #4]
    1d7a:	e7ae      	b.n	1cda <__udivmoddi4+0x82>
    1d7c:	4642      	mov	r2, r8
    1d7e:	2320      	movs	r3, #32
    1d80:	1a9b      	subs	r3, r3, r2
    1d82:	4652      	mov	r2, sl
    1d84:	40da      	lsrs	r2, r3
    1d86:	4641      	mov	r1, r8
    1d88:	0013      	movs	r3, r2
    1d8a:	464a      	mov	r2, r9
    1d8c:	408a      	lsls	r2, r1
    1d8e:	0017      	movs	r7, r2
    1d90:	431f      	orrs	r7, r3
    1d92:	e782      	b.n	1c9a <__udivmoddi4+0x42>
    1d94:	4642      	mov	r2, r8
    1d96:	2320      	movs	r3, #32
    1d98:	1a9b      	subs	r3, r3, r2
    1d9a:	002a      	movs	r2, r5
    1d9c:	4646      	mov	r6, r8
    1d9e:	409a      	lsls	r2, r3
    1da0:	0023      	movs	r3, r4
    1da2:	40f3      	lsrs	r3, r6
    1da4:	4313      	orrs	r3, r2
    1da6:	e7d5      	b.n	1d54 <__udivmoddi4+0xfc>
    1da8:	4642      	mov	r2, r8
    1daa:	2320      	movs	r3, #32
    1dac:	2100      	movs	r1, #0
    1dae:	1a9b      	subs	r3, r3, r2
    1db0:	2200      	movs	r2, #0
    1db2:	9100      	str	r1, [sp, #0]
    1db4:	9201      	str	r2, [sp, #4]
    1db6:	2201      	movs	r2, #1
    1db8:	40da      	lsrs	r2, r3
    1dba:	9201      	str	r2, [sp, #4]
    1dbc:	e782      	b.n	1cc4 <__udivmoddi4+0x6c>
    1dbe:	4642      	mov	r2, r8
    1dc0:	2320      	movs	r3, #32
    1dc2:	0026      	movs	r6, r4
    1dc4:	1a9b      	subs	r3, r3, r2
    1dc6:	40de      	lsrs	r6, r3
    1dc8:	002f      	movs	r7, r5
    1dca:	46b4      	mov	ip, r6
    1dcc:	4097      	lsls	r7, r2
    1dce:	4666      	mov	r6, ip
    1dd0:	003b      	movs	r3, r7
    1dd2:	4333      	orrs	r3, r6
    1dd4:	e7c9      	b.n	1d6a <__udivmoddi4+0x112>
    1dd6:	46c0      	nop			; (mov r8, r8)

00001dd8 <__aeabi_fadd>:
    1dd8:	b5f0      	push	{r4, r5, r6, r7, lr}
    1dda:	46c6      	mov	lr, r8
    1ddc:	024e      	lsls	r6, r1, #9
    1dde:	0247      	lsls	r7, r0, #9
    1de0:	0a76      	lsrs	r6, r6, #9
    1de2:	0a7b      	lsrs	r3, r7, #9
    1de4:	0044      	lsls	r4, r0, #1
    1de6:	0fc5      	lsrs	r5, r0, #31
    1de8:	00f7      	lsls	r7, r6, #3
    1dea:	0048      	lsls	r0, r1, #1
    1dec:	4698      	mov	r8, r3
    1dee:	b500      	push	{lr}
    1df0:	0e24      	lsrs	r4, r4, #24
    1df2:	002a      	movs	r2, r5
    1df4:	00db      	lsls	r3, r3, #3
    1df6:	0e00      	lsrs	r0, r0, #24
    1df8:	0fc9      	lsrs	r1, r1, #31
    1dfa:	46bc      	mov	ip, r7
    1dfc:	428d      	cmp	r5, r1
    1dfe:	d067      	beq.n	1ed0 <__aeabi_fadd+0xf8>
    1e00:	1a22      	subs	r2, r4, r0
    1e02:	2a00      	cmp	r2, #0
    1e04:	dc00      	bgt.n	1e08 <__aeabi_fadd+0x30>
    1e06:	e0a5      	b.n	1f54 <__aeabi_fadd+0x17c>
    1e08:	2800      	cmp	r0, #0
    1e0a:	d13a      	bne.n	1e82 <__aeabi_fadd+0xaa>
    1e0c:	2f00      	cmp	r7, #0
    1e0e:	d100      	bne.n	1e12 <__aeabi_fadd+0x3a>
    1e10:	e093      	b.n	1f3a <__aeabi_fadd+0x162>
    1e12:	1e51      	subs	r1, r2, #1
    1e14:	2900      	cmp	r1, #0
    1e16:	d000      	beq.n	1e1a <__aeabi_fadd+0x42>
    1e18:	e0bc      	b.n	1f94 <__aeabi_fadd+0x1bc>
    1e1a:	2401      	movs	r4, #1
    1e1c:	1bdb      	subs	r3, r3, r7
    1e1e:	015a      	lsls	r2, r3, #5
    1e20:	d546      	bpl.n	1eb0 <__aeabi_fadd+0xd8>
    1e22:	019b      	lsls	r3, r3, #6
    1e24:	099e      	lsrs	r6, r3, #6
    1e26:	0030      	movs	r0, r6
    1e28:	f002 fc26 	bl	4678 <__clzsi2>
    1e2c:	3805      	subs	r0, #5
    1e2e:	4086      	lsls	r6, r0
    1e30:	4284      	cmp	r4, r0
    1e32:	dd00      	ble.n	1e36 <__aeabi_fadd+0x5e>
    1e34:	e09d      	b.n	1f72 <__aeabi_fadd+0x19a>
    1e36:	1b04      	subs	r4, r0, r4
    1e38:	0032      	movs	r2, r6
    1e3a:	2020      	movs	r0, #32
    1e3c:	3401      	adds	r4, #1
    1e3e:	40e2      	lsrs	r2, r4
    1e40:	1b04      	subs	r4, r0, r4
    1e42:	40a6      	lsls	r6, r4
    1e44:	0033      	movs	r3, r6
    1e46:	1e5e      	subs	r6, r3, #1
    1e48:	41b3      	sbcs	r3, r6
    1e4a:	2400      	movs	r4, #0
    1e4c:	4313      	orrs	r3, r2
    1e4e:	075a      	lsls	r2, r3, #29
    1e50:	d004      	beq.n	1e5c <__aeabi_fadd+0x84>
    1e52:	220f      	movs	r2, #15
    1e54:	401a      	ands	r2, r3
    1e56:	2a04      	cmp	r2, #4
    1e58:	d000      	beq.n	1e5c <__aeabi_fadd+0x84>
    1e5a:	3304      	adds	r3, #4
    1e5c:	015a      	lsls	r2, r3, #5
    1e5e:	d529      	bpl.n	1eb4 <__aeabi_fadd+0xdc>
    1e60:	3401      	adds	r4, #1
    1e62:	2cff      	cmp	r4, #255	; 0xff
    1e64:	d100      	bne.n	1e68 <__aeabi_fadd+0x90>
    1e66:	e081      	b.n	1f6c <__aeabi_fadd+0x194>
    1e68:	002a      	movs	r2, r5
    1e6a:	019b      	lsls	r3, r3, #6
    1e6c:	0a5b      	lsrs	r3, r3, #9
    1e6e:	b2e4      	uxtb	r4, r4
    1e70:	025b      	lsls	r3, r3, #9
    1e72:	05e4      	lsls	r4, r4, #23
    1e74:	0a58      	lsrs	r0, r3, #9
    1e76:	07d2      	lsls	r2, r2, #31
    1e78:	4320      	orrs	r0, r4
    1e7a:	4310      	orrs	r0, r2
    1e7c:	bc04      	pop	{r2}
    1e7e:	4690      	mov	r8, r2
    1e80:	bdf0      	pop	{r4, r5, r6, r7, pc}
    1e82:	2cff      	cmp	r4, #255	; 0xff
    1e84:	d0e3      	beq.n	1e4e <__aeabi_fadd+0x76>
    1e86:	2180      	movs	r1, #128	; 0x80
    1e88:	0038      	movs	r0, r7
    1e8a:	04c9      	lsls	r1, r1, #19
    1e8c:	4308      	orrs	r0, r1
    1e8e:	4684      	mov	ip, r0
    1e90:	2a1b      	cmp	r2, #27
    1e92:	dd00      	ble.n	1e96 <__aeabi_fadd+0xbe>
    1e94:	e082      	b.n	1f9c <__aeabi_fadd+0x1c4>
    1e96:	2020      	movs	r0, #32
    1e98:	4661      	mov	r1, ip
    1e9a:	40d1      	lsrs	r1, r2
    1e9c:	1a82      	subs	r2, r0, r2
    1e9e:	4660      	mov	r0, ip
    1ea0:	4090      	lsls	r0, r2
    1ea2:	0002      	movs	r2, r0
    1ea4:	1e50      	subs	r0, r2, #1
    1ea6:	4182      	sbcs	r2, r0
    1ea8:	430a      	orrs	r2, r1
    1eaa:	1a9b      	subs	r3, r3, r2
    1eac:	015a      	lsls	r2, r3, #5
    1eae:	d4b8      	bmi.n	1e22 <__aeabi_fadd+0x4a>
    1eb0:	075a      	lsls	r2, r3, #29
    1eb2:	d1ce      	bne.n	1e52 <__aeabi_fadd+0x7a>
    1eb4:	08de      	lsrs	r6, r3, #3
    1eb6:	002a      	movs	r2, r5
    1eb8:	2cff      	cmp	r4, #255	; 0xff
    1eba:	d13a      	bne.n	1f32 <__aeabi_fadd+0x15a>
    1ebc:	2e00      	cmp	r6, #0
    1ebe:	d100      	bne.n	1ec2 <__aeabi_fadd+0xea>
    1ec0:	e0ae      	b.n	2020 <STACK_SIZE+0x20>
    1ec2:	2380      	movs	r3, #128	; 0x80
    1ec4:	03db      	lsls	r3, r3, #15
    1ec6:	4333      	orrs	r3, r6
    1ec8:	025b      	lsls	r3, r3, #9
    1eca:	0a5b      	lsrs	r3, r3, #9
    1ecc:	24ff      	movs	r4, #255	; 0xff
    1ece:	e7cf      	b.n	1e70 <__aeabi_fadd+0x98>
    1ed0:	1a21      	subs	r1, r4, r0
    1ed2:	2900      	cmp	r1, #0
    1ed4:	dd52      	ble.n	1f7c <__aeabi_fadd+0x1a4>
    1ed6:	2800      	cmp	r0, #0
    1ed8:	d031      	beq.n	1f3e <__aeabi_fadd+0x166>
    1eda:	2cff      	cmp	r4, #255	; 0xff
    1edc:	d0b7      	beq.n	1e4e <__aeabi_fadd+0x76>
    1ede:	2080      	movs	r0, #128	; 0x80
    1ee0:	003e      	movs	r6, r7
    1ee2:	04c0      	lsls	r0, r0, #19
    1ee4:	4306      	orrs	r6, r0
    1ee6:	46b4      	mov	ip, r6
    1ee8:	291b      	cmp	r1, #27
    1eea:	dd00      	ble.n	1eee <__aeabi_fadd+0x116>
    1eec:	e0aa      	b.n	2044 <STACK_SIZE+0x44>
    1eee:	2620      	movs	r6, #32
    1ef0:	4660      	mov	r0, ip
    1ef2:	40c8      	lsrs	r0, r1
    1ef4:	1a71      	subs	r1, r6, r1
    1ef6:	4666      	mov	r6, ip
    1ef8:	408e      	lsls	r6, r1
    1efa:	0031      	movs	r1, r6
    1efc:	1e4e      	subs	r6, r1, #1
    1efe:	41b1      	sbcs	r1, r6
    1f00:	4301      	orrs	r1, r0
    1f02:	185b      	adds	r3, r3, r1
    1f04:	0159      	lsls	r1, r3, #5
    1f06:	d5d3      	bpl.n	1eb0 <__aeabi_fadd+0xd8>
    1f08:	3401      	adds	r4, #1
    1f0a:	2cff      	cmp	r4, #255	; 0xff
    1f0c:	d100      	bne.n	1f10 <__aeabi_fadd+0x138>
    1f0e:	e087      	b.n	2020 <STACK_SIZE+0x20>
    1f10:	2201      	movs	r2, #1
    1f12:	4978      	ldr	r1, [pc, #480]	; (20f4 <STACK_SIZE+0xf4>)
    1f14:	401a      	ands	r2, r3
    1f16:	085b      	lsrs	r3, r3, #1
    1f18:	400b      	ands	r3, r1
    1f1a:	4313      	orrs	r3, r2
    1f1c:	e797      	b.n	1e4e <__aeabi_fadd+0x76>
    1f1e:	2c00      	cmp	r4, #0
    1f20:	d000      	beq.n	1f24 <__aeabi_fadd+0x14c>
    1f22:	e0a7      	b.n	2074 <STACK_SIZE+0x74>
    1f24:	2b00      	cmp	r3, #0
    1f26:	d000      	beq.n	1f2a <__aeabi_fadd+0x152>
    1f28:	e0b6      	b.n	2098 <STACK_SIZE+0x98>
    1f2a:	1e3b      	subs	r3, r7, #0
    1f2c:	d162      	bne.n	1ff4 <__aeabi_fadd+0x21c>
    1f2e:	2600      	movs	r6, #0
    1f30:	2200      	movs	r2, #0
    1f32:	0273      	lsls	r3, r6, #9
    1f34:	0a5b      	lsrs	r3, r3, #9
    1f36:	b2e4      	uxtb	r4, r4
    1f38:	e79a      	b.n	1e70 <__aeabi_fadd+0x98>
    1f3a:	0014      	movs	r4, r2
    1f3c:	e787      	b.n	1e4e <__aeabi_fadd+0x76>
    1f3e:	2f00      	cmp	r7, #0
    1f40:	d04d      	beq.n	1fde <__aeabi_fadd+0x206>
    1f42:	1e48      	subs	r0, r1, #1
    1f44:	2800      	cmp	r0, #0
    1f46:	d157      	bne.n	1ff8 <__aeabi_fadd+0x220>
    1f48:	4463      	add	r3, ip
    1f4a:	2401      	movs	r4, #1
    1f4c:	015a      	lsls	r2, r3, #5
    1f4e:	d5af      	bpl.n	1eb0 <__aeabi_fadd+0xd8>
    1f50:	2402      	movs	r4, #2
    1f52:	e7dd      	b.n	1f10 <__aeabi_fadd+0x138>
    1f54:	2a00      	cmp	r2, #0
    1f56:	d124      	bne.n	1fa2 <__aeabi_fadd+0x1ca>
    1f58:	1c62      	adds	r2, r4, #1
    1f5a:	b2d2      	uxtb	r2, r2
    1f5c:	2a01      	cmp	r2, #1
    1f5e:	ddde      	ble.n	1f1e <__aeabi_fadd+0x146>
    1f60:	1bde      	subs	r6, r3, r7
    1f62:	0172      	lsls	r2, r6, #5
    1f64:	d535      	bpl.n	1fd2 <__aeabi_fadd+0x1fa>
    1f66:	1afe      	subs	r6, r7, r3
    1f68:	000d      	movs	r5, r1
    1f6a:	e75c      	b.n	1e26 <__aeabi_fadd+0x4e>
    1f6c:	002a      	movs	r2, r5
    1f6e:	2300      	movs	r3, #0
    1f70:	e77e      	b.n	1e70 <__aeabi_fadd+0x98>
    1f72:	0033      	movs	r3, r6
    1f74:	4a60      	ldr	r2, [pc, #384]	; (20f8 <STACK_SIZE+0xf8>)
    1f76:	1a24      	subs	r4, r4, r0
    1f78:	4013      	ands	r3, r2
    1f7a:	e768      	b.n	1e4e <__aeabi_fadd+0x76>
    1f7c:	2900      	cmp	r1, #0
    1f7e:	d163      	bne.n	2048 <STACK_SIZE+0x48>
    1f80:	1c61      	adds	r1, r4, #1
    1f82:	b2c8      	uxtb	r0, r1
    1f84:	2801      	cmp	r0, #1
    1f86:	dd4e      	ble.n	2026 <STACK_SIZE+0x26>
    1f88:	29ff      	cmp	r1, #255	; 0xff
    1f8a:	d049      	beq.n	2020 <STACK_SIZE+0x20>
    1f8c:	4463      	add	r3, ip
    1f8e:	085b      	lsrs	r3, r3, #1
    1f90:	000c      	movs	r4, r1
    1f92:	e75c      	b.n	1e4e <__aeabi_fadd+0x76>
    1f94:	2aff      	cmp	r2, #255	; 0xff
    1f96:	d041      	beq.n	201c <STACK_SIZE+0x1c>
    1f98:	000a      	movs	r2, r1
    1f9a:	e779      	b.n	1e90 <__aeabi_fadd+0xb8>
    1f9c:	2201      	movs	r2, #1
    1f9e:	1a9b      	subs	r3, r3, r2
    1fa0:	e784      	b.n	1eac <__aeabi_fadd+0xd4>
    1fa2:	2c00      	cmp	r4, #0
    1fa4:	d01d      	beq.n	1fe2 <__aeabi_fadd+0x20a>
    1fa6:	28ff      	cmp	r0, #255	; 0xff
    1fa8:	d022      	beq.n	1ff0 <__aeabi_fadd+0x218>
    1faa:	2480      	movs	r4, #128	; 0x80
    1fac:	04e4      	lsls	r4, r4, #19
    1fae:	4252      	negs	r2, r2
    1fb0:	4323      	orrs	r3, r4
    1fb2:	2a1b      	cmp	r2, #27
    1fb4:	dd00      	ble.n	1fb8 <__aeabi_fadd+0x1e0>
    1fb6:	e08a      	b.n	20ce <STACK_SIZE+0xce>
    1fb8:	001c      	movs	r4, r3
    1fba:	2520      	movs	r5, #32
    1fbc:	40d4      	lsrs	r4, r2
    1fbe:	1aaa      	subs	r2, r5, r2
    1fc0:	4093      	lsls	r3, r2
    1fc2:	1e5a      	subs	r2, r3, #1
    1fc4:	4193      	sbcs	r3, r2
    1fc6:	4323      	orrs	r3, r4
    1fc8:	4662      	mov	r2, ip
    1fca:	0004      	movs	r4, r0
    1fcc:	1ad3      	subs	r3, r2, r3
    1fce:	000d      	movs	r5, r1
    1fd0:	e725      	b.n	1e1e <__aeabi_fadd+0x46>
    1fd2:	2e00      	cmp	r6, #0
    1fd4:	d000      	beq.n	1fd8 <__aeabi_fadd+0x200>
    1fd6:	e726      	b.n	1e26 <__aeabi_fadd+0x4e>
    1fd8:	2200      	movs	r2, #0
    1fda:	2400      	movs	r4, #0
    1fdc:	e7a9      	b.n	1f32 <__aeabi_fadd+0x15a>
    1fde:	000c      	movs	r4, r1
    1fe0:	e735      	b.n	1e4e <__aeabi_fadd+0x76>
    1fe2:	2b00      	cmp	r3, #0
    1fe4:	d04d      	beq.n	2082 <STACK_SIZE+0x82>
    1fe6:	43d2      	mvns	r2, r2
    1fe8:	2a00      	cmp	r2, #0
    1fea:	d0ed      	beq.n	1fc8 <__aeabi_fadd+0x1f0>
    1fec:	28ff      	cmp	r0, #255	; 0xff
    1fee:	d1e0      	bne.n	1fb2 <__aeabi_fadd+0x1da>
    1ff0:	4663      	mov	r3, ip
    1ff2:	24ff      	movs	r4, #255	; 0xff
    1ff4:	000d      	movs	r5, r1
    1ff6:	e72a      	b.n	1e4e <__aeabi_fadd+0x76>
    1ff8:	29ff      	cmp	r1, #255	; 0xff
    1ffa:	d00f      	beq.n	201c <STACK_SIZE+0x1c>
    1ffc:	0001      	movs	r1, r0
    1ffe:	e773      	b.n	1ee8 <__aeabi_fadd+0x110>
    2000:	2b00      	cmp	r3, #0
    2002:	d061      	beq.n	20c8 <STACK_SIZE+0xc8>
    2004:	24ff      	movs	r4, #255	; 0xff
    2006:	2f00      	cmp	r7, #0
    2008:	d100      	bne.n	200c <STACK_SIZE+0xc>
    200a:	e720      	b.n	1e4e <__aeabi_fadd+0x76>
    200c:	2280      	movs	r2, #128	; 0x80
    200e:	4641      	mov	r1, r8
    2010:	03d2      	lsls	r2, r2, #15
    2012:	4211      	tst	r1, r2
    2014:	d002      	beq.n	201c <STACK_SIZE+0x1c>
    2016:	4216      	tst	r6, r2
    2018:	d100      	bne.n	201c <STACK_SIZE+0x1c>
    201a:	003b      	movs	r3, r7
    201c:	24ff      	movs	r4, #255	; 0xff
    201e:	e716      	b.n	1e4e <__aeabi_fadd+0x76>
    2020:	24ff      	movs	r4, #255	; 0xff
    2022:	2300      	movs	r3, #0
    2024:	e724      	b.n	1e70 <__aeabi_fadd+0x98>
    2026:	2c00      	cmp	r4, #0
    2028:	d1ea      	bne.n	2000 <STACK_SIZE>
    202a:	2b00      	cmp	r3, #0
    202c:	d058      	beq.n	20e0 <STACK_SIZE+0xe0>
    202e:	2f00      	cmp	r7, #0
    2030:	d100      	bne.n	2034 <STACK_SIZE+0x34>
    2032:	e70c      	b.n	1e4e <__aeabi_fadd+0x76>
    2034:	4463      	add	r3, ip
    2036:	015a      	lsls	r2, r3, #5
    2038:	d400      	bmi.n	203c <STACK_SIZE+0x3c>
    203a:	e739      	b.n	1eb0 <__aeabi_fadd+0xd8>
    203c:	4a2e      	ldr	r2, [pc, #184]	; (20f8 <STACK_SIZE+0xf8>)
    203e:	000c      	movs	r4, r1
    2040:	4013      	ands	r3, r2
    2042:	e704      	b.n	1e4e <__aeabi_fadd+0x76>
    2044:	2101      	movs	r1, #1
    2046:	e75c      	b.n	1f02 <__aeabi_fadd+0x12a>
    2048:	2c00      	cmp	r4, #0
    204a:	d11e      	bne.n	208a <STACK_SIZE+0x8a>
    204c:	2b00      	cmp	r3, #0
    204e:	d040      	beq.n	20d2 <STACK_SIZE+0xd2>
    2050:	43c9      	mvns	r1, r1
    2052:	2900      	cmp	r1, #0
    2054:	d00b      	beq.n	206e <STACK_SIZE+0x6e>
    2056:	28ff      	cmp	r0, #255	; 0xff
    2058:	d036      	beq.n	20c8 <STACK_SIZE+0xc8>
    205a:	291b      	cmp	r1, #27
    205c:	dc47      	bgt.n	20ee <STACK_SIZE+0xee>
    205e:	001c      	movs	r4, r3
    2060:	2620      	movs	r6, #32
    2062:	40cc      	lsrs	r4, r1
    2064:	1a71      	subs	r1, r6, r1
    2066:	408b      	lsls	r3, r1
    2068:	1e59      	subs	r1, r3, #1
    206a:	418b      	sbcs	r3, r1
    206c:	4323      	orrs	r3, r4
    206e:	4463      	add	r3, ip
    2070:	0004      	movs	r4, r0
    2072:	e747      	b.n	1f04 <__aeabi_fadd+0x12c>
    2074:	2b00      	cmp	r3, #0
    2076:	d118      	bne.n	20aa <STACK_SIZE+0xaa>
    2078:	1e3b      	subs	r3, r7, #0
    207a:	d02d      	beq.n	20d8 <STACK_SIZE+0xd8>
    207c:	000d      	movs	r5, r1
    207e:	24ff      	movs	r4, #255	; 0xff
    2080:	e6e5      	b.n	1e4e <__aeabi_fadd+0x76>
    2082:	003b      	movs	r3, r7
    2084:	0004      	movs	r4, r0
    2086:	000d      	movs	r5, r1
    2088:	e6e1      	b.n	1e4e <__aeabi_fadd+0x76>
    208a:	28ff      	cmp	r0, #255	; 0xff
    208c:	d01c      	beq.n	20c8 <STACK_SIZE+0xc8>
    208e:	2480      	movs	r4, #128	; 0x80
    2090:	04e4      	lsls	r4, r4, #19
    2092:	4249      	negs	r1, r1
    2094:	4323      	orrs	r3, r4
    2096:	e7e0      	b.n	205a <STACK_SIZE+0x5a>
    2098:	2f00      	cmp	r7, #0
    209a:	d100      	bne.n	209e <STACK_SIZE+0x9e>
    209c:	e6d7      	b.n	1e4e <__aeabi_fadd+0x76>
    209e:	1bde      	subs	r6, r3, r7
    20a0:	0172      	lsls	r2, r6, #5
    20a2:	d51f      	bpl.n	20e4 <STACK_SIZE+0xe4>
    20a4:	1afb      	subs	r3, r7, r3
    20a6:	000d      	movs	r5, r1
    20a8:	e6d1      	b.n	1e4e <__aeabi_fadd+0x76>
    20aa:	24ff      	movs	r4, #255	; 0xff
    20ac:	2f00      	cmp	r7, #0
    20ae:	d100      	bne.n	20b2 <STACK_SIZE+0xb2>
    20b0:	e6cd      	b.n	1e4e <__aeabi_fadd+0x76>
    20b2:	2280      	movs	r2, #128	; 0x80
    20b4:	4640      	mov	r0, r8
    20b6:	03d2      	lsls	r2, r2, #15
    20b8:	4210      	tst	r0, r2
    20ba:	d0af      	beq.n	201c <STACK_SIZE+0x1c>
    20bc:	4216      	tst	r6, r2
    20be:	d1ad      	bne.n	201c <STACK_SIZE+0x1c>
    20c0:	003b      	movs	r3, r7
    20c2:	000d      	movs	r5, r1
    20c4:	24ff      	movs	r4, #255	; 0xff
    20c6:	e6c2      	b.n	1e4e <__aeabi_fadd+0x76>
    20c8:	4663      	mov	r3, ip
    20ca:	24ff      	movs	r4, #255	; 0xff
    20cc:	e6bf      	b.n	1e4e <__aeabi_fadd+0x76>
    20ce:	2301      	movs	r3, #1
    20d0:	e77a      	b.n	1fc8 <__aeabi_fadd+0x1f0>
    20d2:	003b      	movs	r3, r7
    20d4:	0004      	movs	r4, r0
    20d6:	e6ba      	b.n	1e4e <__aeabi_fadd+0x76>
    20d8:	2680      	movs	r6, #128	; 0x80
    20da:	2200      	movs	r2, #0
    20dc:	03f6      	lsls	r6, r6, #15
    20de:	e6f0      	b.n	1ec2 <__aeabi_fadd+0xea>
    20e0:	003b      	movs	r3, r7
    20e2:	e6b4      	b.n	1e4e <__aeabi_fadd+0x76>
    20e4:	1e33      	subs	r3, r6, #0
    20e6:	d000      	beq.n	20ea <STACK_SIZE+0xea>
    20e8:	e6e2      	b.n	1eb0 <__aeabi_fadd+0xd8>
    20ea:	2200      	movs	r2, #0
    20ec:	e721      	b.n	1f32 <__aeabi_fadd+0x15a>
    20ee:	2301      	movs	r3, #1
    20f0:	e7bd      	b.n	206e <STACK_SIZE+0x6e>
    20f2:	46c0      	nop			; (mov r8, r8)
    20f4:	7dffffff 	.word	0x7dffffff
    20f8:	fbffffff 	.word	0xfbffffff

000020fc <__aeabi_fdiv>:
    20fc:	b5f0      	push	{r4, r5, r6, r7, lr}
    20fe:	4657      	mov	r7, sl
    2100:	464e      	mov	r6, r9
    2102:	46de      	mov	lr, fp
    2104:	4645      	mov	r5, r8
    2106:	b5e0      	push	{r5, r6, r7, lr}
    2108:	0244      	lsls	r4, r0, #9
    210a:	0043      	lsls	r3, r0, #1
    210c:	0fc6      	lsrs	r6, r0, #31
    210e:	b083      	sub	sp, #12
    2110:	1c0f      	adds	r7, r1, #0
    2112:	0a64      	lsrs	r4, r4, #9
    2114:	0e1b      	lsrs	r3, r3, #24
    2116:	46b2      	mov	sl, r6
    2118:	d053      	beq.n	21c2 <__aeabi_fdiv+0xc6>
    211a:	2bff      	cmp	r3, #255	; 0xff
    211c:	d027      	beq.n	216e <__aeabi_fdiv+0x72>
    211e:	2280      	movs	r2, #128	; 0x80
    2120:	00e4      	lsls	r4, r4, #3
    2122:	04d2      	lsls	r2, r2, #19
    2124:	4314      	orrs	r4, r2
    2126:	227f      	movs	r2, #127	; 0x7f
    2128:	4252      	negs	r2, r2
    212a:	4690      	mov	r8, r2
    212c:	4498      	add	r8, r3
    212e:	2300      	movs	r3, #0
    2130:	4699      	mov	r9, r3
    2132:	469b      	mov	fp, r3
    2134:	027d      	lsls	r5, r7, #9
    2136:	0078      	lsls	r0, r7, #1
    2138:	0ffb      	lsrs	r3, r7, #31
    213a:	0a6d      	lsrs	r5, r5, #9
    213c:	0e00      	lsrs	r0, r0, #24
    213e:	9300      	str	r3, [sp, #0]
    2140:	d024      	beq.n	218c <__aeabi_fdiv+0x90>
    2142:	28ff      	cmp	r0, #255	; 0xff
    2144:	d046      	beq.n	21d4 <__aeabi_fdiv+0xd8>
    2146:	2380      	movs	r3, #128	; 0x80
    2148:	2100      	movs	r1, #0
    214a:	00ed      	lsls	r5, r5, #3
    214c:	04db      	lsls	r3, r3, #19
    214e:	431d      	orrs	r5, r3
    2150:	387f      	subs	r0, #127	; 0x7f
    2152:	4647      	mov	r7, r8
    2154:	1a38      	subs	r0, r7, r0
    2156:	464f      	mov	r7, r9
    2158:	430f      	orrs	r7, r1
    215a:	00bf      	lsls	r7, r7, #2
    215c:	46b9      	mov	r9, r7
    215e:	0033      	movs	r3, r6
    2160:	9a00      	ldr	r2, [sp, #0]
    2162:	4f87      	ldr	r7, [pc, #540]	; (2380 <__aeabi_fdiv+0x284>)
    2164:	4053      	eors	r3, r2
    2166:	464a      	mov	r2, r9
    2168:	58ba      	ldr	r2, [r7, r2]
    216a:	9301      	str	r3, [sp, #4]
    216c:	4697      	mov	pc, r2
    216e:	2c00      	cmp	r4, #0
    2170:	d14e      	bne.n	2210 <__aeabi_fdiv+0x114>
    2172:	2308      	movs	r3, #8
    2174:	4699      	mov	r9, r3
    2176:	33f7      	adds	r3, #247	; 0xf7
    2178:	4698      	mov	r8, r3
    217a:	3bfd      	subs	r3, #253	; 0xfd
    217c:	469b      	mov	fp, r3
    217e:	027d      	lsls	r5, r7, #9
    2180:	0078      	lsls	r0, r7, #1
    2182:	0ffb      	lsrs	r3, r7, #31
    2184:	0a6d      	lsrs	r5, r5, #9
    2186:	0e00      	lsrs	r0, r0, #24
    2188:	9300      	str	r3, [sp, #0]
    218a:	d1da      	bne.n	2142 <__aeabi_fdiv+0x46>
    218c:	2d00      	cmp	r5, #0
    218e:	d126      	bne.n	21de <__aeabi_fdiv+0xe2>
    2190:	2000      	movs	r0, #0
    2192:	2101      	movs	r1, #1
    2194:	0033      	movs	r3, r6
    2196:	9a00      	ldr	r2, [sp, #0]
    2198:	4f7a      	ldr	r7, [pc, #488]	; (2384 <__aeabi_fdiv+0x288>)
    219a:	4053      	eors	r3, r2
    219c:	4642      	mov	r2, r8
    219e:	1a10      	subs	r0, r2, r0
    21a0:	464a      	mov	r2, r9
    21a2:	430a      	orrs	r2, r1
    21a4:	0092      	lsls	r2, r2, #2
    21a6:	58ba      	ldr	r2, [r7, r2]
    21a8:	001d      	movs	r5, r3
    21aa:	4697      	mov	pc, r2
    21ac:	9b00      	ldr	r3, [sp, #0]
    21ae:	002c      	movs	r4, r5
    21b0:	469a      	mov	sl, r3
    21b2:	468b      	mov	fp, r1
    21b4:	465b      	mov	r3, fp
    21b6:	2b02      	cmp	r3, #2
    21b8:	d131      	bne.n	221e <__aeabi_fdiv+0x122>
    21ba:	4653      	mov	r3, sl
    21bc:	21ff      	movs	r1, #255	; 0xff
    21be:	2400      	movs	r4, #0
    21c0:	e038      	b.n	2234 <__aeabi_fdiv+0x138>
    21c2:	2c00      	cmp	r4, #0
    21c4:	d117      	bne.n	21f6 <__aeabi_fdiv+0xfa>
    21c6:	2304      	movs	r3, #4
    21c8:	4699      	mov	r9, r3
    21ca:	2300      	movs	r3, #0
    21cc:	4698      	mov	r8, r3
    21ce:	3301      	adds	r3, #1
    21d0:	469b      	mov	fp, r3
    21d2:	e7af      	b.n	2134 <__aeabi_fdiv+0x38>
    21d4:	20ff      	movs	r0, #255	; 0xff
    21d6:	2d00      	cmp	r5, #0
    21d8:	d10b      	bne.n	21f2 <__aeabi_fdiv+0xf6>
    21da:	2102      	movs	r1, #2
    21dc:	e7da      	b.n	2194 <__aeabi_fdiv+0x98>
    21de:	0028      	movs	r0, r5
    21e0:	f002 fa4a 	bl	4678 <__clzsi2>
    21e4:	1f43      	subs	r3, r0, #5
    21e6:	409d      	lsls	r5, r3
    21e8:	2376      	movs	r3, #118	; 0x76
    21ea:	425b      	negs	r3, r3
    21ec:	1a18      	subs	r0, r3, r0
    21ee:	2100      	movs	r1, #0
    21f0:	e7af      	b.n	2152 <__aeabi_fdiv+0x56>
    21f2:	2103      	movs	r1, #3
    21f4:	e7ad      	b.n	2152 <__aeabi_fdiv+0x56>
    21f6:	0020      	movs	r0, r4
    21f8:	f002 fa3e 	bl	4678 <__clzsi2>
    21fc:	1f43      	subs	r3, r0, #5
    21fe:	409c      	lsls	r4, r3
    2200:	2376      	movs	r3, #118	; 0x76
    2202:	425b      	negs	r3, r3
    2204:	1a1b      	subs	r3, r3, r0
    2206:	4698      	mov	r8, r3
    2208:	2300      	movs	r3, #0
    220a:	4699      	mov	r9, r3
    220c:	469b      	mov	fp, r3
    220e:	e791      	b.n	2134 <__aeabi_fdiv+0x38>
    2210:	230c      	movs	r3, #12
    2212:	4699      	mov	r9, r3
    2214:	33f3      	adds	r3, #243	; 0xf3
    2216:	4698      	mov	r8, r3
    2218:	3bfc      	subs	r3, #252	; 0xfc
    221a:	469b      	mov	fp, r3
    221c:	e78a      	b.n	2134 <__aeabi_fdiv+0x38>
    221e:	2b03      	cmp	r3, #3
    2220:	d100      	bne.n	2224 <__aeabi_fdiv+0x128>
    2222:	e0a5      	b.n	2370 <__aeabi_fdiv+0x274>
    2224:	4655      	mov	r5, sl
    2226:	2b01      	cmp	r3, #1
    2228:	d000      	beq.n	222c <__aeabi_fdiv+0x130>
    222a:	e081      	b.n	2330 <__aeabi_fdiv+0x234>
    222c:	2301      	movs	r3, #1
    222e:	2100      	movs	r1, #0
    2230:	2400      	movs	r4, #0
    2232:	402b      	ands	r3, r5
    2234:	0264      	lsls	r4, r4, #9
    2236:	05c9      	lsls	r1, r1, #23
    2238:	0a60      	lsrs	r0, r4, #9
    223a:	07db      	lsls	r3, r3, #31
    223c:	4308      	orrs	r0, r1
    223e:	4318      	orrs	r0, r3
    2240:	b003      	add	sp, #12
    2242:	bc3c      	pop	{r2, r3, r4, r5}
    2244:	4690      	mov	r8, r2
    2246:	4699      	mov	r9, r3
    2248:	46a2      	mov	sl, r4
    224a:	46ab      	mov	fp, r5
    224c:	bdf0      	pop	{r4, r5, r6, r7, pc}
    224e:	2480      	movs	r4, #128	; 0x80
    2250:	2300      	movs	r3, #0
    2252:	03e4      	lsls	r4, r4, #15
    2254:	21ff      	movs	r1, #255	; 0xff
    2256:	e7ed      	b.n	2234 <__aeabi_fdiv+0x138>
    2258:	21ff      	movs	r1, #255	; 0xff
    225a:	2400      	movs	r4, #0
    225c:	e7ea      	b.n	2234 <__aeabi_fdiv+0x138>
    225e:	2301      	movs	r3, #1
    2260:	1a59      	subs	r1, r3, r1
    2262:	291b      	cmp	r1, #27
    2264:	dd66      	ble.n	2334 <__aeabi_fdiv+0x238>
    2266:	9a01      	ldr	r2, [sp, #4]
    2268:	4013      	ands	r3, r2
    226a:	2100      	movs	r1, #0
    226c:	2400      	movs	r4, #0
    226e:	e7e1      	b.n	2234 <__aeabi_fdiv+0x138>
    2270:	2380      	movs	r3, #128	; 0x80
    2272:	03db      	lsls	r3, r3, #15
    2274:	421c      	tst	r4, r3
    2276:	d038      	beq.n	22ea <__aeabi_fdiv+0x1ee>
    2278:	421d      	tst	r5, r3
    227a:	d051      	beq.n	2320 <__aeabi_fdiv+0x224>
    227c:	431c      	orrs	r4, r3
    227e:	0264      	lsls	r4, r4, #9
    2280:	0a64      	lsrs	r4, r4, #9
    2282:	0033      	movs	r3, r6
    2284:	21ff      	movs	r1, #255	; 0xff
    2286:	e7d5      	b.n	2234 <__aeabi_fdiv+0x138>
    2288:	0163      	lsls	r3, r4, #5
    228a:	016c      	lsls	r4, r5, #5
    228c:	42a3      	cmp	r3, r4
    228e:	d23b      	bcs.n	2308 <__aeabi_fdiv+0x20c>
    2290:	261b      	movs	r6, #27
    2292:	2100      	movs	r1, #0
    2294:	3801      	subs	r0, #1
    2296:	2501      	movs	r5, #1
    2298:	001f      	movs	r7, r3
    229a:	0049      	lsls	r1, r1, #1
    229c:	005b      	lsls	r3, r3, #1
    229e:	2f00      	cmp	r7, #0
    22a0:	db01      	blt.n	22a6 <__aeabi_fdiv+0x1aa>
    22a2:	429c      	cmp	r4, r3
    22a4:	d801      	bhi.n	22aa <__aeabi_fdiv+0x1ae>
    22a6:	1b1b      	subs	r3, r3, r4
    22a8:	4329      	orrs	r1, r5
    22aa:	3e01      	subs	r6, #1
    22ac:	2e00      	cmp	r6, #0
    22ae:	d1f3      	bne.n	2298 <__aeabi_fdiv+0x19c>
    22b0:	001c      	movs	r4, r3
    22b2:	1e63      	subs	r3, r4, #1
    22b4:	419c      	sbcs	r4, r3
    22b6:	430c      	orrs	r4, r1
    22b8:	0001      	movs	r1, r0
    22ba:	317f      	adds	r1, #127	; 0x7f
    22bc:	2900      	cmp	r1, #0
    22be:	ddce      	ble.n	225e <__aeabi_fdiv+0x162>
    22c0:	0763      	lsls	r3, r4, #29
    22c2:	d004      	beq.n	22ce <__aeabi_fdiv+0x1d2>
    22c4:	230f      	movs	r3, #15
    22c6:	4023      	ands	r3, r4
    22c8:	2b04      	cmp	r3, #4
    22ca:	d000      	beq.n	22ce <__aeabi_fdiv+0x1d2>
    22cc:	3404      	adds	r4, #4
    22ce:	0123      	lsls	r3, r4, #4
    22d0:	d503      	bpl.n	22da <__aeabi_fdiv+0x1de>
    22d2:	0001      	movs	r1, r0
    22d4:	4b2c      	ldr	r3, [pc, #176]	; (2388 <__aeabi_fdiv+0x28c>)
    22d6:	3180      	adds	r1, #128	; 0x80
    22d8:	401c      	ands	r4, r3
    22da:	29fe      	cmp	r1, #254	; 0xfe
    22dc:	dd0d      	ble.n	22fa <__aeabi_fdiv+0x1fe>
    22de:	2301      	movs	r3, #1
    22e0:	9a01      	ldr	r2, [sp, #4]
    22e2:	21ff      	movs	r1, #255	; 0xff
    22e4:	4013      	ands	r3, r2
    22e6:	2400      	movs	r4, #0
    22e8:	e7a4      	b.n	2234 <__aeabi_fdiv+0x138>
    22ea:	2380      	movs	r3, #128	; 0x80
    22ec:	03db      	lsls	r3, r3, #15
    22ee:	431c      	orrs	r4, r3
    22f0:	0264      	lsls	r4, r4, #9
    22f2:	0a64      	lsrs	r4, r4, #9
    22f4:	0033      	movs	r3, r6
    22f6:	21ff      	movs	r1, #255	; 0xff
    22f8:	e79c      	b.n	2234 <__aeabi_fdiv+0x138>
    22fa:	2301      	movs	r3, #1
    22fc:	9a01      	ldr	r2, [sp, #4]
    22fe:	01a4      	lsls	r4, r4, #6
    2300:	0a64      	lsrs	r4, r4, #9
    2302:	b2c9      	uxtb	r1, r1
    2304:	4013      	ands	r3, r2
    2306:	e795      	b.n	2234 <__aeabi_fdiv+0x138>
    2308:	1b1b      	subs	r3, r3, r4
    230a:	261a      	movs	r6, #26
    230c:	2101      	movs	r1, #1
    230e:	e7c2      	b.n	2296 <__aeabi_fdiv+0x19a>
    2310:	9b00      	ldr	r3, [sp, #0]
    2312:	468b      	mov	fp, r1
    2314:	469a      	mov	sl, r3
    2316:	2400      	movs	r4, #0
    2318:	e74c      	b.n	21b4 <__aeabi_fdiv+0xb8>
    231a:	0263      	lsls	r3, r4, #9
    231c:	d5e5      	bpl.n	22ea <__aeabi_fdiv+0x1ee>
    231e:	2500      	movs	r5, #0
    2320:	2480      	movs	r4, #128	; 0x80
    2322:	03e4      	lsls	r4, r4, #15
    2324:	432c      	orrs	r4, r5
    2326:	0264      	lsls	r4, r4, #9
    2328:	0a64      	lsrs	r4, r4, #9
    232a:	9b00      	ldr	r3, [sp, #0]
    232c:	21ff      	movs	r1, #255	; 0xff
    232e:	e781      	b.n	2234 <__aeabi_fdiv+0x138>
    2330:	9501      	str	r5, [sp, #4]
    2332:	e7c1      	b.n	22b8 <__aeabi_fdiv+0x1bc>
    2334:	0023      	movs	r3, r4
    2336:	2020      	movs	r0, #32
    2338:	40cb      	lsrs	r3, r1
    233a:	1a41      	subs	r1, r0, r1
    233c:	408c      	lsls	r4, r1
    233e:	1e61      	subs	r1, r4, #1
    2340:	418c      	sbcs	r4, r1
    2342:	431c      	orrs	r4, r3
    2344:	0763      	lsls	r3, r4, #29
    2346:	d004      	beq.n	2352 <__aeabi_fdiv+0x256>
    2348:	230f      	movs	r3, #15
    234a:	4023      	ands	r3, r4
    234c:	2b04      	cmp	r3, #4
    234e:	d000      	beq.n	2352 <__aeabi_fdiv+0x256>
    2350:	3404      	adds	r4, #4
    2352:	0163      	lsls	r3, r4, #5
    2354:	d505      	bpl.n	2362 <__aeabi_fdiv+0x266>
    2356:	2301      	movs	r3, #1
    2358:	9a01      	ldr	r2, [sp, #4]
    235a:	2101      	movs	r1, #1
    235c:	4013      	ands	r3, r2
    235e:	2400      	movs	r4, #0
    2360:	e768      	b.n	2234 <__aeabi_fdiv+0x138>
    2362:	2301      	movs	r3, #1
    2364:	9a01      	ldr	r2, [sp, #4]
    2366:	01a4      	lsls	r4, r4, #6
    2368:	0a64      	lsrs	r4, r4, #9
    236a:	4013      	ands	r3, r2
    236c:	2100      	movs	r1, #0
    236e:	e761      	b.n	2234 <__aeabi_fdiv+0x138>
    2370:	2380      	movs	r3, #128	; 0x80
    2372:	03db      	lsls	r3, r3, #15
    2374:	431c      	orrs	r4, r3
    2376:	0264      	lsls	r4, r4, #9
    2378:	0a64      	lsrs	r4, r4, #9
    237a:	4653      	mov	r3, sl
    237c:	21ff      	movs	r1, #255	; 0xff
    237e:	e759      	b.n	2234 <__aeabi_fdiv+0x138>
    2380:	00008f28 	.word	0x00008f28
    2384:	00008f68 	.word	0x00008f68
    2388:	f7ffffff 	.word	0xf7ffffff

0000238c <__eqsf2>:
    238c:	b570      	push	{r4, r5, r6, lr}
    238e:	0042      	lsls	r2, r0, #1
    2390:	0245      	lsls	r5, r0, #9
    2392:	024e      	lsls	r6, r1, #9
    2394:	004c      	lsls	r4, r1, #1
    2396:	0fc3      	lsrs	r3, r0, #31
    2398:	0a6d      	lsrs	r5, r5, #9
    239a:	0e12      	lsrs	r2, r2, #24
    239c:	0a76      	lsrs	r6, r6, #9
    239e:	0e24      	lsrs	r4, r4, #24
    23a0:	0fc9      	lsrs	r1, r1, #31
    23a2:	2001      	movs	r0, #1
    23a4:	2aff      	cmp	r2, #255	; 0xff
    23a6:	d006      	beq.n	23b6 <__eqsf2+0x2a>
    23a8:	2cff      	cmp	r4, #255	; 0xff
    23aa:	d003      	beq.n	23b4 <__eqsf2+0x28>
    23ac:	42a2      	cmp	r2, r4
    23ae:	d101      	bne.n	23b4 <__eqsf2+0x28>
    23b0:	42b5      	cmp	r5, r6
    23b2:	d006      	beq.n	23c2 <__eqsf2+0x36>
    23b4:	bd70      	pop	{r4, r5, r6, pc}
    23b6:	2d00      	cmp	r5, #0
    23b8:	d1fc      	bne.n	23b4 <__eqsf2+0x28>
    23ba:	2cff      	cmp	r4, #255	; 0xff
    23bc:	d1fa      	bne.n	23b4 <__eqsf2+0x28>
    23be:	2e00      	cmp	r6, #0
    23c0:	d1f8      	bne.n	23b4 <__eqsf2+0x28>
    23c2:	428b      	cmp	r3, r1
    23c4:	d006      	beq.n	23d4 <__eqsf2+0x48>
    23c6:	2001      	movs	r0, #1
    23c8:	2a00      	cmp	r2, #0
    23ca:	d1f3      	bne.n	23b4 <__eqsf2+0x28>
    23cc:	0028      	movs	r0, r5
    23ce:	1e45      	subs	r5, r0, #1
    23d0:	41a8      	sbcs	r0, r5
    23d2:	e7ef      	b.n	23b4 <__eqsf2+0x28>
    23d4:	2000      	movs	r0, #0
    23d6:	e7ed      	b.n	23b4 <__eqsf2+0x28>

000023d8 <__gesf2>:
    23d8:	b5f0      	push	{r4, r5, r6, r7, lr}
    23da:	0042      	lsls	r2, r0, #1
    23dc:	0245      	lsls	r5, r0, #9
    23de:	024c      	lsls	r4, r1, #9
    23e0:	0fc3      	lsrs	r3, r0, #31
    23e2:	0048      	lsls	r0, r1, #1
    23e4:	0a6d      	lsrs	r5, r5, #9
    23e6:	0e12      	lsrs	r2, r2, #24
    23e8:	0a64      	lsrs	r4, r4, #9
    23ea:	0e00      	lsrs	r0, r0, #24
    23ec:	0fc9      	lsrs	r1, r1, #31
    23ee:	2aff      	cmp	r2, #255	; 0xff
    23f0:	d01e      	beq.n	2430 <__gesf2+0x58>
    23f2:	28ff      	cmp	r0, #255	; 0xff
    23f4:	d021      	beq.n	243a <__gesf2+0x62>
    23f6:	2a00      	cmp	r2, #0
    23f8:	d10a      	bne.n	2410 <__gesf2+0x38>
    23fa:	426e      	negs	r6, r5
    23fc:	416e      	adcs	r6, r5
    23fe:	b2f6      	uxtb	r6, r6
    2400:	2800      	cmp	r0, #0
    2402:	d10f      	bne.n	2424 <__gesf2+0x4c>
    2404:	2c00      	cmp	r4, #0
    2406:	d10d      	bne.n	2424 <__gesf2+0x4c>
    2408:	2000      	movs	r0, #0
    240a:	2d00      	cmp	r5, #0
    240c:	d009      	beq.n	2422 <__gesf2+0x4a>
    240e:	e005      	b.n	241c <__gesf2+0x44>
    2410:	2800      	cmp	r0, #0
    2412:	d101      	bne.n	2418 <__gesf2+0x40>
    2414:	2c00      	cmp	r4, #0
    2416:	d001      	beq.n	241c <__gesf2+0x44>
    2418:	428b      	cmp	r3, r1
    241a:	d011      	beq.n	2440 <__gesf2+0x68>
    241c:	2101      	movs	r1, #1
    241e:	4258      	negs	r0, r3
    2420:	4308      	orrs	r0, r1
    2422:	bdf0      	pop	{r4, r5, r6, r7, pc}
    2424:	2e00      	cmp	r6, #0
    2426:	d0f7      	beq.n	2418 <__gesf2+0x40>
    2428:	2001      	movs	r0, #1
    242a:	3901      	subs	r1, #1
    242c:	4308      	orrs	r0, r1
    242e:	e7f8      	b.n	2422 <__gesf2+0x4a>
    2430:	2d00      	cmp	r5, #0
    2432:	d0de      	beq.n	23f2 <__gesf2+0x1a>
    2434:	2002      	movs	r0, #2
    2436:	4240      	negs	r0, r0
    2438:	e7f3      	b.n	2422 <__gesf2+0x4a>
    243a:	2c00      	cmp	r4, #0
    243c:	d0db      	beq.n	23f6 <__gesf2+0x1e>
    243e:	e7f9      	b.n	2434 <__gesf2+0x5c>
    2440:	4282      	cmp	r2, r0
    2442:	dceb      	bgt.n	241c <__gesf2+0x44>
    2444:	db04      	blt.n	2450 <__gesf2+0x78>
    2446:	42a5      	cmp	r5, r4
    2448:	d8e8      	bhi.n	241c <__gesf2+0x44>
    244a:	2000      	movs	r0, #0
    244c:	42a5      	cmp	r5, r4
    244e:	d2e8      	bcs.n	2422 <__gesf2+0x4a>
    2450:	2101      	movs	r1, #1
    2452:	1e58      	subs	r0, r3, #1
    2454:	4308      	orrs	r0, r1
    2456:	e7e4      	b.n	2422 <__gesf2+0x4a>

00002458 <__lesf2>:
    2458:	b5f0      	push	{r4, r5, r6, r7, lr}
    245a:	0042      	lsls	r2, r0, #1
    245c:	024d      	lsls	r5, r1, #9
    245e:	004c      	lsls	r4, r1, #1
    2460:	0246      	lsls	r6, r0, #9
    2462:	0a76      	lsrs	r6, r6, #9
    2464:	0e12      	lsrs	r2, r2, #24
    2466:	0fc3      	lsrs	r3, r0, #31
    2468:	0a6d      	lsrs	r5, r5, #9
    246a:	0e24      	lsrs	r4, r4, #24
    246c:	0fc9      	lsrs	r1, r1, #31
    246e:	2aff      	cmp	r2, #255	; 0xff
    2470:	d016      	beq.n	24a0 <__lesf2+0x48>
    2472:	2cff      	cmp	r4, #255	; 0xff
    2474:	d018      	beq.n	24a8 <__lesf2+0x50>
    2476:	2a00      	cmp	r2, #0
    2478:	d10a      	bne.n	2490 <__lesf2+0x38>
    247a:	4270      	negs	r0, r6
    247c:	4170      	adcs	r0, r6
    247e:	b2c0      	uxtb	r0, r0
    2480:	2c00      	cmp	r4, #0
    2482:	d015      	beq.n	24b0 <__lesf2+0x58>
    2484:	2800      	cmp	r0, #0
    2486:	d005      	beq.n	2494 <__lesf2+0x3c>
    2488:	2001      	movs	r0, #1
    248a:	3901      	subs	r1, #1
    248c:	4308      	orrs	r0, r1
    248e:	bdf0      	pop	{r4, r5, r6, r7, pc}
    2490:	2c00      	cmp	r4, #0
    2492:	d013      	beq.n	24bc <__lesf2+0x64>
    2494:	4299      	cmp	r1, r3
    2496:	d014      	beq.n	24c2 <__lesf2+0x6a>
    2498:	2001      	movs	r0, #1
    249a:	425b      	negs	r3, r3
    249c:	4318      	orrs	r0, r3
    249e:	e7f6      	b.n	248e <__lesf2+0x36>
    24a0:	2002      	movs	r0, #2
    24a2:	2e00      	cmp	r6, #0
    24a4:	d1f3      	bne.n	248e <__lesf2+0x36>
    24a6:	e7e4      	b.n	2472 <__lesf2+0x1a>
    24a8:	2002      	movs	r0, #2
    24aa:	2d00      	cmp	r5, #0
    24ac:	d1ef      	bne.n	248e <__lesf2+0x36>
    24ae:	e7e2      	b.n	2476 <__lesf2+0x1e>
    24b0:	2d00      	cmp	r5, #0
    24b2:	d1e7      	bne.n	2484 <__lesf2+0x2c>
    24b4:	2000      	movs	r0, #0
    24b6:	2e00      	cmp	r6, #0
    24b8:	d0e9      	beq.n	248e <__lesf2+0x36>
    24ba:	e7ed      	b.n	2498 <__lesf2+0x40>
    24bc:	2d00      	cmp	r5, #0
    24be:	d1e9      	bne.n	2494 <__lesf2+0x3c>
    24c0:	e7ea      	b.n	2498 <__lesf2+0x40>
    24c2:	42a2      	cmp	r2, r4
    24c4:	dc06      	bgt.n	24d4 <__lesf2+0x7c>
    24c6:	dbdf      	blt.n	2488 <__lesf2+0x30>
    24c8:	42ae      	cmp	r6, r5
    24ca:	d803      	bhi.n	24d4 <__lesf2+0x7c>
    24cc:	2000      	movs	r0, #0
    24ce:	42ae      	cmp	r6, r5
    24d0:	d3da      	bcc.n	2488 <__lesf2+0x30>
    24d2:	e7dc      	b.n	248e <__lesf2+0x36>
    24d4:	2001      	movs	r0, #1
    24d6:	4249      	negs	r1, r1
    24d8:	4308      	orrs	r0, r1
    24da:	e7d8      	b.n	248e <__lesf2+0x36>

000024dc <__aeabi_fmul>:
    24dc:	b5f8      	push	{r3, r4, r5, r6, r7, lr}
    24de:	4657      	mov	r7, sl
    24e0:	464e      	mov	r6, r9
    24e2:	4645      	mov	r5, r8
    24e4:	46de      	mov	lr, fp
    24e6:	b5e0      	push	{r5, r6, r7, lr}
    24e8:	0247      	lsls	r7, r0, #9
    24ea:	0046      	lsls	r6, r0, #1
    24ec:	4688      	mov	r8, r1
    24ee:	0a7f      	lsrs	r7, r7, #9
    24f0:	0e36      	lsrs	r6, r6, #24
    24f2:	0fc4      	lsrs	r4, r0, #31
    24f4:	2e00      	cmp	r6, #0
    24f6:	d047      	beq.n	2588 <__aeabi_fmul+0xac>
    24f8:	2eff      	cmp	r6, #255	; 0xff
    24fa:	d024      	beq.n	2546 <__aeabi_fmul+0x6a>
    24fc:	00fb      	lsls	r3, r7, #3
    24fe:	2780      	movs	r7, #128	; 0x80
    2500:	04ff      	lsls	r7, r7, #19
    2502:	431f      	orrs	r7, r3
    2504:	2300      	movs	r3, #0
    2506:	4699      	mov	r9, r3
    2508:	469a      	mov	sl, r3
    250a:	3e7f      	subs	r6, #127	; 0x7f
    250c:	4643      	mov	r3, r8
    250e:	025d      	lsls	r5, r3, #9
    2510:	0058      	lsls	r0, r3, #1
    2512:	0fdb      	lsrs	r3, r3, #31
    2514:	0a6d      	lsrs	r5, r5, #9
    2516:	0e00      	lsrs	r0, r0, #24
    2518:	4698      	mov	r8, r3
    251a:	d043      	beq.n	25a4 <__aeabi_fmul+0xc8>
    251c:	28ff      	cmp	r0, #255	; 0xff
    251e:	d03b      	beq.n	2598 <__aeabi_fmul+0xbc>
    2520:	00eb      	lsls	r3, r5, #3
    2522:	2580      	movs	r5, #128	; 0x80
    2524:	2200      	movs	r2, #0
    2526:	04ed      	lsls	r5, r5, #19
    2528:	431d      	orrs	r5, r3
    252a:	387f      	subs	r0, #127	; 0x7f
    252c:	1836      	adds	r6, r6, r0
    252e:	1c73      	adds	r3, r6, #1
    2530:	4641      	mov	r1, r8
    2532:	469b      	mov	fp, r3
    2534:	464b      	mov	r3, r9
    2536:	4061      	eors	r1, r4
    2538:	4313      	orrs	r3, r2
    253a:	2b0f      	cmp	r3, #15
    253c:	d864      	bhi.n	2608 <__aeabi_fmul+0x12c>
    253e:	4875      	ldr	r0, [pc, #468]	; (2714 <__aeabi_fmul+0x238>)
    2540:	009b      	lsls	r3, r3, #2
    2542:	58c3      	ldr	r3, [r0, r3]
    2544:	469f      	mov	pc, r3
    2546:	2f00      	cmp	r7, #0
    2548:	d142      	bne.n	25d0 <__aeabi_fmul+0xf4>
    254a:	2308      	movs	r3, #8
    254c:	4699      	mov	r9, r3
    254e:	3b06      	subs	r3, #6
    2550:	26ff      	movs	r6, #255	; 0xff
    2552:	469a      	mov	sl, r3
    2554:	e7da      	b.n	250c <__aeabi_fmul+0x30>
    2556:	4641      	mov	r1, r8
    2558:	2a02      	cmp	r2, #2
    255a:	d028      	beq.n	25ae <__aeabi_fmul+0xd2>
    255c:	2a03      	cmp	r2, #3
    255e:	d100      	bne.n	2562 <__aeabi_fmul+0x86>
    2560:	e0ce      	b.n	2700 <__aeabi_fmul+0x224>
    2562:	2a01      	cmp	r2, #1
    2564:	d000      	beq.n	2568 <__aeabi_fmul+0x8c>
    2566:	e0ac      	b.n	26c2 <__aeabi_fmul+0x1e6>
    2568:	4011      	ands	r1, r2
    256a:	2000      	movs	r0, #0
    256c:	2200      	movs	r2, #0
    256e:	b2cc      	uxtb	r4, r1
    2570:	0240      	lsls	r0, r0, #9
    2572:	05d2      	lsls	r2, r2, #23
    2574:	0a40      	lsrs	r0, r0, #9
    2576:	07e4      	lsls	r4, r4, #31
    2578:	4310      	orrs	r0, r2
    257a:	4320      	orrs	r0, r4
    257c:	bc3c      	pop	{r2, r3, r4, r5}
    257e:	4690      	mov	r8, r2
    2580:	4699      	mov	r9, r3
    2582:	46a2      	mov	sl, r4
    2584:	46ab      	mov	fp, r5
    2586:	bdf8      	pop	{r3, r4, r5, r6, r7, pc}
    2588:	2f00      	cmp	r7, #0
    258a:	d115      	bne.n	25b8 <__aeabi_fmul+0xdc>
    258c:	2304      	movs	r3, #4
    258e:	4699      	mov	r9, r3
    2590:	3b03      	subs	r3, #3
    2592:	2600      	movs	r6, #0
    2594:	469a      	mov	sl, r3
    2596:	e7b9      	b.n	250c <__aeabi_fmul+0x30>
    2598:	20ff      	movs	r0, #255	; 0xff
    259a:	2202      	movs	r2, #2
    259c:	2d00      	cmp	r5, #0
    259e:	d0c5      	beq.n	252c <__aeabi_fmul+0x50>
    25a0:	2203      	movs	r2, #3
    25a2:	e7c3      	b.n	252c <__aeabi_fmul+0x50>
    25a4:	2d00      	cmp	r5, #0
    25a6:	d119      	bne.n	25dc <__aeabi_fmul+0x100>
    25a8:	2000      	movs	r0, #0
    25aa:	2201      	movs	r2, #1
    25ac:	e7be      	b.n	252c <__aeabi_fmul+0x50>
    25ae:	2401      	movs	r4, #1
    25b0:	22ff      	movs	r2, #255	; 0xff
    25b2:	400c      	ands	r4, r1
    25b4:	2000      	movs	r0, #0
    25b6:	e7db      	b.n	2570 <__aeabi_fmul+0x94>
    25b8:	0038      	movs	r0, r7
    25ba:	f002 f85d 	bl	4678 <__clzsi2>
    25be:	2676      	movs	r6, #118	; 0x76
    25c0:	1f43      	subs	r3, r0, #5
    25c2:	409f      	lsls	r7, r3
    25c4:	2300      	movs	r3, #0
    25c6:	4276      	negs	r6, r6
    25c8:	1a36      	subs	r6, r6, r0
    25ca:	4699      	mov	r9, r3
    25cc:	469a      	mov	sl, r3
    25ce:	e79d      	b.n	250c <__aeabi_fmul+0x30>
    25d0:	230c      	movs	r3, #12
    25d2:	4699      	mov	r9, r3
    25d4:	3b09      	subs	r3, #9
    25d6:	26ff      	movs	r6, #255	; 0xff
    25d8:	469a      	mov	sl, r3
    25da:	e797      	b.n	250c <__aeabi_fmul+0x30>
    25dc:	0028      	movs	r0, r5
    25de:	f002 f84b 	bl	4678 <__clzsi2>
    25e2:	1f43      	subs	r3, r0, #5
    25e4:	409d      	lsls	r5, r3
    25e6:	2376      	movs	r3, #118	; 0x76
    25e8:	425b      	negs	r3, r3
    25ea:	1a18      	subs	r0, r3, r0
    25ec:	2200      	movs	r2, #0
    25ee:	e79d      	b.n	252c <__aeabi_fmul+0x50>
    25f0:	2080      	movs	r0, #128	; 0x80
    25f2:	2400      	movs	r4, #0
    25f4:	03c0      	lsls	r0, r0, #15
    25f6:	22ff      	movs	r2, #255	; 0xff
    25f8:	e7ba      	b.n	2570 <__aeabi_fmul+0x94>
    25fa:	003d      	movs	r5, r7
    25fc:	4652      	mov	r2, sl
    25fe:	e7ab      	b.n	2558 <__aeabi_fmul+0x7c>
    2600:	003d      	movs	r5, r7
    2602:	0021      	movs	r1, r4
    2604:	4652      	mov	r2, sl
    2606:	e7a7      	b.n	2558 <__aeabi_fmul+0x7c>
    2608:	0c3b      	lsrs	r3, r7, #16
    260a:	469c      	mov	ip, r3
    260c:	042a      	lsls	r2, r5, #16
    260e:	0c12      	lsrs	r2, r2, #16
    2610:	0c2b      	lsrs	r3, r5, #16
    2612:	0014      	movs	r4, r2
    2614:	4660      	mov	r0, ip
    2616:	4665      	mov	r5, ip
    2618:	043f      	lsls	r7, r7, #16
    261a:	0c3f      	lsrs	r7, r7, #16
    261c:	437c      	muls	r4, r7
    261e:	4342      	muls	r2, r0
    2620:	435d      	muls	r5, r3
    2622:	437b      	muls	r3, r7
    2624:	0c27      	lsrs	r7, r4, #16
    2626:	189b      	adds	r3, r3, r2
    2628:	18ff      	adds	r7, r7, r3
    262a:	42ba      	cmp	r2, r7
    262c:	d903      	bls.n	2636 <__aeabi_fmul+0x15a>
    262e:	2380      	movs	r3, #128	; 0x80
    2630:	025b      	lsls	r3, r3, #9
    2632:	469c      	mov	ip, r3
    2634:	4465      	add	r5, ip
    2636:	0424      	lsls	r4, r4, #16
    2638:	043a      	lsls	r2, r7, #16
    263a:	0c24      	lsrs	r4, r4, #16
    263c:	1912      	adds	r2, r2, r4
    263e:	0193      	lsls	r3, r2, #6
    2640:	1e5c      	subs	r4, r3, #1
    2642:	41a3      	sbcs	r3, r4
    2644:	0c3f      	lsrs	r7, r7, #16
    2646:	0e92      	lsrs	r2, r2, #26
    2648:	197d      	adds	r5, r7, r5
    264a:	431a      	orrs	r2, r3
    264c:	01ad      	lsls	r5, r5, #6
    264e:	4315      	orrs	r5, r2
    2650:	012b      	lsls	r3, r5, #4
    2652:	d504      	bpl.n	265e <__aeabi_fmul+0x182>
    2654:	2301      	movs	r3, #1
    2656:	465e      	mov	r6, fp
    2658:	086a      	lsrs	r2, r5, #1
    265a:	401d      	ands	r5, r3
    265c:	4315      	orrs	r5, r2
    265e:	0032      	movs	r2, r6
    2660:	327f      	adds	r2, #127	; 0x7f
    2662:	2a00      	cmp	r2, #0
    2664:	dd25      	ble.n	26b2 <__aeabi_fmul+0x1d6>
    2666:	076b      	lsls	r3, r5, #29
    2668:	d004      	beq.n	2674 <__aeabi_fmul+0x198>
    266a:	230f      	movs	r3, #15
    266c:	402b      	ands	r3, r5
    266e:	2b04      	cmp	r3, #4
    2670:	d000      	beq.n	2674 <__aeabi_fmul+0x198>
    2672:	3504      	adds	r5, #4
    2674:	012b      	lsls	r3, r5, #4
    2676:	d503      	bpl.n	2680 <__aeabi_fmul+0x1a4>
    2678:	0032      	movs	r2, r6
    267a:	4b27      	ldr	r3, [pc, #156]	; (2718 <__aeabi_fmul+0x23c>)
    267c:	3280      	adds	r2, #128	; 0x80
    267e:	401d      	ands	r5, r3
    2680:	2afe      	cmp	r2, #254	; 0xfe
    2682:	dc94      	bgt.n	25ae <__aeabi_fmul+0xd2>
    2684:	2401      	movs	r4, #1
    2686:	01a8      	lsls	r0, r5, #6
    2688:	0a40      	lsrs	r0, r0, #9
    268a:	b2d2      	uxtb	r2, r2
    268c:	400c      	ands	r4, r1
    268e:	e76f      	b.n	2570 <__aeabi_fmul+0x94>
    2690:	2080      	movs	r0, #128	; 0x80
    2692:	03c0      	lsls	r0, r0, #15
    2694:	4207      	tst	r7, r0
    2696:	d007      	beq.n	26a8 <__aeabi_fmul+0x1cc>
    2698:	4205      	tst	r5, r0
    269a:	d105      	bne.n	26a8 <__aeabi_fmul+0x1cc>
    269c:	4328      	orrs	r0, r5
    269e:	0240      	lsls	r0, r0, #9
    26a0:	0a40      	lsrs	r0, r0, #9
    26a2:	4644      	mov	r4, r8
    26a4:	22ff      	movs	r2, #255	; 0xff
    26a6:	e763      	b.n	2570 <__aeabi_fmul+0x94>
    26a8:	4338      	orrs	r0, r7
    26aa:	0240      	lsls	r0, r0, #9
    26ac:	0a40      	lsrs	r0, r0, #9
    26ae:	22ff      	movs	r2, #255	; 0xff
    26b0:	e75e      	b.n	2570 <__aeabi_fmul+0x94>
    26b2:	2401      	movs	r4, #1
    26b4:	1aa3      	subs	r3, r4, r2
    26b6:	2b1b      	cmp	r3, #27
    26b8:	dd05      	ble.n	26c6 <__aeabi_fmul+0x1ea>
    26ba:	400c      	ands	r4, r1
    26bc:	2200      	movs	r2, #0
    26be:	2000      	movs	r0, #0
    26c0:	e756      	b.n	2570 <__aeabi_fmul+0x94>
    26c2:	465e      	mov	r6, fp
    26c4:	e7cb      	b.n	265e <__aeabi_fmul+0x182>
    26c6:	002a      	movs	r2, r5
    26c8:	2020      	movs	r0, #32
    26ca:	40da      	lsrs	r2, r3
    26cc:	1ac3      	subs	r3, r0, r3
    26ce:	409d      	lsls	r5, r3
    26d0:	002b      	movs	r3, r5
    26d2:	1e5d      	subs	r5, r3, #1
    26d4:	41ab      	sbcs	r3, r5
    26d6:	4313      	orrs	r3, r2
    26d8:	075a      	lsls	r2, r3, #29
    26da:	d004      	beq.n	26e6 <__aeabi_fmul+0x20a>
    26dc:	220f      	movs	r2, #15
    26de:	401a      	ands	r2, r3
    26e0:	2a04      	cmp	r2, #4
    26e2:	d000      	beq.n	26e6 <__aeabi_fmul+0x20a>
    26e4:	3304      	adds	r3, #4
    26e6:	015a      	lsls	r2, r3, #5
    26e8:	d504      	bpl.n	26f4 <__aeabi_fmul+0x218>
    26ea:	2401      	movs	r4, #1
    26ec:	2201      	movs	r2, #1
    26ee:	400c      	ands	r4, r1
    26f0:	2000      	movs	r0, #0
    26f2:	e73d      	b.n	2570 <__aeabi_fmul+0x94>
    26f4:	2401      	movs	r4, #1
    26f6:	019b      	lsls	r3, r3, #6
    26f8:	0a58      	lsrs	r0, r3, #9
    26fa:	400c      	ands	r4, r1
    26fc:	2200      	movs	r2, #0
    26fe:	e737      	b.n	2570 <__aeabi_fmul+0x94>
    2700:	2080      	movs	r0, #128	; 0x80
    2702:	2401      	movs	r4, #1
    2704:	03c0      	lsls	r0, r0, #15
    2706:	4328      	orrs	r0, r5
    2708:	0240      	lsls	r0, r0, #9
    270a:	0a40      	lsrs	r0, r0, #9
    270c:	400c      	ands	r4, r1
    270e:	22ff      	movs	r2, #255	; 0xff
    2710:	e72e      	b.n	2570 <__aeabi_fmul+0x94>
    2712:	46c0      	nop			; (mov r8, r8)
    2714:	00008fa8 	.word	0x00008fa8
    2718:	f7ffffff 	.word	0xf7ffffff

0000271c <__aeabi_fsub>:
    271c:	b5f0      	push	{r4, r5, r6, r7, lr}
    271e:	464f      	mov	r7, r9
    2720:	46d6      	mov	lr, sl
    2722:	4646      	mov	r6, r8
    2724:	0044      	lsls	r4, r0, #1
    2726:	b5c0      	push	{r6, r7, lr}
    2728:	0fc2      	lsrs	r2, r0, #31
    272a:	0247      	lsls	r7, r0, #9
    272c:	0248      	lsls	r0, r1, #9
    272e:	0a40      	lsrs	r0, r0, #9
    2730:	4684      	mov	ip, r0
    2732:	4666      	mov	r6, ip
    2734:	0a7b      	lsrs	r3, r7, #9
    2736:	0048      	lsls	r0, r1, #1
    2738:	0fc9      	lsrs	r1, r1, #31
    273a:	469a      	mov	sl, r3
    273c:	0e24      	lsrs	r4, r4, #24
    273e:	0015      	movs	r5, r2
    2740:	00db      	lsls	r3, r3, #3
    2742:	0e00      	lsrs	r0, r0, #24
    2744:	4689      	mov	r9, r1
    2746:	00f6      	lsls	r6, r6, #3
    2748:	28ff      	cmp	r0, #255	; 0xff
    274a:	d100      	bne.n	274e <__aeabi_fsub+0x32>
    274c:	e08f      	b.n	286e <__aeabi_fsub+0x152>
    274e:	2101      	movs	r1, #1
    2750:	464f      	mov	r7, r9
    2752:	404f      	eors	r7, r1
    2754:	0039      	movs	r1, r7
    2756:	4291      	cmp	r1, r2
    2758:	d066      	beq.n	2828 <__aeabi_fsub+0x10c>
    275a:	1a22      	subs	r2, r4, r0
    275c:	2a00      	cmp	r2, #0
    275e:	dc00      	bgt.n	2762 <__aeabi_fsub+0x46>
    2760:	e09d      	b.n	289e <__aeabi_fsub+0x182>
    2762:	2800      	cmp	r0, #0
    2764:	d13d      	bne.n	27e2 <__aeabi_fsub+0xc6>
    2766:	2e00      	cmp	r6, #0
    2768:	d100      	bne.n	276c <__aeabi_fsub+0x50>
    276a:	e08b      	b.n	2884 <__aeabi_fsub+0x168>
    276c:	1e51      	subs	r1, r2, #1
    276e:	2900      	cmp	r1, #0
    2770:	d000      	beq.n	2774 <__aeabi_fsub+0x58>
    2772:	e0b5      	b.n	28e0 <__aeabi_fsub+0x1c4>
    2774:	2401      	movs	r4, #1
    2776:	1b9b      	subs	r3, r3, r6
    2778:	015a      	lsls	r2, r3, #5
    277a:	d544      	bpl.n	2806 <__aeabi_fsub+0xea>
    277c:	019b      	lsls	r3, r3, #6
    277e:	099f      	lsrs	r7, r3, #6
    2780:	0038      	movs	r0, r7
    2782:	f001 ff79 	bl	4678 <__clzsi2>
    2786:	3805      	subs	r0, #5
    2788:	4087      	lsls	r7, r0
    278a:	4284      	cmp	r4, r0
    278c:	dd00      	ble.n	2790 <__aeabi_fsub+0x74>
    278e:	e096      	b.n	28be <__aeabi_fsub+0x1a2>
    2790:	1b04      	subs	r4, r0, r4
    2792:	003a      	movs	r2, r7
    2794:	2020      	movs	r0, #32
    2796:	3401      	adds	r4, #1
    2798:	40e2      	lsrs	r2, r4
    279a:	1b04      	subs	r4, r0, r4
    279c:	40a7      	lsls	r7, r4
    279e:	003b      	movs	r3, r7
    27a0:	1e5f      	subs	r7, r3, #1
    27a2:	41bb      	sbcs	r3, r7
    27a4:	2400      	movs	r4, #0
    27a6:	4313      	orrs	r3, r2
    27a8:	075a      	lsls	r2, r3, #29
    27aa:	d004      	beq.n	27b6 <__aeabi_fsub+0x9a>
    27ac:	220f      	movs	r2, #15
    27ae:	401a      	ands	r2, r3
    27b0:	2a04      	cmp	r2, #4
    27b2:	d000      	beq.n	27b6 <__aeabi_fsub+0x9a>
    27b4:	3304      	adds	r3, #4
    27b6:	015a      	lsls	r2, r3, #5
    27b8:	d527      	bpl.n	280a <__aeabi_fsub+0xee>
    27ba:	3401      	adds	r4, #1
    27bc:	2cff      	cmp	r4, #255	; 0xff
    27be:	d100      	bne.n	27c2 <__aeabi_fsub+0xa6>
    27c0:	e079      	b.n	28b6 <__aeabi_fsub+0x19a>
    27c2:	2201      	movs	r2, #1
    27c4:	019b      	lsls	r3, r3, #6
    27c6:	0a5b      	lsrs	r3, r3, #9
    27c8:	b2e4      	uxtb	r4, r4
    27ca:	402a      	ands	r2, r5
    27cc:	025b      	lsls	r3, r3, #9
    27ce:	05e4      	lsls	r4, r4, #23
    27d0:	0a58      	lsrs	r0, r3, #9
    27d2:	07d2      	lsls	r2, r2, #31
    27d4:	4320      	orrs	r0, r4
    27d6:	4310      	orrs	r0, r2
    27d8:	bc1c      	pop	{r2, r3, r4}
    27da:	4690      	mov	r8, r2
    27dc:	4699      	mov	r9, r3
    27de:	46a2      	mov	sl, r4
    27e0:	bdf0      	pop	{r4, r5, r6, r7, pc}
    27e2:	2cff      	cmp	r4, #255	; 0xff
    27e4:	d0e0      	beq.n	27a8 <__aeabi_fsub+0x8c>
    27e6:	2180      	movs	r1, #128	; 0x80
    27e8:	04c9      	lsls	r1, r1, #19
    27ea:	430e      	orrs	r6, r1
    27ec:	2a1b      	cmp	r2, #27
    27ee:	dc7b      	bgt.n	28e8 <__aeabi_fsub+0x1cc>
    27f0:	0031      	movs	r1, r6
    27f2:	2020      	movs	r0, #32
    27f4:	40d1      	lsrs	r1, r2
    27f6:	1a82      	subs	r2, r0, r2
    27f8:	4096      	lsls	r6, r2
    27fa:	1e72      	subs	r2, r6, #1
    27fc:	4196      	sbcs	r6, r2
    27fe:	430e      	orrs	r6, r1
    2800:	1b9b      	subs	r3, r3, r6
    2802:	015a      	lsls	r2, r3, #5
    2804:	d4ba      	bmi.n	277c <__aeabi_fsub+0x60>
    2806:	075a      	lsls	r2, r3, #29
    2808:	d1d0      	bne.n	27ac <__aeabi_fsub+0x90>
    280a:	2201      	movs	r2, #1
    280c:	08df      	lsrs	r7, r3, #3
    280e:	402a      	ands	r2, r5
    2810:	2cff      	cmp	r4, #255	; 0xff
    2812:	d133      	bne.n	287c <__aeabi_fsub+0x160>
    2814:	2f00      	cmp	r7, #0
    2816:	d100      	bne.n	281a <__aeabi_fsub+0xfe>
    2818:	e0a8      	b.n	296c <__aeabi_fsub+0x250>
    281a:	2380      	movs	r3, #128	; 0x80
    281c:	03db      	lsls	r3, r3, #15
    281e:	433b      	orrs	r3, r7
    2820:	025b      	lsls	r3, r3, #9
    2822:	0a5b      	lsrs	r3, r3, #9
    2824:	24ff      	movs	r4, #255	; 0xff
    2826:	e7d1      	b.n	27cc <__aeabi_fsub+0xb0>
    2828:	1a21      	subs	r1, r4, r0
    282a:	2900      	cmp	r1, #0
    282c:	dd4c      	ble.n	28c8 <__aeabi_fsub+0x1ac>
    282e:	2800      	cmp	r0, #0
    2830:	d02a      	beq.n	2888 <__aeabi_fsub+0x16c>
    2832:	2cff      	cmp	r4, #255	; 0xff
    2834:	d0b8      	beq.n	27a8 <__aeabi_fsub+0x8c>
    2836:	2080      	movs	r0, #128	; 0x80
    2838:	04c0      	lsls	r0, r0, #19
    283a:	4306      	orrs	r6, r0
    283c:	291b      	cmp	r1, #27
    283e:	dd00      	ble.n	2842 <__aeabi_fsub+0x126>
    2840:	e0af      	b.n	29a2 <__aeabi_fsub+0x286>
    2842:	0030      	movs	r0, r6
    2844:	2720      	movs	r7, #32
    2846:	40c8      	lsrs	r0, r1
    2848:	1a79      	subs	r1, r7, r1
    284a:	408e      	lsls	r6, r1
    284c:	1e71      	subs	r1, r6, #1
    284e:	418e      	sbcs	r6, r1
    2850:	4306      	orrs	r6, r0
    2852:	199b      	adds	r3, r3, r6
    2854:	0159      	lsls	r1, r3, #5
    2856:	d5d6      	bpl.n	2806 <__aeabi_fsub+0xea>
    2858:	3401      	adds	r4, #1
    285a:	2cff      	cmp	r4, #255	; 0xff
    285c:	d100      	bne.n	2860 <__aeabi_fsub+0x144>
    285e:	e085      	b.n	296c <__aeabi_fsub+0x250>
    2860:	2201      	movs	r2, #1
    2862:	497a      	ldr	r1, [pc, #488]	; (2a4c <__aeabi_fsub+0x330>)
    2864:	401a      	ands	r2, r3
    2866:	085b      	lsrs	r3, r3, #1
    2868:	400b      	ands	r3, r1
    286a:	4313      	orrs	r3, r2
    286c:	e79c      	b.n	27a8 <__aeabi_fsub+0x8c>
    286e:	2e00      	cmp	r6, #0
    2870:	d000      	beq.n	2874 <__aeabi_fsub+0x158>
    2872:	e770      	b.n	2756 <__aeabi_fsub+0x3a>
    2874:	e76b      	b.n	274e <__aeabi_fsub+0x32>
    2876:	1e3b      	subs	r3, r7, #0
    2878:	d1c5      	bne.n	2806 <__aeabi_fsub+0xea>
    287a:	2200      	movs	r2, #0
    287c:	027b      	lsls	r3, r7, #9
    287e:	0a5b      	lsrs	r3, r3, #9
    2880:	b2e4      	uxtb	r4, r4
    2882:	e7a3      	b.n	27cc <__aeabi_fsub+0xb0>
    2884:	0014      	movs	r4, r2
    2886:	e78f      	b.n	27a8 <__aeabi_fsub+0x8c>
    2888:	2e00      	cmp	r6, #0
    288a:	d04d      	beq.n	2928 <__aeabi_fsub+0x20c>
    288c:	1e48      	subs	r0, r1, #1
    288e:	2800      	cmp	r0, #0
    2890:	d157      	bne.n	2942 <__aeabi_fsub+0x226>
    2892:	199b      	adds	r3, r3, r6
    2894:	2401      	movs	r4, #1
    2896:	015a      	lsls	r2, r3, #5
    2898:	d5b5      	bpl.n	2806 <__aeabi_fsub+0xea>
    289a:	2402      	movs	r4, #2
    289c:	e7e0      	b.n	2860 <__aeabi_fsub+0x144>
    289e:	2a00      	cmp	r2, #0
    28a0:	d125      	bne.n	28ee <__aeabi_fsub+0x1d2>
    28a2:	1c62      	adds	r2, r4, #1
    28a4:	b2d2      	uxtb	r2, r2
    28a6:	2a01      	cmp	r2, #1
    28a8:	dd72      	ble.n	2990 <__aeabi_fsub+0x274>
    28aa:	1b9f      	subs	r7, r3, r6
    28ac:	017a      	lsls	r2, r7, #5
    28ae:	d535      	bpl.n	291c <__aeabi_fsub+0x200>
    28b0:	1af7      	subs	r7, r6, r3
    28b2:	000d      	movs	r5, r1
    28b4:	e764      	b.n	2780 <__aeabi_fsub+0x64>
    28b6:	2201      	movs	r2, #1
    28b8:	2300      	movs	r3, #0
    28ba:	402a      	ands	r2, r5
    28bc:	e786      	b.n	27cc <__aeabi_fsub+0xb0>
    28be:	003b      	movs	r3, r7
    28c0:	4a63      	ldr	r2, [pc, #396]	; (2a50 <__aeabi_fsub+0x334>)
    28c2:	1a24      	subs	r4, r4, r0
    28c4:	4013      	ands	r3, r2
    28c6:	e76f      	b.n	27a8 <__aeabi_fsub+0x8c>
    28c8:	2900      	cmp	r1, #0
    28ca:	d16c      	bne.n	29a6 <__aeabi_fsub+0x28a>
    28cc:	1c61      	adds	r1, r4, #1
    28ce:	b2c8      	uxtb	r0, r1
    28d0:	2801      	cmp	r0, #1
    28d2:	dd4e      	ble.n	2972 <__aeabi_fsub+0x256>
    28d4:	29ff      	cmp	r1, #255	; 0xff
    28d6:	d049      	beq.n	296c <__aeabi_fsub+0x250>
    28d8:	199b      	adds	r3, r3, r6
    28da:	085b      	lsrs	r3, r3, #1
    28dc:	000c      	movs	r4, r1
    28de:	e763      	b.n	27a8 <__aeabi_fsub+0x8c>
    28e0:	2aff      	cmp	r2, #255	; 0xff
    28e2:	d041      	beq.n	2968 <__aeabi_fsub+0x24c>
    28e4:	000a      	movs	r2, r1
    28e6:	e781      	b.n	27ec <__aeabi_fsub+0xd0>
    28e8:	2601      	movs	r6, #1
    28ea:	1b9b      	subs	r3, r3, r6
    28ec:	e789      	b.n	2802 <__aeabi_fsub+0xe6>
    28ee:	2c00      	cmp	r4, #0
    28f0:	d01c      	beq.n	292c <__aeabi_fsub+0x210>
    28f2:	28ff      	cmp	r0, #255	; 0xff
    28f4:	d021      	beq.n	293a <__aeabi_fsub+0x21e>
    28f6:	2480      	movs	r4, #128	; 0x80
    28f8:	04e4      	lsls	r4, r4, #19
    28fa:	4252      	negs	r2, r2
    28fc:	4323      	orrs	r3, r4
    28fe:	2a1b      	cmp	r2, #27
    2900:	dd00      	ble.n	2904 <__aeabi_fsub+0x1e8>
    2902:	e096      	b.n	2a32 <__aeabi_fsub+0x316>
    2904:	001c      	movs	r4, r3
    2906:	2520      	movs	r5, #32
    2908:	40d4      	lsrs	r4, r2
    290a:	1aaa      	subs	r2, r5, r2
    290c:	4093      	lsls	r3, r2
    290e:	1e5a      	subs	r2, r3, #1
    2910:	4193      	sbcs	r3, r2
    2912:	4323      	orrs	r3, r4
    2914:	1af3      	subs	r3, r6, r3
    2916:	0004      	movs	r4, r0
    2918:	000d      	movs	r5, r1
    291a:	e72d      	b.n	2778 <__aeabi_fsub+0x5c>
    291c:	2f00      	cmp	r7, #0
    291e:	d000      	beq.n	2922 <__aeabi_fsub+0x206>
    2920:	e72e      	b.n	2780 <__aeabi_fsub+0x64>
    2922:	2200      	movs	r2, #0
    2924:	2400      	movs	r4, #0
    2926:	e7a9      	b.n	287c <__aeabi_fsub+0x160>
    2928:	000c      	movs	r4, r1
    292a:	e73d      	b.n	27a8 <__aeabi_fsub+0x8c>
    292c:	2b00      	cmp	r3, #0
    292e:	d058      	beq.n	29e2 <__aeabi_fsub+0x2c6>
    2930:	43d2      	mvns	r2, r2
    2932:	2a00      	cmp	r2, #0
    2934:	d0ee      	beq.n	2914 <__aeabi_fsub+0x1f8>
    2936:	28ff      	cmp	r0, #255	; 0xff
    2938:	d1e1      	bne.n	28fe <__aeabi_fsub+0x1e2>
    293a:	0033      	movs	r3, r6
    293c:	24ff      	movs	r4, #255	; 0xff
    293e:	000d      	movs	r5, r1
    2940:	e732      	b.n	27a8 <__aeabi_fsub+0x8c>
    2942:	29ff      	cmp	r1, #255	; 0xff
    2944:	d010      	beq.n	2968 <__aeabi_fsub+0x24c>
    2946:	0001      	movs	r1, r0
    2948:	e778      	b.n	283c <__aeabi_fsub+0x120>
    294a:	2b00      	cmp	r3, #0
    294c:	d06e      	beq.n	2a2c <__aeabi_fsub+0x310>
    294e:	24ff      	movs	r4, #255	; 0xff
    2950:	2e00      	cmp	r6, #0
    2952:	d100      	bne.n	2956 <__aeabi_fsub+0x23a>
    2954:	e728      	b.n	27a8 <__aeabi_fsub+0x8c>
    2956:	2280      	movs	r2, #128	; 0x80
    2958:	4651      	mov	r1, sl
    295a:	03d2      	lsls	r2, r2, #15
    295c:	4211      	tst	r1, r2
    295e:	d003      	beq.n	2968 <__aeabi_fsub+0x24c>
    2960:	4661      	mov	r1, ip
    2962:	4211      	tst	r1, r2
    2964:	d100      	bne.n	2968 <__aeabi_fsub+0x24c>
    2966:	0033      	movs	r3, r6
    2968:	24ff      	movs	r4, #255	; 0xff
    296a:	e71d      	b.n	27a8 <__aeabi_fsub+0x8c>
    296c:	24ff      	movs	r4, #255	; 0xff
    296e:	2300      	movs	r3, #0
    2970:	e72c      	b.n	27cc <__aeabi_fsub+0xb0>
    2972:	2c00      	cmp	r4, #0
    2974:	d1e9      	bne.n	294a <__aeabi_fsub+0x22e>
    2976:	2b00      	cmp	r3, #0
    2978:	d063      	beq.n	2a42 <__aeabi_fsub+0x326>
    297a:	2e00      	cmp	r6, #0
    297c:	d100      	bne.n	2980 <__aeabi_fsub+0x264>
    297e:	e713      	b.n	27a8 <__aeabi_fsub+0x8c>
    2980:	199b      	adds	r3, r3, r6
    2982:	015a      	lsls	r2, r3, #5
    2984:	d400      	bmi.n	2988 <__aeabi_fsub+0x26c>
    2986:	e73e      	b.n	2806 <__aeabi_fsub+0xea>
    2988:	4a31      	ldr	r2, [pc, #196]	; (2a50 <__aeabi_fsub+0x334>)
    298a:	000c      	movs	r4, r1
    298c:	4013      	ands	r3, r2
    298e:	e70b      	b.n	27a8 <__aeabi_fsub+0x8c>
    2990:	2c00      	cmp	r4, #0
    2992:	d11e      	bne.n	29d2 <__aeabi_fsub+0x2b6>
    2994:	2b00      	cmp	r3, #0
    2996:	d12f      	bne.n	29f8 <__aeabi_fsub+0x2dc>
    2998:	2e00      	cmp	r6, #0
    299a:	d04f      	beq.n	2a3c <__aeabi_fsub+0x320>
    299c:	0033      	movs	r3, r6
    299e:	000d      	movs	r5, r1
    29a0:	e702      	b.n	27a8 <__aeabi_fsub+0x8c>
    29a2:	2601      	movs	r6, #1
    29a4:	e755      	b.n	2852 <__aeabi_fsub+0x136>
    29a6:	2c00      	cmp	r4, #0
    29a8:	d11f      	bne.n	29ea <__aeabi_fsub+0x2ce>
    29aa:	2b00      	cmp	r3, #0
    29ac:	d043      	beq.n	2a36 <__aeabi_fsub+0x31a>
    29ae:	43c9      	mvns	r1, r1
    29b0:	2900      	cmp	r1, #0
    29b2:	d00b      	beq.n	29cc <__aeabi_fsub+0x2b0>
    29b4:	28ff      	cmp	r0, #255	; 0xff
    29b6:	d039      	beq.n	2a2c <__aeabi_fsub+0x310>
    29b8:	291b      	cmp	r1, #27
    29ba:	dc44      	bgt.n	2a46 <__aeabi_fsub+0x32a>
    29bc:	001c      	movs	r4, r3
    29be:	2720      	movs	r7, #32
    29c0:	40cc      	lsrs	r4, r1
    29c2:	1a79      	subs	r1, r7, r1
    29c4:	408b      	lsls	r3, r1
    29c6:	1e59      	subs	r1, r3, #1
    29c8:	418b      	sbcs	r3, r1
    29ca:	4323      	orrs	r3, r4
    29cc:	199b      	adds	r3, r3, r6
    29ce:	0004      	movs	r4, r0
    29d0:	e740      	b.n	2854 <__aeabi_fsub+0x138>
    29d2:	2b00      	cmp	r3, #0
    29d4:	d11a      	bne.n	2a0c <__aeabi_fsub+0x2f0>
    29d6:	2e00      	cmp	r6, #0
    29d8:	d124      	bne.n	2a24 <__aeabi_fsub+0x308>
    29da:	2780      	movs	r7, #128	; 0x80
    29dc:	2200      	movs	r2, #0
    29de:	03ff      	lsls	r7, r7, #15
    29e0:	e71b      	b.n	281a <__aeabi_fsub+0xfe>
    29e2:	0033      	movs	r3, r6
    29e4:	0004      	movs	r4, r0
    29e6:	000d      	movs	r5, r1
    29e8:	e6de      	b.n	27a8 <__aeabi_fsub+0x8c>
    29ea:	28ff      	cmp	r0, #255	; 0xff
    29ec:	d01e      	beq.n	2a2c <__aeabi_fsub+0x310>
    29ee:	2480      	movs	r4, #128	; 0x80
    29f0:	04e4      	lsls	r4, r4, #19
    29f2:	4249      	negs	r1, r1
    29f4:	4323      	orrs	r3, r4
    29f6:	e7df      	b.n	29b8 <__aeabi_fsub+0x29c>
    29f8:	2e00      	cmp	r6, #0
    29fa:	d100      	bne.n	29fe <__aeabi_fsub+0x2e2>
    29fc:	e6d4      	b.n	27a8 <__aeabi_fsub+0x8c>
    29fe:	1b9f      	subs	r7, r3, r6
    2a00:	017a      	lsls	r2, r7, #5
    2a02:	d400      	bmi.n	2a06 <__aeabi_fsub+0x2ea>
    2a04:	e737      	b.n	2876 <__aeabi_fsub+0x15a>
    2a06:	1af3      	subs	r3, r6, r3
    2a08:	000d      	movs	r5, r1
    2a0a:	e6cd      	b.n	27a8 <__aeabi_fsub+0x8c>
    2a0c:	24ff      	movs	r4, #255	; 0xff
    2a0e:	2e00      	cmp	r6, #0
    2a10:	d100      	bne.n	2a14 <__aeabi_fsub+0x2f8>
    2a12:	e6c9      	b.n	27a8 <__aeabi_fsub+0x8c>
    2a14:	2280      	movs	r2, #128	; 0x80
    2a16:	4650      	mov	r0, sl
    2a18:	03d2      	lsls	r2, r2, #15
    2a1a:	4210      	tst	r0, r2
    2a1c:	d0a4      	beq.n	2968 <__aeabi_fsub+0x24c>
    2a1e:	4660      	mov	r0, ip
    2a20:	4210      	tst	r0, r2
    2a22:	d1a1      	bne.n	2968 <__aeabi_fsub+0x24c>
    2a24:	0033      	movs	r3, r6
    2a26:	000d      	movs	r5, r1
    2a28:	24ff      	movs	r4, #255	; 0xff
    2a2a:	e6bd      	b.n	27a8 <__aeabi_fsub+0x8c>
    2a2c:	0033      	movs	r3, r6
    2a2e:	24ff      	movs	r4, #255	; 0xff
    2a30:	e6ba      	b.n	27a8 <__aeabi_fsub+0x8c>
    2a32:	2301      	movs	r3, #1
    2a34:	e76e      	b.n	2914 <__aeabi_fsub+0x1f8>
    2a36:	0033      	movs	r3, r6
    2a38:	0004      	movs	r4, r0
    2a3a:	e6b5      	b.n	27a8 <__aeabi_fsub+0x8c>
    2a3c:	2700      	movs	r7, #0
    2a3e:	2200      	movs	r2, #0
    2a40:	e71c      	b.n	287c <__aeabi_fsub+0x160>
    2a42:	0033      	movs	r3, r6
    2a44:	e6b0      	b.n	27a8 <__aeabi_fsub+0x8c>
    2a46:	2301      	movs	r3, #1
    2a48:	e7c0      	b.n	29cc <__aeabi_fsub+0x2b0>
    2a4a:	46c0      	nop			; (mov r8, r8)
    2a4c:	7dffffff 	.word	0x7dffffff
    2a50:	fbffffff 	.word	0xfbffffff

00002a54 <__aeabi_f2iz>:
    2a54:	0241      	lsls	r1, r0, #9
    2a56:	0043      	lsls	r3, r0, #1
    2a58:	0fc2      	lsrs	r2, r0, #31
    2a5a:	0a49      	lsrs	r1, r1, #9
    2a5c:	0e1b      	lsrs	r3, r3, #24
    2a5e:	2000      	movs	r0, #0
    2a60:	2b7e      	cmp	r3, #126	; 0x7e
    2a62:	dd0d      	ble.n	2a80 <__aeabi_f2iz+0x2c>
    2a64:	2b9d      	cmp	r3, #157	; 0x9d
    2a66:	dc0c      	bgt.n	2a82 <__aeabi_f2iz+0x2e>
    2a68:	2080      	movs	r0, #128	; 0x80
    2a6a:	0400      	lsls	r0, r0, #16
    2a6c:	4301      	orrs	r1, r0
    2a6e:	2b95      	cmp	r3, #149	; 0x95
    2a70:	dc0a      	bgt.n	2a88 <__aeabi_f2iz+0x34>
    2a72:	2096      	movs	r0, #150	; 0x96
    2a74:	1ac3      	subs	r3, r0, r3
    2a76:	40d9      	lsrs	r1, r3
    2a78:	4248      	negs	r0, r1
    2a7a:	2a00      	cmp	r2, #0
    2a7c:	d100      	bne.n	2a80 <__aeabi_f2iz+0x2c>
    2a7e:	0008      	movs	r0, r1
    2a80:	4770      	bx	lr
    2a82:	4b03      	ldr	r3, [pc, #12]	; (2a90 <__aeabi_f2iz+0x3c>)
    2a84:	18d0      	adds	r0, r2, r3
    2a86:	e7fb      	b.n	2a80 <__aeabi_f2iz+0x2c>
    2a88:	3b96      	subs	r3, #150	; 0x96
    2a8a:	4099      	lsls	r1, r3
    2a8c:	e7f4      	b.n	2a78 <__aeabi_f2iz+0x24>
    2a8e:	46c0      	nop			; (mov r8, r8)
    2a90:	7fffffff 	.word	0x7fffffff

00002a94 <__aeabi_i2f>:
    2a94:	b570      	push	{r4, r5, r6, lr}
    2a96:	2800      	cmp	r0, #0
    2a98:	d030      	beq.n	2afc <__aeabi_i2f+0x68>
    2a9a:	17c3      	asrs	r3, r0, #31
    2a9c:	18c4      	adds	r4, r0, r3
    2a9e:	405c      	eors	r4, r3
    2aa0:	0fc5      	lsrs	r5, r0, #31
    2aa2:	0020      	movs	r0, r4
    2aa4:	f001 fde8 	bl	4678 <__clzsi2>
    2aa8:	239e      	movs	r3, #158	; 0x9e
    2aaa:	1a1b      	subs	r3, r3, r0
    2aac:	2b96      	cmp	r3, #150	; 0x96
    2aae:	dc0d      	bgt.n	2acc <__aeabi_i2f+0x38>
    2ab0:	2296      	movs	r2, #150	; 0x96
    2ab2:	1ad2      	subs	r2, r2, r3
    2ab4:	4094      	lsls	r4, r2
    2ab6:	002a      	movs	r2, r5
    2ab8:	0264      	lsls	r4, r4, #9
    2aba:	0a64      	lsrs	r4, r4, #9
    2abc:	b2db      	uxtb	r3, r3
    2abe:	0264      	lsls	r4, r4, #9
    2ac0:	05db      	lsls	r3, r3, #23
    2ac2:	0a60      	lsrs	r0, r4, #9
    2ac4:	07d2      	lsls	r2, r2, #31
    2ac6:	4318      	orrs	r0, r3
    2ac8:	4310      	orrs	r0, r2
    2aca:	bd70      	pop	{r4, r5, r6, pc}
    2acc:	2b99      	cmp	r3, #153	; 0x99
    2ace:	dc19      	bgt.n	2b04 <__aeabi_i2f+0x70>
    2ad0:	2299      	movs	r2, #153	; 0x99
    2ad2:	1ad2      	subs	r2, r2, r3
    2ad4:	2a00      	cmp	r2, #0
    2ad6:	dd29      	ble.n	2b2c <__aeabi_i2f+0x98>
    2ad8:	4094      	lsls	r4, r2
    2ada:	0022      	movs	r2, r4
    2adc:	4c14      	ldr	r4, [pc, #80]	; (2b30 <__aeabi_i2f+0x9c>)
    2ade:	4014      	ands	r4, r2
    2ae0:	0751      	lsls	r1, r2, #29
    2ae2:	d004      	beq.n	2aee <__aeabi_i2f+0x5a>
    2ae4:	210f      	movs	r1, #15
    2ae6:	400a      	ands	r2, r1
    2ae8:	2a04      	cmp	r2, #4
    2aea:	d000      	beq.n	2aee <__aeabi_i2f+0x5a>
    2aec:	3404      	adds	r4, #4
    2aee:	0162      	lsls	r2, r4, #5
    2af0:	d413      	bmi.n	2b1a <__aeabi_i2f+0x86>
    2af2:	01a4      	lsls	r4, r4, #6
    2af4:	0a64      	lsrs	r4, r4, #9
    2af6:	b2db      	uxtb	r3, r3
    2af8:	002a      	movs	r2, r5
    2afa:	e7e0      	b.n	2abe <__aeabi_i2f+0x2a>
    2afc:	2200      	movs	r2, #0
    2afe:	2300      	movs	r3, #0
    2b00:	2400      	movs	r4, #0
    2b02:	e7dc      	b.n	2abe <__aeabi_i2f+0x2a>
    2b04:	2205      	movs	r2, #5
    2b06:	0021      	movs	r1, r4
    2b08:	1a12      	subs	r2, r2, r0
    2b0a:	40d1      	lsrs	r1, r2
    2b0c:	22b9      	movs	r2, #185	; 0xb9
    2b0e:	1ad2      	subs	r2, r2, r3
    2b10:	4094      	lsls	r4, r2
    2b12:	1e62      	subs	r2, r4, #1
    2b14:	4194      	sbcs	r4, r2
    2b16:	430c      	orrs	r4, r1
    2b18:	e7da      	b.n	2ad0 <__aeabi_i2f+0x3c>
    2b1a:	4b05      	ldr	r3, [pc, #20]	; (2b30 <__aeabi_i2f+0x9c>)
    2b1c:	002a      	movs	r2, r5
    2b1e:	401c      	ands	r4, r3
    2b20:	239f      	movs	r3, #159	; 0x9f
    2b22:	01a4      	lsls	r4, r4, #6
    2b24:	1a1b      	subs	r3, r3, r0
    2b26:	0a64      	lsrs	r4, r4, #9
    2b28:	b2db      	uxtb	r3, r3
    2b2a:	e7c8      	b.n	2abe <__aeabi_i2f+0x2a>
    2b2c:	0022      	movs	r2, r4
    2b2e:	e7d5      	b.n	2adc <__aeabi_i2f+0x48>
    2b30:	fbffffff 	.word	0xfbffffff

00002b34 <__aeabi_dadd>:
    2b34:	b5f8      	push	{r3, r4, r5, r6, r7, lr}
    2b36:	4645      	mov	r5, r8
    2b38:	46de      	mov	lr, fp
    2b3a:	4657      	mov	r7, sl
    2b3c:	464e      	mov	r6, r9
    2b3e:	030c      	lsls	r4, r1, #12
    2b40:	b5e0      	push	{r5, r6, r7, lr}
    2b42:	004e      	lsls	r6, r1, #1
    2b44:	0fc9      	lsrs	r1, r1, #31
    2b46:	4688      	mov	r8, r1
    2b48:	000d      	movs	r5, r1
    2b4a:	0a61      	lsrs	r1, r4, #9
    2b4c:	0f44      	lsrs	r4, r0, #29
    2b4e:	430c      	orrs	r4, r1
    2b50:	00c7      	lsls	r7, r0, #3
    2b52:	0319      	lsls	r1, r3, #12
    2b54:	0058      	lsls	r0, r3, #1
    2b56:	0fdb      	lsrs	r3, r3, #31
    2b58:	469b      	mov	fp, r3
    2b5a:	0a4b      	lsrs	r3, r1, #9
    2b5c:	0f51      	lsrs	r1, r2, #29
    2b5e:	430b      	orrs	r3, r1
    2b60:	0d76      	lsrs	r6, r6, #21
    2b62:	0d40      	lsrs	r0, r0, #21
    2b64:	0019      	movs	r1, r3
    2b66:	00d2      	lsls	r2, r2, #3
    2b68:	45d8      	cmp	r8, fp
    2b6a:	d100      	bne.n	2b6e <__aeabi_dadd+0x3a>
    2b6c:	e0ae      	b.n	2ccc <__aeabi_dadd+0x198>
    2b6e:	1a35      	subs	r5, r6, r0
    2b70:	2d00      	cmp	r5, #0
    2b72:	dc00      	bgt.n	2b76 <__aeabi_dadd+0x42>
    2b74:	e0f6      	b.n	2d64 <__aeabi_dadd+0x230>
    2b76:	2800      	cmp	r0, #0
    2b78:	d10f      	bne.n	2b9a <__aeabi_dadd+0x66>
    2b7a:	4313      	orrs	r3, r2
    2b7c:	d100      	bne.n	2b80 <__aeabi_dadd+0x4c>
    2b7e:	e0db      	b.n	2d38 <__aeabi_dadd+0x204>
    2b80:	1e6b      	subs	r3, r5, #1
    2b82:	2b00      	cmp	r3, #0
    2b84:	d000      	beq.n	2b88 <__aeabi_dadd+0x54>
    2b86:	e137      	b.n	2df8 <__aeabi_dadd+0x2c4>
    2b88:	1aba      	subs	r2, r7, r2
    2b8a:	4297      	cmp	r7, r2
    2b8c:	41bf      	sbcs	r7, r7
    2b8e:	1a64      	subs	r4, r4, r1
    2b90:	427f      	negs	r7, r7
    2b92:	1be4      	subs	r4, r4, r7
    2b94:	2601      	movs	r6, #1
    2b96:	0017      	movs	r7, r2
    2b98:	e024      	b.n	2be4 <__aeabi_dadd+0xb0>
    2b9a:	4bc6      	ldr	r3, [pc, #792]	; (2eb4 <__aeabi_dadd+0x380>)
    2b9c:	429e      	cmp	r6, r3
    2b9e:	d04d      	beq.n	2c3c <__aeabi_dadd+0x108>
    2ba0:	2380      	movs	r3, #128	; 0x80
    2ba2:	041b      	lsls	r3, r3, #16
    2ba4:	4319      	orrs	r1, r3
    2ba6:	2d38      	cmp	r5, #56	; 0x38
    2ba8:	dd00      	ble.n	2bac <__aeabi_dadd+0x78>
    2baa:	e107      	b.n	2dbc <__aeabi_dadd+0x288>
    2bac:	2d1f      	cmp	r5, #31
    2bae:	dd00      	ble.n	2bb2 <__aeabi_dadd+0x7e>
    2bb0:	e138      	b.n	2e24 <__aeabi_dadd+0x2f0>
    2bb2:	2020      	movs	r0, #32
    2bb4:	1b43      	subs	r3, r0, r5
    2bb6:	469a      	mov	sl, r3
    2bb8:	000b      	movs	r3, r1
    2bba:	4650      	mov	r0, sl
    2bbc:	4083      	lsls	r3, r0
    2bbe:	4699      	mov	r9, r3
    2bc0:	0013      	movs	r3, r2
    2bc2:	4648      	mov	r0, r9
    2bc4:	40eb      	lsrs	r3, r5
    2bc6:	4318      	orrs	r0, r3
    2bc8:	0003      	movs	r3, r0
    2bca:	4650      	mov	r0, sl
    2bcc:	4082      	lsls	r2, r0
    2bce:	1e50      	subs	r0, r2, #1
    2bd0:	4182      	sbcs	r2, r0
    2bd2:	40e9      	lsrs	r1, r5
    2bd4:	431a      	orrs	r2, r3
    2bd6:	1aba      	subs	r2, r7, r2
    2bd8:	1a61      	subs	r1, r4, r1
    2bda:	4297      	cmp	r7, r2
    2bdc:	41a4      	sbcs	r4, r4
    2bde:	0017      	movs	r7, r2
    2be0:	4264      	negs	r4, r4
    2be2:	1b0c      	subs	r4, r1, r4
    2be4:	0223      	lsls	r3, r4, #8
    2be6:	d562      	bpl.n	2cae <__aeabi_dadd+0x17a>
    2be8:	0264      	lsls	r4, r4, #9
    2bea:	0a65      	lsrs	r5, r4, #9
    2bec:	2d00      	cmp	r5, #0
    2bee:	d100      	bne.n	2bf2 <__aeabi_dadd+0xbe>
    2bf0:	e0df      	b.n	2db2 <__aeabi_dadd+0x27e>
    2bf2:	0028      	movs	r0, r5
    2bf4:	f001 fd40 	bl	4678 <__clzsi2>
    2bf8:	0003      	movs	r3, r0
    2bfa:	3b08      	subs	r3, #8
    2bfc:	2b1f      	cmp	r3, #31
    2bfe:	dd00      	ble.n	2c02 <__aeabi_dadd+0xce>
    2c00:	e0d2      	b.n	2da8 <__aeabi_dadd+0x274>
    2c02:	2220      	movs	r2, #32
    2c04:	003c      	movs	r4, r7
    2c06:	1ad2      	subs	r2, r2, r3
    2c08:	409d      	lsls	r5, r3
    2c0a:	40d4      	lsrs	r4, r2
    2c0c:	409f      	lsls	r7, r3
    2c0e:	4325      	orrs	r5, r4
    2c10:	429e      	cmp	r6, r3
    2c12:	dd00      	ble.n	2c16 <__aeabi_dadd+0xe2>
    2c14:	e0c4      	b.n	2da0 <__aeabi_dadd+0x26c>
    2c16:	1b9e      	subs	r6, r3, r6
    2c18:	1c73      	adds	r3, r6, #1
    2c1a:	2b1f      	cmp	r3, #31
    2c1c:	dd00      	ble.n	2c20 <__aeabi_dadd+0xec>
    2c1e:	e0f1      	b.n	2e04 <__aeabi_dadd+0x2d0>
    2c20:	2220      	movs	r2, #32
    2c22:	0038      	movs	r0, r7
    2c24:	0029      	movs	r1, r5
    2c26:	1ad2      	subs	r2, r2, r3
    2c28:	40d8      	lsrs	r0, r3
    2c2a:	4091      	lsls	r1, r2
    2c2c:	4097      	lsls	r7, r2
    2c2e:	002c      	movs	r4, r5
    2c30:	4301      	orrs	r1, r0
    2c32:	1e78      	subs	r0, r7, #1
    2c34:	4187      	sbcs	r7, r0
    2c36:	40dc      	lsrs	r4, r3
    2c38:	2600      	movs	r6, #0
    2c3a:	430f      	orrs	r7, r1
    2c3c:	077b      	lsls	r3, r7, #29
    2c3e:	d009      	beq.n	2c54 <__aeabi_dadd+0x120>
    2c40:	230f      	movs	r3, #15
    2c42:	403b      	ands	r3, r7
    2c44:	2b04      	cmp	r3, #4
    2c46:	d005      	beq.n	2c54 <__aeabi_dadd+0x120>
    2c48:	1d3b      	adds	r3, r7, #4
    2c4a:	42bb      	cmp	r3, r7
    2c4c:	41bf      	sbcs	r7, r7
    2c4e:	427f      	negs	r7, r7
    2c50:	19e4      	adds	r4, r4, r7
    2c52:	001f      	movs	r7, r3
    2c54:	0223      	lsls	r3, r4, #8
    2c56:	d52c      	bpl.n	2cb2 <__aeabi_dadd+0x17e>
    2c58:	4b96      	ldr	r3, [pc, #600]	; (2eb4 <__aeabi_dadd+0x380>)
    2c5a:	3601      	adds	r6, #1
    2c5c:	429e      	cmp	r6, r3
    2c5e:	d100      	bne.n	2c62 <__aeabi_dadd+0x12e>
    2c60:	e09a      	b.n	2d98 <__aeabi_dadd+0x264>
    2c62:	4645      	mov	r5, r8
    2c64:	4b94      	ldr	r3, [pc, #592]	; (2eb8 <__aeabi_dadd+0x384>)
    2c66:	08ff      	lsrs	r7, r7, #3
    2c68:	401c      	ands	r4, r3
    2c6a:	0760      	lsls	r0, r4, #29
    2c6c:	0576      	lsls	r6, r6, #21
    2c6e:	0264      	lsls	r4, r4, #9
    2c70:	4307      	orrs	r7, r0
    2c72:	0b24      	lsrs	r4, r4, #12
    2c74:	0d76      	lsrs	r6, r6, #21
    2c76:	2100      	movs	r1, #0
    2c78:	0324      	lsls	r4, r4, #12
    2c7a:	0b23      	lsrs	r3, r4, #12
    2c7c:	0d0c      	lsrs	r4, r1, #20
    2c7e:	4a8f      	ldr	r2, [pc, #572]	; (2ebc <__aeabi_dadd+0x388>)
    2c80:	0524      	lsls	r4, r4, #20
    2c82:	431c      	orrs	r4, r3
    2c84:	4014      	ands	r4, r2
    2c86:	0533      	lsls	r3, r6, #20
    2c88:	4323      	orrs	r3, r4
    2c8a:	005b      	lsls	r3, r3, #1
    2c8c:	07ed      	lsls	r5, r5, #31
    2c8e:	085b      	lsrs	r3, r3, #1
    2c90:	432b      	orrs	r3, r5
    2c92:	0038      	movs	r0, r7
    2c94:	0019      	movs	r1, r3
    2c96:	bc3c      	pop	{r2, r3, r4, r5}
    2c98:	4690      	mov	r8, r2
    2c9a:	4699      	mov	r9, r3
    2c9c:	46a2      	mov	sl, r4
    2c9e:	46ab      	mov	fp, r5
    2ca0:	bdf8      	pop	{r3, r4, r5, r6, r7, pc}
    2ca2:	4664      	mov	r4, ip
    2ca4:	4304      	orrs	r4, r0
    2ca6:	d100      	bne.n	2caa <__aeabi_dadd+0x176>
    2ca8:	e211      	b.n	30ce <__aeabi_dadd+0x59a>
    2caa:	0004      	movs	r4, r0
    2cac:	4667      	mov	r7, ip
    2cae:	077b      	lsls	r3, r7, #29
    2cb0:	d1c6      	bne.n	2c40 <__aeabi_dadd+0x10c>
    2cb2:	4645      	mov	r5, r8
    2cb4:	0760      	lsls	r0, r4, #29
    2cb6:	08ff      	lsrs	r7, r7, #3
    2cb8:	4307      	orrs	r7, r0
    2cba:	08e4      	lsrs	r4, r4, #3
    2cbc:	4b7d      	ldr	r3, [pc, #500]	; (2eb4 <__aeabi_dadd+0x380>)
    2cbe:	429e      	cmp	r6, r3
    2cc0:	d030      	beq.n	2d24 <__aeabi_dadd+0x1f0>
    2cc2:	0324      	lsls	r4, r4, #12
    2cc4:	0576      	lsls	r6, r6, #21
    2cc6:	0b24      	lsrs	r4, r4, #12
    2cc8:	0d76      	lsrs	r6, r6, #21
    2cca:	e7d4      	b.n	2c76 <__aeabi_dadd+0x142>
    2ccc:	1a33      	subs	r3, r6, r0
    2cce:	469a      	mov	sl, r3
    2cd0:	2b00      	cmp	r3, #0
    2cd2:	dd78      	ble.n	2dc6 <__aeabi_dadd+0x292>
    2cd4:	2800      	cmp	r0, #0
    2cd6:	d031      	beq.n	2d3c <__aeabi_dadd+0x208>
    2cd8:	4876      	ldr	r0, [pc, #472]	; (2eb4 <__aeabi_dadd+0x380>)
    2cda:	4286      	cmp	r6, r0
    2cdc:	d0ae      	beq.n	2c3c <__aeabi_dadd+0x108>
    2cde:	2080      	movs	r0, #128	; 0x80
    2ce0:	0400      	lsls	r0, r0, #16
    2ce2:	4301      	orrs	r1, r0
    2ce4:	4653      	mov	r3, sl
    2ce6:	2b38      	cmp	r3, #56	; 0x38
    2ce8:	dc00      	bgt.n	2cec <__aeabi_dadd+0x1b8>
    2cea:	e0e9      	b.n	2ec0 <__aeabi_dadd+0x38c>
    2cec:	430a      	orrs	r2, r1
    2cee:	1e51      	subs	r1, r2, #1
    2cf0:	418a      	sbcs	r2, r1
    2cf2:	2100      	movs	r1, #0
    2cf4:	19d2      	adds	r2, r2, r7
    2cf6:	42ba      	cmp	r2, r7
    2cf8:	41bf      	sbcs	r7, r7
    2cfa:	1909      	adds	r1, r1, r4
    2cfc:	427c      	negs	r4, r7
    2cfe:	0017      	movs	r7, r2
    2d00:	190c      	adds	r4, r1, r4
    2d02:	0223      	lsls	r3, r4, #8
    2d04:	d5d3      	bpl.n	2cae <__aeabi_dadd+0x17a>
    2d06:	4b6b      	ldr	r3, [pc, #428]	; (2eb4 <__aeabi_dadd+0x380>)
    2d08:	3601      	adds	r6, #1
    2d0a:	429e      	cmp	r6, r3
    2d0c:	d100      	bne.n	2d10 <__aeabi_dadd+0x1dc>
    2d0e:	e13a      	b.n	2f86 <__aeabi_dadd+0x452>
    2d10:	2001      	movs	r0, #1
    2d12:	4b69      	ldr	r3, [pc, #420]	; (2eb8 <__aeabi_dadd+0x384>)
    2d14:	401c      	ands	r4, r3
    2d16:	087b      	lsrs	r3, r7, #1
    2d18:	4007      	ands	r7, r0
    2d1a:	431f      	orrs	r7, r3
    2d1c:	07e0      	lsls	r0, r4, #31
    2d1e:	4307      	orrs	r7, r0
    2d20:	0864      	lsrs	r4, r4, #1
    2d22:	e78b      	b.n	2c3c <__aeabi_dadd+0x108>
    2d24:	0023      	movs	r3, r4
    2d26:	433b      	orrs	r3, r7
    2d28:	d100      	bne.n	2d2c <__aeabi_dadd+0x1f8>
    2d2a:	e1cb      	b.n	30c4 <__aeabi_dadd+0x590>
    2d2c:	2280      	movs	r2, #128	; 0x80
    2d2e:	0312      	lsls	r2, r2, #12
    2d30:	4314      	orrs	r4, r2
    2d32:	0324      	lsls	r4, r4, #12
    2d34:	0b24      	lsrs	r4, r4, #12
    2d36:	e79e      	b.n	2c76 <__aeabi_dadd+0x142>
    2d38:	002e      	movs	r6, r5
    2d3a:	e77f      	b.n	2c3c <__aeabi_dadd+0x108>
    2d3c:	0008      	movs	r0, r1
    2d3e:	4310      	orrs	r0, r2
    2d40:	d100      	bne.n	2d44 <__aeabi_dadd+0x210>
    2d42:	e0b4      	b.n	2eae <__aeabi_dadd+0x37a>
    2d44:	1e58      	subs	r0, r3, #1
    2d46:	2800      	cmp	r0, #0
    2d48:	d000      	beq.n	2d4c <__aeabi_dadd+0x218>
    2d4a:	e0de      	b.n	2f0a <__aeabi_dadd+0x3d6>
    2d4c:	18ba      	adds	r2, r7, r2
    2d4e:	42ba      	cmp	r2, r7
    2d50:	419b      	sbcs	r3, r3
    2d52:	1864      	adds	r4, r4, r1
    2d54:	425b      	negs	r3, r3
    2d56:	18e4      	adds	r4, r4, r3
    2d58:	0017      	movs	r7, r2
    2d5a:	2601      	movs	r6, #1
    2d5c:	0223      	lsls	r3, r4, #8
    2d5e:	d5a6      	bpl.n	2cae <__aeabi_dadd+0x17a>
    2d60:	2602      	movs	r6, #2
    2d62:	e7d5      	b.n	2d10 <__aeabi_dadd+0x1dc>
    2d64:	2d00      	cmp	r5, #0
    2d66:	d16e      	bne.n	2e46 <__aeabi_dadd+0x312>
    2d68:	1c70      	adds	r0, r6, #1
    2d6a:	0540      	lsls	r0, r0, #21
    2d6c:	0d40      	lsrs	r0, r0, #21
    2d6e:	2801      	cmp	r0, #1
    2d70:	dc00      	bgt.n	2d74 <__aeabi_dadd+0x240>
    2d72:	e0f9      	b.n	2f68 <__aeabi_dadd+0x434>
    2d74:	1ab8      	subs	r0, r7, r2
    2d76:	4684      	mov	ip, r0
    2d78:	4287      	cmp	r7, r0
    2d7a:	4180      	sbcs	r0, r0
    2d7c:	1ae5      	subs	r5, r4, r3
    2d7e:	4240      	negs	r0, r0
    2d80:	1a2d      	subs	r5, r5, r0
    2d82:	0228      	lsls	r0, r5, #8
    2d84:	d400      	bmi.n	2d88 <__aeabi_dadd+0x254>
    2d86:	e089      	b.n	2e9c <__aeabi_dadd+0x368>
    2d88:	1bd7      	subs	r7, r2, r7
    2d8a:	42ba      	cmp	r2, r7
    2d8c:	4192      	sbcs	r2, r2
    2d8e:	1b1c      	subs	r4, r3, r4
    2d90:	4252      	negs	r2, r2
    2d92:	1aa5      	subs	r5, r4, r2
    2d94:	46d8      	mov	r8, fp
    2d96:	e729      	b.n	2bec <__aeabi_dadd+0xb8>
    2d98:	4645      	mov	r5, r8
    2d9a:	2400      	movs	r4, #0
    2d9c:	2700      	movs	r7, #0
    2d9e:	e76a      	b.n	2c76 <__aeabi_dadd+0x142>
    2da0:	4c45      	ldr	r4, [pc, #276]	; (2eb8 <__aeabi_dadd+0x384>)
    2da2:	1af6      	subs	r6, r6, r3
    2da4:	402c      	ands	r4, r5
    2da6:	e749      	b.n	2c3c <__aeabi_dadd+0x108>
    2da8:	003d      	movs	r5, r7
    2daa:	3828      	subs	r0, #40	; 0x28
    2dac:	4085      	lsls	r5, r0
    2dae:	2700      	movs	r7, #0
    2db0:	e72e      	b.n	2c10 <__aeabi_dadd+0xdc>
    2db2:	0038      	movs	r0, r7
    2db4:	f001 fc60 	bl	4678 <__clzsi2>
    2db8:	3020      	adds	r0, #32
    2dba:	e71d      	b.n	2bf8 <__aeabi_dadd+0xc4>
    2dbc:	430a      	orrs	r2, r1
    2dbe:	1e51      	subs	r1, r2, #1
    2dc0:	418a      	sbcs	r2, r1
    2dc2:	2100      	movs	r1, #0
    2dc4:	e707      	b.n	2bd6 <__aeabi_dadd+0xa2>
    2dc6:	2b00      	cmp	r3, #0
    2dc8:	d000      	beq.n	2dcc <__aeabi_dadd+0x298>
    2dca:	e0f3      	b.n	2fb4 <__aeabi_dadd+0x480>
    2dcc:	1c70      	adds	r0, r6, #1
    2dce:	0543      	lsls	r3, r0, #21
    2dd0:	0d5b      	lsrs	r3, r3, #21
    2dd2:	2b01      	cmp	r3, #1
    2dd4:	dc00      	bgt.n	2dd8 <__aeabi_dadd+0x2a4>
    2dd6:	e0ad      	b.n	2f34 <__aeabi_dadd+0x400>
    2dd8:	4b36      	ldr	r3, [pc, #216]	; (2eb4 <__aeabi_dadd+0x380>)
    2dda:	4298      	cmp	r0, r3
    2ddc:	d100      	bne.n	2de0 <__aeabi_dadd+0x2ac>
    2dde:	e0d1      	b.n	2f84 <__aeabi_dadd+0x450>
    2de0:	18ba      	adds	r2, r7, r2
    2de2:	42ba      	cmp	r2, r7
    2de4:	41bf      	sbcs	r7, r7
    2de6:	1864      	adds	r4, r4, r1
    2de8:	427f      	negs	r7, r7
    2dea:	19e4      	adds	r4, r4, r7
    2dec:	07e7      	lsls	r7, r4, #31
    2dee:	0852      	lsrs	r2, r2, #1
    2df0:	4317      	orrs	r7, r2
    2df2:	0864      	lsrs	r4, r4, #1
    2df4:	0006      	movs	r6, r0
    2df6:	e721      	b.n	2c3c <__aeabi_dadd+0x108>
    2df8:	482e      	ldr	r0, [pc, #184]	; (2eb4 <__aeabi_dadd+0x380>)
    2dfa:	4285      	cmp	r5, r0
    2dfc:	d100      	bne.n	2e00 <__aeabi_dadd+0x2cc>
    2dfe:	e093      	b.n	2f28 <__aeabi_dadd+0x3f4>
    2e00:	001d      	movs	r5, r3
    2e02:	e6d0      	b.n	2ba6 <__aeabi_dadd+0x72>
    2e04:	0029      	movs	r1, r5
    2e06:	3e1f      	subs	r6, #31
    2e08:	40f1      	lsrs	r1, r6
    2e0a:	2b20      	cmp	r3, #32
    2e0c:	d100      	bne.n	2e10 <__aeabi_dadd+0x2dc>
    2e0e:	e08d      	b.n	2f2c <__aeabi_dadd+0x3f8>
    2e10:	2240      	movs	r2, #64	; 0x40
    2e12:	1ad3      	subs	r3, r2, r3
    2e14:	409d      	lsls	r5, r3
    2e16:	432f      	orrs	r7, r5
    2e18:	1e7d      	subs	r5, r7, #1
    2e1a:	41af      	sbcs	r7, r5
    2e1c:	2400      	movs	r4, #0
    2e1e:	430f      	orrs	r7, r1
    2e20:	2600      	movs	r6, #0
    2e22:	e744      	b.n	2cae <__aeabi_dadd+0x17a>
    2e24:	002b      	movs	r3, r5
    2e26:	0008      	movs	r0, r1
    2e28:	3b20      	subs	r3, #32
    2e2a:	40d8      	lsrs	r0, r3
    2e2c:	0003      	movs	r3, r0
    2e2e:	2d20      	cmp	r5, #32
    2e30:	d100      	bne.n	2e34 <__aeabi_dadd+0x300>
    2e32:	e07d      	b.n	2f30 <__aeabi_dadd+0x3fc>
    2e34:	2040      	movs	r0, #64	; 0x40
    2e36:	1b45      	subs	r5, r0, r5
    2e38:	40a9      	lsls	r1, r5
    2e3a:	430a      	orrs	r2, r1
    2e3c:	1e51      	subs	r1, r2, #1
    2e3e:	418a      	sbcs	r2, r1
    2e40:	2100      	movs	r1, #0
    2e42:	431a      	orrs	r2, r3
    2e44:	e6c7      	b.n	2bd6 <__aeabi_dadd+0xa2>
    2e46:	2e00      	cmp	r6, #0
    2e48:	d050      	beq.n	2eec <__aeabi_dadd+0x3b8>
    2e4a:	4e1a      	ldr	r6, [pc, #104]	; (2eb4 <__aeabi_dadd+0x380>)
    2e4c:	42b0      	cmp	r0, r6
    2e4e:	d057      	beq.n	2f00 <__aeabi_dadd+0x3cc>
    2e50:	2680      	movs	r6, #128	; 0x80
    2e52:	426b      	negs	r3, r5
    2e54:	4699      	mov	r9, r3
    2e56:	0436      	lsls	r6, r6, #16
    2e58:	4334      	orrs	r4, r6
    2e5a:	464b      	mov	r3, r9
    2e5c:	2b38      	cmp	r3, #56	; 0x38
    2e5e:	dd00      	ble.n	2e62 <__aeabi_dadd+0x32e>
    2e60:	e0d6      	b.n	3010 <__aeabi_dadd+0x4dc>
    2e62:	2b1f      	cmp	r3, #31
    2e64:	dd00      	ble.n	2e68 <__aeabi_dadd+0x334>
    2e66:	e135      	b.n	30d4 <__aeabi_dadd+0x5a0>
    2e68:	2620      	movs	r6, #32
    2e6a:	1af5      	subs	r5, r6, r3
    2e6c:	0026      	movs	r6, r4
    2e6e:	40ae      	lsls	r6, r5
    2e70:	46b2      	mov	sl, r6
    2e72:	003e      	movs	r6, r7
    2e74:	40de      	lsrs	r6, r3
    2e76:	46ac      	mov	ip, r5
    2e78:	0035      	movs	r5, r6
    2e7a:	4656      	mov	r6, sl
    2e7c:	432e      	orrs	r6, r5
    2e7e:	4665      	mov	r5, ip
    2e80:	40af      	lsls	r7, r5
    2e82:	1e7d      	subs	r5, r7, #1
    2e84:	41af      	sbcs	r7, r5
    2e86:	40dc      	lsrs	r4, r3
    2e88:	4337      	orrs	r7, r6
    2e8a:	1bd7      	subs	r7, r2, r7
    2e8c:	42ba      	cmp	r2, r7
    2e8e:	4192      	sbcs	r2, r2
    2e90:	1b0c      	subs	r4, r1, r4
    2e92:	4252      	negs	r2, r2
    2e94:	1aa4      	subs	r4, r4, r2
    2e96:	0006      	movs	r6, r0
    2e98:	46d8      	mov	r8, fp
    2e9a:	e6a3      	b.n	2be4 <__aeabi_dadd+0xb0>
    2e9c:	4664      	mov	r4, ip
    2e9e:	4667      	mov	r7, ip
    2ea0:	432c      	orrs	r4, r5
    2ea2:	d000      	beq.n	2ea6 <__aeabi_dadd+0x372>
    2ea4:	e6a2      	b.n	2bec <__aeabi_dadd+0xb8>
    2ea6:	2500      	movs	r5, #0
    2ea8:	2600      	movs	r6, #0
    2eaa:	2700      	movs	r7, #0
    2eac:	e706      	b.n	2cbc <__aeabi_dadd+0x188>
    2eae:	001e      	movs	r6, r3
    2eb0:	e6c4      	b.n	2c3c <__aeabi_dadd+0x108>
    2eb2:	46c0      	nop			; (mov r8, r8)
    2eb4:	000007ff 	.word	0x000007ff
    2eb8:	ff7fffff 	.word	0xff7fffff
    2ebc:	800fffff 	.word	0x800fffff
    2ec0:	2b1f      	cmp	r3, #31
    2ec2:	dc63      	bgt.n	2f8c <__aeabi_dadd+0x458>
    2ec4:	2020      	movs	r0, #32
    2ec6:	1ac3      	subs	r3, r0, r3
    2ec8:	0008      	movs	r0, r1
    2eca:	4098      	lsls	r0, r3
    2ecc:	469c      	mov	ip, r3
    2ece:	4683      	mov	fp, r0
    2ed0:	4653      	mov	r3, sl
    2ed2:	0010      	movs	r0, r2
    2ed4:	40d8      	lsrs	r0, r3
    2ed6:	0003      	movs	r3, r0
    2ed8:	4658      	mov	r0, fp
    2eda:	4318      	orrs	r0, r3
    2edc:	4663      	mov	r3, ip
    2ede:	409a      	lsls	r2, r3
    2ee0:	1e53      	subs	r3, r2, #1
    2ee2:	419a      	sbcs	r2, r3
    2ee4:	4653      	mov	r3, sl
    2ee6:	4302      	orrs	r2, r0
    2ee8:	40d9      	lsrs	r1, r3
    2eea:	e703      	b.n	2cf4 <__aeabi_dadd+0x1c0>
    2eec:	0026      	movs	r6, r4
    2eee:	433e      	orrs	r6, r7
    2ef0:	d006      	beq.n	2f00 <__aeabi_dadd+0x3cc>
    2ef2:	43eb      	mvns	r3, r5
    2ef4:	4699      	mov	r9, r3
    2ef6:	2b00      	cmp	r3, #0
    2ef8:	d0c7      	beq.n	2e8a <__aeabi_dadd+0x356>
    2efa:	4e94      	ldr	r6, [pc, #592]	; (314c <__aeabi_dadd+0x618>)
    2efc:	42b0      	cmp	r0, r6
    2efe:	d1ac      	bne.n	2e5a <__aeabi_dadd+0x326>
    2f00:	000c      	movs	r4, r1
    2f02:	0017      	movs	r7, r2
    2f04:	0006      	movs	r6, r0
    2f06:	46d8      	mov	r8, fp
    2f08:	e698      	b.n	2c3c <__aeabi_dadd+0x108>
    2f0a:	4b90      	ldr	r3, [pc, #576]	; (314c <__aeabi_dadd+0x618>)
    2f0c:	459a      	cmp	sl, r3
    2f0e:	d00b      	beq.n	2f28 <__aeabi_dadd+0x3f4>
    2f10:	4682      	mov	sl, r0
    2f12:	e6e7      	b.n	2ce4 <__aeabi_dadd+0x1b0>
    2f14:	2800      	cmp	r0, #0
    2f16:	d000      	beq.n	2f1a <__aeabi_dadd+0x3e6>
    2f18:	e09e      	b.n	3058 <__aeabi_dadd+0x524>
    2f1a:	0018      	movs	r0, r3
    2f1c:	4310      	orrs	r0, r2
    2f1e:	d100      	bne.n	2f22 <__aeabi_dadd+0x3ee>
    2f20:	e0e9      	b.n	30f6 <__aeabi_dadd+0x5c2>
    2f22:	001c      	movs	r4, r3
    2f24:	0017      	movs	r7, r2
    2f26:	46d8      	mov	r8, fp
    2f28:	4e88      	ldr	r6, [pc, #544]	; (314c <__aeabi_dadd+0x618>)
    2f2a:	e687      	b.n	2c3c <__aeabi_dadd+0x108>
    2f2c:	2500      	movs	r5, #0
    2f2e:	e772      	b.n	2e16 <__aeabi_dadd+0x2e2>
    2f30:	2100      	movs	r1, #0
    2f32:	e782      	b.n	2e3a <__aeabi_dadd+0x306>
    2f34:	0023      	movs	r3, r4
    2f36:	433b      	orrs	r3, r7
    2f38:	2e00      	cmp	r6, #0
    2f3a:	d000      	beq.n	2f3e <__aeabi_dadd+0x40a>
    2f3c:	e0ab      	b.n	3096 <__aeabi_dadd+0x562>
    2f3e:	2b00      	cmp	r3, #0
    2f40:	d100      	bne.n	2f44 <__aeabi_dadd+0x410>
    2f42:	e0e7      	b.n	3114 <__aeabi_dadd+0x5e0>
    2f44:	000b      	movs	r3, r1
    2f46:	4313      	orrs	r3, r2
    2f48:	d100      	bne.n	2f4c <__aeabi_dadd+0x418>
    2f4a:	e677      	b.n	2c3c <__aeabi_dadd+0x108>
    2f4c:	18ba      	adds	r2, r7, r2
    2f4e:	42ba      	cmp	r2, r7
    2f50:	41bf      	sbcs	r7, r7
    2f52:	1864      	adds	r4, r4, r1
    2f54:	427f      	negs	r7, r7
    2f56:	19e4      	adds	r4, r4, r7
    2f58:	0223      	lsls	r3, r4, #8
    2f5a:	d400      	bmi.n	2f5e <__aeabi_dadd+0x42a>
    2f5c:	e0f2      	b.n	3144 <__aeabi_dadd+0x610>
    2f5e:	4b7c      	ldr	r3, [pc, #496]	; (3150 <__aeabi_dadd+0x61c>)
    2f60:	0017      	movs	r7, r2
    2f62:	401c      	ands	r4, r3
    2f64:	0006      	movs	r6, r0
    2f66:	e669      	b.n	2c3c <__aeabi_dadd+0x108>
    2f68:	0020      	movs	r0, r4
    2f6a:	4338      	orrs	r0, r7
    2f6c:	2e00      	cmp	r6, #0
    2f6e:	d1d1      	bne.n	2f14 <__aeabi_dadd+0x3e0>
    2f70:	2800      	cmp	r0, #0
    2f72:	d15b      	bne.n	302c <__aeabi_dadd+0x4f8>
    2f74:	001c      	movs	r4, r3
    2f76:	4314      	orrs	r4, r2
    2f78:	d100      	bne.n	2f7c <__aeabi_dadd+0x448>
    2f7a:	e0a8      	b.n	30ce <__aeabi_dadd+0x59a>
    2f7c:	001c      	movs	r4, r3
    2f7e:	0017      	movs	r7, r2
    2f80:	46d8      	mov	r8, fp
    2f82:	e65b      	b.n	2c3c <__aeabi_dadd+0x108>
    2f84:	0006      	movs	r6, r0
    2f86:	2400      	movs	r4, #0
    2f88:	2700      	movs	r7, #0
    2f8a:	e697      	b.n	2cbc <__aeabi_dadd+0x188>
    2f8c:	4650      	mov	r0, sl
    2f8e:	000b      	movs	r3, r1
    2f90:	3820      	subs	r0, #32
    2f92:	40c3      	lsrs	r3, r0
    2f94:	4699      	mov	r9, r3
    2f96:	4653      	mov	r3, sl
    2f98:	2b20      	cmp	r3, #32
    2f9a:	d100      	bne.n	2f9e <__aeabi_dadd+0x46a>
    2f9c:	e095      	b.n	30ca <__aeabi_dadd+0x596>
    2f9e:	2340      	movs	r3, #64	; 0x40
    2fa0:	4650      	mov	r0, sl
    2fa2:	1a1b      	subs	r3, r3, r0
    2fa4:	4099      	lsls	r1, r3
    2fa6:	430a      	orrs	r2, r1
    2fa8:	1e51      	subs	r1, r2, #1
    2faa:	418a      	sbcs	r2, r1
    2fac:	464b      	mov	r3, r9
    2fae:	2100      	movs	r1, #0
    2fb0:	431a      	orrs	r2, r3
    2fb2:	e69f      	b.n	2cf4 <__aeabi_dadd+0x1c0>
    2fb4:	2e00      	cmp	r6, #0
    2fb6:	d130      	bne.n	301a <__aeabi_dadd+0x4e6>
    2fb8:	0026      	movs	r6, r4
    2fba:	433e      	orrs	r6, r7
    2fbc:	d067      	beq.n	308e <__aeabi_dadd+0x55a>
    2fbe:	43db      	mvns	r3, r3
    2fc0:	469a      	mov	sl, r3
    2fc2:	2b00      	cmp	r3, #0
    2fc4:	d01c      	beq.n	3000 <__aeabi_dadd+0x4cc>
    2fc6:	4e61      	ldr	r6, [pc, #388]	; (314c <__aeabi_dadd+0x618>)
    2fc8:	42b0      	cmp	r0, r6
    2fca:	d060      	beq.n	308e <__aeabi_dadd+0x55a>
    2fcc:	4653      	mov	r3, sl
    2fce:	2b38      	cmp	r3, #56	; 0x38
    2fd0:	dd00      	ble.n	2fd4 <__aeabi_dadd+0x4a0>
    2fd2:	e096      	b.n	3102 <__aeabi_dadd+0x5ce>
    2fd4:	2b1f      	cmp	r3, #31
    2fd6:	dd00      	ble.n	2fda <__aeabi_dadd+0x4a6>
    2fd8:	e09f      	b.n	311a <__aeabi_dadd+0x5e6>
    2fda:	2620      	movs	r6, #32
    2fdc:	1af3      	subs	r3, r6, r3
    2fde:	0026      	movs	r6, r4
    2fe0:	409e      	lsls	r6, r3
    2fe2:	469c      	mov	ip, r3
    2fe4:	46b3      	mov	fp, r6
    2fe6:	4653      	mov	r3, sl
    2fe8:	003e      	movs	r6, r7
    2fea:	40de      	lsrs	r6, r3
    2fec:	0033      	movs	r3, r6
    2fee:	465e      	mov	r6, fp
    2ff0:	431e      	orrs	r6, r3
    2ff2:	4663      	mov	r3, ip
    2ff4:	409f      	lsls	r7, r3
    2ff6:	1e7b      	subs	r3, r7, #1
    2ff8:	419f      	sbcs	r7, r3
    2ffa:	4653      	mov	r3, sl
    2ffc:	40dc      	lsrs	r4, r3
    2ffe:	4337      	orrs	r7, r6
    3000:	18bf      	adds	r7, r7, r2
    3002:	4297      	cmp	r7, r2
    3004:	4192      	sbcs	r2, r2
    3006:	1864      	adds	r4, r4, r1
    3008:	4252      	negs	r2, r2
    300a:	18a4      	adds	r4, r4, r2
    300c:	0006      	movs	r6, r0
    300e:	e678      	b.n	2d02 <__aeabi_dadd+0x1ce>
    3010:	4327      	orrs	r7, r4
    3012:	1e7c      	subs	r4, r7, #1
    3014:	41a7      	sbcs	r7, r4
    3016:	2400      	movs	r4, #0
    3018:	e737      	b.n	2e8a <__aeabi_dadd+0x356>
    301a:	4e4c      	ldr	r6, [pc, #304]	; (314c <__aeabi_dadd+0x618>)
    301c:	42b0      	cmp	r0, r6
    301e:	d036      	beq.n	308e <__aeabi_dadd+0x55a>
    3020:	2680      	movs	r6, #128	; 0x80
    3022:	425b      	negs	r3, r3
    3024:	0436      	lsls	r6, r6, #16
    3026:	469a      	mov	sl, r3
    3028:	4334      	orrs	r4, r6
    302a:	e7cf      	b.n	2fcc <__aeabi_dadd+0x498>
    302c:	0018      	movs	r0, r3
    302e:	4310      	orrs	r0, r2
    3030:	d100      	bne.n	3034 <__aeabi_dadd+0x500>
    3032:	e603      	b.n	2c3c <__aeabi_dadd+0x108>
    3034:	1ab8      	subs	r0, r7, r2
    3036:	4684      	mov	ip, r0
    3038:	4567      	cmp	r7, ip
    303a:	41ad      	sbcs	r5, r5
    303c:	1ae0      	subs	r0, r4, r3
    303e:	426d      	negs	r5, r5
    3040:	1b40      	subs	r0, r0, r5
    3042:	0205      	lsls	r5, r0, #8
    3044:	d400      	bmi.n	3048 <__aeabi_dadd+0x514>
    3046:	e62c      	b.n	2ca2 <__aeabi_dadd+0x16e>
    3048:	1bd7      	subs	r7, r2, r7
    304a:	42ba      	cmp	r2, r7
    304c:	4192      	sbcs	r2, r2
    304e:	1b1c      	subs	r4, r3, r4
    3050:	4252      	negs	r2, r2
    3052:	1aa4      	subs	r4, r4, r2
    3054:	46d8      	mov	r8, fp
    3056:	e5f1      	b.n	2c3c <__aeabi_dadd+0x108>
    3058:	0018      	movs	r0, r3
    305a:	4310      	orrs	r0, r2
    305c:	d100      	bne.n	3060 <__aeabi_dadd+0x52c>
    305e:	e763      	b.n	2f28 <__aeabi_dadd+0x3f4>
    3060:	08f8      	lsrs	r0, r7, #3
    3062:	0767      	lsls	r7, r4, #29
    3064:	4307      	orrs	r7, r0
    3066:	2080      	movs	r0, #128	; 0x80
    3068:	08e4      	lsrs	r4, r4, #3
    306a:	0300      	lsls	r0, r0, #12
    306c:	4204      	tst	r4, r0
    306e:	d008      	beq.n	3082 <__aeabi_dadd+0x54e>
    3070:	08dd      	lsrs	r5, r3, #3
    3072:	4205      	tst	r5, r0
    3074:	d105      	bne.n	3082 <__aeabi_dadd+0x54e>
    3076:	08d2      	lsrs	r2, r2, #3
    3078:	0759      	lsls	r1, r3, #29
    307a:	4311      	orrs	r1, r2
    307c:	000f      	movs	r7, r1
    307e:	002c      	movs	r4, r5
    3080:	46d8      	mov	r8, fp
    3082:	0f7b      	lsrs	r3, r7, #29
    3084:	00e4      	lsls	r4, r4, #3
    3086:	431c      	orrs	r4, r3
    3088:	00ff      	lsls	r7, r7, #3
    308a:	4e30      	ldr	r6, [pc, #192]	; (314c <__aeabi_dadd+0x618>)
    308c:	e5d6      	b.n	2c3c <__aeabi_dadd+0x108>
    308e:	000c      	movs	r4, r1
    3090:	0017      	movs	r7, r2
    3092:	0006      	movs	r6, r0
    3094:	e5d2      	b.n	2c3c <__aeabi_dadd+0x108>
    3096:	2b00      	cmp	r3, #0
    3098:	d038      	beq.n	310c <__aeabi_dadd+0x5d8>
    309a:	000b      	movs	r3, r1
    309c:	4313      	orrs	r3, r2
    309e:	d100      	bne.n	30a2 <__aeabi_dadd+0x56e>
    30a0:	e742      	b.n	2f28 <__aeabi_dadd+0x3f4>
    30a2:	08f8      	lsrs	r0, r7, #3
    30a4:	0767      	lsls	r7, r4, #29
    30a6:	4307      	orrs	r7, r0
    30a8:	2080      	movs	r0, #128	; 0x80
    30aa:	08e4      	lsrs	r4, r4, #3
    30ac:	0300      	lsls	r0, r0, #12
    30ae:	4204      	tst	r4, r0
    30b0:	d0e7      	beq.n	3082 <__aeabi_dadd+0x54e>
    30b2:	08cb      	lsrs	r3, r1, #3
    30b4:	4203      	tst	r3, r0
    30b6:	d1e4      	bne.n	3082 <__aeabi_dadd+0x54e>
    30b8:	08d2      	lsrs	r2, r2, #3
    30ba:	0749      	lsls	r1, r1, #29
    30bc:	4311      	orrs	r1, r2
    30be:	000f      	movs	r7, r1
    30c0:	001c      	movs	r4, r3
    30c2:	e7de      	b.n	3082 <__aeabi_dadd+0x54e>
    30c4:	2700      	movs	r7, #0
    30c6:	2400      	movs	r4, #0
    30c8:	e5d5      	b.n	2c76 <__aeabi_dadd+0x142>
    30ca:	2100      	movs	r1, #0
    30cc:	e76b      	b.n	2fa6 <__aeabi_dadd+0x472>
    30ce:	2500      	movs	r5, #0
    30d0:	2700      	movs	r7, #0
    30d2:	e5f3      	b.n	2cbc <__aeabi_dadd+0x188>
    30d4:	464e      	mov	r6, r9
    30d6:	0025      	movs	r5, r4
    30d8:	3e20      	subs	r6, #32
    30da:	40f5      	lsrs	r5, r6
    30dc:	464b      	mov	r3, r9
    30de:	002e      	movs	r6, r5
    30e0:	2b20      	cmp	r3, #32
    30e2:	d02d      	beq.n	3140 <__aeabi_dadd+0x60c>
    30e4:	2540      	movs	r5, #64	; 0x40
    30e6:	1aed      	subs	r5, r5, r3
    30e8:	40ac      	lsls	r4, r5
    30ea:	4327      	orrs	r7, r4
    30ec:	1e7c      	subs	r4, r7, #1
    30ee:	41a7      	sbcs	r7, r4
    30f0:	2400      	movs	r4, #0
    30f2:	4337      	orrs	r7, r6
    30f4:	e6c9      	b.n	2e8a <__aeabi_dadd+0x356>
    30f6:	2480      	movs	r4, #128	; 0x80
    30f8:	2500      	movs	r5, #0
    30fa:	0324      	lsls	r4, r4, #12
    30fc:	4e13      	ldr	r6, [pc, #76]	; (314c <__aeabi_dadd+0x618>)
    30fe:	2700      	movs	r7, #0
    3100:	e5dc      	b.n	2cbc <__aeabi_dadd+0x188>
    3102:	4327      	orrs	r7, r4
    3104:	1e7c      	subs	r4, r7, #1
    3106:	41a7      	sbcs	r7, r4
    3108:	2400      	movs	r4, #0
    310a:	e779      	b.n	3000 <__aeabi_dadd+0x4cc>
    310c:	000c      	movs	r4, r1
    310e:	0017      	movs	r7, r2
    3110:	4e0e      	ldr	r6, [pc, #56]	; (314c <__aeabi_dadd+0x618>)
    3112:	e593      	b.n	2c3c <__aeabi_dadd+0x108>
    3114:	000c      	movs	r4, r1
    3116:	0017      	movs	r7, r2
    3118:	e590      	b.n	2c3c <__aeabi_dadd+0x108>
    311a:	4656      	mov	r6, sl
    311c:	0023      	movs	r3, r4
    311e:	3e20      	subs	r6, #32
    3120:	40f3      	lsrs	r3, r6
    3122:	4699      	mov	r9, r3
    3124:	4653      	mov	r3, sl
    3126:	2b20      	cmp	r3, #32
    3128:	d00e      	beq.n	3148 <__aeabi_dadd+0x614>
    312a:	2340      	movs	r3, #64	; 0x40
    312c:	4656      	mov	r6, sl
    312e:	1b9b      	subs	r3, r3, r6
    3130:	409c      	lsls	r4, r3
    3132:	4327      	orrs	r7, r4
    3134:	1e7c      	subs	r4, r7, #1
    3136:	41a7      	sbcs	r7, r4
    3138:	464b      	mov	r3, r9
    313a:	2400      	movs	r4, #0
    313c:	431f      	orrs	r7, r3
    313e:	e75f      	b.n	3000 <__aeabi_dadd+0x4cc>
    3140:	2400      	movs	r4, #0
    3142:	e7d2      	b.n	30ea <__aeabi_dadd+0x5b6>
    3144:	0017      	movs	r7, r2
    3146:	e5b2      	b.n	2cae <__aeabi_dadd+0x17a>
    3148:	2400      	movs	r4, #0
    314a:	e7f2      	b.n	3132 <__aeabi_dadd+0x5fe>
    314c:	000007ff 	.word	0x000007ff
    3150:	ff7fffff 	.word	0xff7fffff

00003154 <__aeabi_ddiv>:
    3154:	b5f0      	push	{r4, r5, r6, r7, lr}
    3156:	4657      	mov	r7, sl
    3158:	4645      	mov	r5, r8
    315a:	46de      	mov	lr, fp
    315c:	464e      	mov	r6, r9
    315e:	b5e0      	push	{r5, r6, r7, lr}
    3160:	004c      	lsls	r4, r1, #1
    3162:	030e      	lsls	r6, r1, #12
    3164:	b087      	sub	sp, #28
    3166:	4683      	mov	fp, r0
    3168:	4692      	mov	sl, r2
    316a:	001d      	movs	r5, r3
    316c:	4680      	mov	r8, r0
    316e:	0b36      	lsrs	r6, r6, #12
    3170:	0d64      	lsrs	r4, r4, #21
    3172:	0fcf      	lsrs	r7, r1, #31
    3174:	2c00      	cmp	r4, #0
    3176:	d04f      	beq.n	3218 <__aeabi_ddiv+0xc4>
    3178:	4b6f      	ldr	r3, [pc, #444]	; (3338 <__aeabi_ddiv+0x1e4>)
    317a:	429c      	cmp	r4, r3
    317c:	d035      	beq.n	31ea <__aeabi_ddiv+0x96>
    317e:	2380      	movs	r3, #128	; 0x80
    3180:	0f42      	lsrs	r2, r0, #29
    3182:	041b      	lsls	r3, r3, #16
    3184:	00f6      	lsls	r6, r6, #3
    3186:	4313      	orrs	r3, r2
    3188:	4333      	orrs	r3, r6
    318a:	4699      	mov	r9, r3
    318c:	00c3      	lsls	r3, r0, #3
    318e:	4698      	mov	r8, r3
    3190:	4b6a      	ldr	r3, [pc, #424]	; (333c <__aeabi_ddiv+0x1e8>)
    3192:	2600      	movs	r6, #0
    3194:	469c      	mov	ip, r3
    3196:	2300      	movs	r3, #0
    3198:	4464      	add	r4, ip
    319a:	9303      	str	r3, [sp, #12]
    319c:	032b      	lsls	r3, r5, #12
    319e:	0b1b      	lsrs	r3, r3, #12
    31a0:	469b      	mov	fp, r3
    31a2:	006b      	lsls	r3, r5, #1
    31a4:	0fed      	lsrs	r5, r5, #31
    31a6:	4650      	mov	r0, sl
    31a8:	0d5b      	lsrs	r3, r3, #21
    31aa:	9501      	str	r5, [sp, #4]
    31ac:	d05e      	beq.n	326c <__aeabi_ddiv+0x118>
    31ae:	4a62      	ldr	r2, [pc, #392]	; (3338 <__aeabi_ddiv+0x1e4>)
    31b0:	4293      	cmp	r3, r2
    31b2:	d053      	beq.n	325c <__aeabi_ddiv+0x108>
    31b4:	465a      	mov	r2, fp
    31b6:	00d1      	lsls	r1, r2, #3
    31b8:	2280      	movs	r2, #128	; 0x80
    31ba:	0f40      	lsrs	r0, r0, #29
    31bc:	0412      	lsls	r2, r2, #16
    31be:	4302      	orrs	r2, r0
    31c0:	430a      	orrs	r2, r1
    31c2:	4693      	mov	fp, r2
    31c4:	4652      	mov	r2, sl
    31c6:	00d1      	lsls	r1, r2, #3
    31c8:	4a5c      	ldr	r2, [pc, #368]	; (333c <__aeabi_ddiv+0x1e8>)
    31ca:	4694      	mov	ip, r2
    31cc:	2200      	movs	r2, #0
    31ce:	4463      	add	r3, ip
    31d0:	0038      	movs	r0, r7
    31d2:	4068      	eors	r0, r5
    31d4:	4684      	mov	ip, r0
    31d6:	9002      	str	r0, [sp, #8]
    31d8:	1ae4      	subs	r4, r4, r3
    31da:	4316      	orrs	r6, r2
    31dc:	2e0f      	cmp	r6, #15
    31de:	d900      	bls.n	31e2 <__aeabi_ddiv+0x8e>
    31e0:	e0b4      	b.n	334c <__aeabi_ddiv+0x1f8>
    31e2:	4b57      	ldr	r3, [pc, #348]	; (3340 <__aeabi_ddiv+0x1ec>)
    31e4:	00b6      	lsls	r6, r6, #2
    31e6:	599b      	ldr	r3, [r3, r6]
    31e8:	469f      	mov	pc, r3
    31ea:	0003      	movs	r3, r0
    31ec:	4333      	orrs	r3, r6
    31ee:	4699      	mov	r9, r3
    31f0:	d16c      	bne.n	32cc <__aeabi_ddiv+0x178>
    31f2:	2300      	movs	r3, #0
    31f4:	4698      	mov	r8, r3
    31f6:	3302      	adds	r3, #2
    31f8:	2608      	movs	r6, #8
    31fa:	9303      	str	r3, [sp, #12]
    31fc:	e7ce      	b.n	319c <__aeabi_ddiv+0x48>
    31fe:	46cb      	mov	fp, r9
    3200:	4641      	mov	r1, r8
    3202:	9a03      	ldr	r2, [sp, #12]
    3204:	9701      	str	r7, [sp, #4]
    3206:	2a02      	cmp	r2, #2
    3208:	d165      	bne.n	32d6 <__aeabi_ddiv+0x182>
    320a:	9b01      	ldr	r3, [sp, #4]
    320c:	4c4a      	ldr	r4, [pc, #296]	; (3338 <__aeabi_ddiv+0x1e4>)
    320e:	469c      	mov	ip, r3
    3210:	2300      	movs	r3, #0
    3212:	2200      	movs	r2, #0
    3214:	4698      	mov	r8, r3
    3216:	e06b      	b.n	32f0 <__aeabi_ddiv+0x19c>
    3218:	0003      	movs	r3, r0
    321a:	4333      	orrs	r3, r6
    321c:	4699      	mov	r9, r3
    321e:	d04e      	beq.n	32be <__aeabi_ddiv+0x16a>
    3220:	2e00      	cmp	r6, #0
    3222:	d100      	bne.n	3226 <__aeabi_ddiv+0xd2>
    3224:	e1bc      	b.n	35a0 <__aeabi_ddiv+0x44c>
    3226:	0030      	movs	r0, r6
    3228:	f001 fa26 	bl	4678 <__clzsi2>
    322c:	0003      	movs	r3, r0
    322e:	3b0b      	subs	r3, #11
    3230:	2b1c      	cmp	r3, #28
    3232:	dd00      	ble.n	3236 <__aeabi_ddiv+0xe2>
    3234:	e1ac      	b.n	3590 <__aeabi_ddiv+0x43c>
    3236:	221d      	movs	r2, #29
    3238:	1ad3      	subs	r3, r2, r3
    323a:	465a      	mov	r2, fp
    323c:	0001      	movs	r1, r0
    323e:	40da      	lsrs	r2, r3
    3240:	3908      	subs	r1, #8
    3242:	408e      	lsls	r6, r1
    3244:	0013      	movs	r3, r2
    3246:	4333      	orrs	r3, r6
    3248:	4699      	mov	r9, r3
    324a:	465b      	mov	r3, fp
    324c:	408b      	lsls	r3, r1
    324e:	4698      	mov	r8, r3
    3250:	2300      	movs	r3, #0
    3252:	4c3c      	ldr	r4, [pc, #240]	; (3344 <__aeabi_ddiv+0x1f0>)
    3254:	2600      	movs	r6, #0
    3256:	1a24      	subs	r4, r4, r0
    3258:	9303      	str	r3, [sp, #12]
    325a:	e79f      	b.n	319c <__aeabi_ddiv+0x48>
    325c:	4651      	mov	r1, sl
    325e:	465a      	mov	r2, fp
    3260:	4311      	orrs	r1, r2
    3262:	d129      	bne.n	32b8 <__aeabi_ddiv+0x164>
    3264:	2200      	movs	r2, #0
    3266:	4693      	mov	fp, r2
    3268:	3202      	adds	r2, #2
    326a:	e7b1      	b.n	31d0 <__aeabi_ddiv+0x7c>
    326c:	4659      	mov	r1, fp
    326e:	4301      	orrs	r1, r0
    3270:	d01e      	beq.n	32b0 <__aeabi_ddiv+0x15c>
    3272:	465b      	mov	r3, fp
    3274:	2b00      	cmp	r3, #0
    3276:	d100      	bne.n	327a <__aeabi_ddiv+0x126>
    3278:	e19e      	b.n	35b8 <__aeabi_ddiv+0x464>
    327a:	4658      	mov	r0, fp
    327c:	f001 f9fc 	bl	4678 <__clzsi2>
    3280:	0003      	movs	r3, r0
    3282:	3b0b      	subs	r3, #11
    3284:	2b1c      	cmp	r3, #28
    3286:	dd00      	ble.n	328a <__aeabi_ddiv+0x136>
    3288:	e18f      	b.n	35aa <__aeabi_ddiv+0x456>
    328a:	0002      	movs	r2, r0
    328c:	4659      	mov	r1, fp
    328e:	3a08      	subs	r2, #8
    3290:	4091      	lsls	r1, r2
    3292:	468b      	mov	fp, r1
    3294:	211d      	movs	r1, #29
    3296:	1acb      	subs	r3, r1, r3
    3298:	4651      	mov	r1, sl
    329a:	40d9      	lsrs	r1, r3
    329c:	000b      	movs	r3, r1
    329e:	4659      	mov	r1, fp
    32a0:	430b      	orrs	r3, r1
    32a2:	4651      	mov	r1, sl
    32a4:	469b      	mov	fp, r3
    32a6:	4091      	lsls	r1, r2
    32a8:	4b26      	ldr	r3, [pc, #152]	; (3344 <__aeabi_ddiv+0x1f0>)
    32aa:	2200      	movs	r2, #0
    32ac:	1a1b      	subs	r3, r3, r0
    32ae:	e78f      	b.n	31d0 <__aeabi_ddiv+0x7c>
    32b0:	2300      	movs	r3, #0
    32b2:	2201      	movs	r2, #1
    32b4:	469b      	mov	fp, r3
    32b6:	e78b      	b.n	31d0 <__aeabi_ddiv+0x7c>
    32b8:	4651      	mov	r1, sl
    32ba:	2203      	movs	r2, #3
    32bc:	e788      	b.n	31d0 <__aeabi_ddiv+0x7c>
    32be:	2300      	movs	r3, #0
    32c0:	4698      	mov	r8, r3
    32c2:	3301      	adds	r3, #1
    32c4:	2604      	movs	r6, #4
    32c6:	2400      	movs	r4, #0
    32c8:	9303      	str	r3, [sp, #12]
    32ca:	e767      	b.n	319c <__aeabi_ddiv+0x48>
    32cc:	2303      	movs	r3, #3
    32ce:	46b1      	mov	r9, r6
    32d0:	9303      	str	r3, [sp, #12]
    32d2:	260c      	movs	r6, #12
    32d4:	e762      	b.n	319c <__aeabi_ddiv+0x48>
    32d6:	2a03      	cmp	r2, #3
    32d8:	d100      	bne.n	32dc <__aeabi_ddiv+0x188>
    32da:	e25c      	b.n	3796 <__aeabi_ddiv+0x642>
    32dc:	9b01      	ldr	r3, [sp, #4]
    32de:	2a01      	cmp	r2, #1
    32e0:	d000      	beq.n	32e4 <__aeabi_ddiv+0x190>
    32e2:	e1e4      	b.n	36ae <__aeabi_ddiv+0x55a>
    32e4:	4013      	ands	r3, r2
    32e6:	469c      	mov	ip, r3
    32e8:	2300      	movs	r3, #0
    32ea:	2400      	movs	r4, #0
    32ec:	2200      	movs	r2, #0
    32ee:	4698      	mov	r8, r3
    32f0:	2100      	movs	r1, #0
    32f2:	0312      	lsls	r2, r2, #12
    32f4:	0b13      	lsrs	r3, r2, #12
    32f6:	0d0a      	lsrs	r2, r1, #20
    32f8:	0512      	lsls	r2, r2, #20
    32fa:	431a      	orrs	r2, r3
    32fc:	0523      	lsls	r3, r4, #20
    32fe:	4c12      	ldr	r4, [pc, #72]	; (3348 <__aeabi_ddiv+0x1f4>)
    3300:	4640      	mov	r0, r8
    3302:	4022      	ands	r2, r4
    3304:	4313      	orrs	r3, r2
    3306:	4662      	mov	r2, ip
    3308:	005b      	lsls	r3, r3, #1
    330a:	07d2      	lsls	r2, r2, #31
    330c:	085b      	lsrs	r3, r3, #1
    330e:	4313      	orrs	r3, r2
    3310:	0019      	movs	r1, r3
    3312:	b007      	add	sp, #28
    3314:	bc3c      	pop	{r2, r3, r4, r5}
    3316:	4690      	mov	r8, r2
    3318:	4699      	mov	r9, r3
    331a:	46a2      	mov	sl, r4
    331c:	46ab      	mov	fp, r5
    331e:	bdf0      	pop	{r4, r5, r6, r7, pc}
    3320:	2300      	movs	r3, #0
    3322:	2280      	movs	r2, #128	; 0x80
    3324:	469c      	mov	ip, r3
    3326:	0312      	lsls	r2, r2, #12
    3328:	4698      	mov	r8, r3
    332a:	4c03      	ldr	r4, [pc, #12]	; (3338 <__aeabi_ddiv+0x1e4>)
    332c:	e7e0      	b.n	32f0 <__aeabi_ddiv+0x19c>
    332e:	2300      	movs	r3, #0
    3330:	4c01      	ldr	r4, [pc, #4]	; (3338 <__aeabi_ddiv+0x1e4>)
    3332:	2200      	movs	r2, #0
    3334:	4698      	mov	r8, r3
    3336:	e7db      	b.n	32f0 <__aeabi_ddiv+0x19c>
    3338:	000007ff 	.word	0x000007ff
    333c:	fffffc01 	.word	0xfffffc01
    3340:	00008fe8 	.word	0x00008fe8
    3344:	fffffc0d 	.word	0xfffffc0d
    3348:	800fffff 	.word	0x800fffff
    334c:	45d9      	cmp	r9, fp
    334e:	d900      	bls.n	3352 <__aeabi_ddiv+0x1fe>
    3350:	e139      	b.n	35c6 <__aeabi_ddiv+0x472>
    3352:	d100      	bne.n	3356 <__aeabi_ddiv+0x202>
    3354:	e134      	b.n	35c0 <__aeabi_ddiv+0x46c>
    3356:	2300      	movs	r3, #0
    3358:	4646      	mov	r6, r8
    335a:	464d      	mov	r5, r9
    335c:	469a      	mov	sl, r3
    335e:	3c01      	subs	r4, #1
    3360:	465b      	mov	r3, fp
    3362:	0e0a      	lsrs	r2, r1, #24
    3364:	021b      	lsls	r3, r3, #8
    3366:	431a      	orrs	r2, r3
    3368:	020b      	lsls	r3, r1, #8
    336a:	0c17      	lsrs	r7, r2, #16
    336c:	9303      	str	r3, [sp, #12]
    336e:	0413      	lsls	r3, r2, #16
    3370:	0c1b      	lsrs	r3, r3, #16
    3372:	0039      	movs	r1, r7
    3374:	0028      	movs	r0, r5
    3376:	4690      	mov	r8, r2
    3378:	9301      	str	r3, [sp, #4]
    337a:	f7fe fb6f 	bl	1a5c <__udivsi3>
    337e:	0002      	movs	r2, r0
    3380:	9b01      	ldr	r3, [sp, #4]
    3382:	4683      	mov	fp, r0
    3384:	435a      	muls	r2, r3
    3386:	0028      	movs	r0, r5
    3388:	0039      	movs	r1, r7
    338a:	4691      	mov	r9, r2
    338c:	f7fe fbec 	bl	1b68 <__aeabi_uidivmod>
    3390:	0c35      	lsrs	r5, r6, #16
    3392:	0409      	lsls	r1, r1, #16
    3394:	430d      	orrs	r5, r1
    3396:	45a9      	cmp	r9, r5
    3398:	d90d      	bls.n	33b6 <__aeabi_ddiv+0x262>
    339a:	465b      	mov	r3, fp
    339c:	4445      	add	r5, r8
    339e:	3b01      	subs	r3, #1
    33a0:	45a8      	cmp	r8, r5
    33a2:	d900      	bls.n	33a6 <__aeabi_ddiv+0x252>
    33a4:	e13a      	b.n	361c <__aeabi_ddiv+0x4c8>
    33a6:	45a9      	cmp	r9, r5
    33a8:	d800      	bhi.n	33ac <__aeabi_ddiv+0x258>
    33aa:	e137      	b.n	361c <__aeabi_ddiv+0x4c8>
    33ac:	2302      	movs	r3, #2
    33ae:	425b      	negs	r3, r3
    33b0:	469c      	mov	ip, r3
    33b2:	4445      	add	r5, r8
    33b4:	44e3      	add	fp, ip
    33b6:	464b      	mov	r3, r9
    33b8:	1aeb      	subs	r3, r5, r3
    33ba:	0039      	movs	r1, r7
    33bc:	0018      	movs	r0, r3
    33be:	9304      	str	r3, [sp, #16]
    33c0:	f7fe fb4c 	bl	1a5c <__udivsi3>
    33c4:	9b01      	ldr	r3, [sp, #4]
    33c6:	0005      	movs	r5, r0
    33c8:	4343      	muls	r3, r0
    33ca:	0039      	movs	r1, r7
    33cc:	9804      	ldr	r0, [sp, #16]
    33ce:	4699      	mov	r9, r3
    33d0:	f7fe fbca 	bl	1b68 <__aeabi_uidivmod>
    33d4:	0433      	lsls	r3, r6, #16
    33d6:	0409      	lsls	r1, r1, #16
    33d8:	0c1b      	lsrs	r3, r3, #16
    33da:	430b      	orrs	r3, r1
    33dc:	4599      	cmp	r9, r3
    33de:	d909      	bls.n	33f4 <__aeabi_ddiv+0x2a0>
    33e0:	4443      	add	r3, r8
    33e2:	1e6a      	subs	r2, r5, #1
    33e4:	4598      	cmp	r8, r3
    33e6:	d900      	bls.n	33ea <__aeabi_ddiv+0x296>
    33e8:	e11a      	b.n	3620 <__aeabi_ddiv+0x4cc>
    33ea:	4599      	cmp	r9, r3
    33ec:	d800      	bhi.n	33f0 <__aeabi_ddiv+0x29c>
    33ee:	e117      	b.n	3620 <__aeabi_ddiv+0x4cc>
    33f0:	3d02      	subs	r5, #2
    33f2:	4443      	add	r3, r8
    33f4:	464a      	mov	r2, r9
    33f6:	1a9b      	subs	r3, r3, r2
    33f8:	465a      	mov	r2, fp
    33fa:	0412      	lsls	r2, r2, #16
    33fc:	432a      	orrs	r2, r5
    33fe:	9903      	ldr	r1, [sp, #12]
    3400:	4693      	mov	fp, r2
    3402:	0c10      	lsrs	r0, r2, #16
    3404:	0c0a      	lsrs	r2, r1, #16
    3406:	4691      	mov	r9, r2
    3408:	0409      	lsls	r1, r1, #16
    340a:	465a      	mov	r2, fp
    340c:	0c09      	lsrs	r1, r1, #16
    340e:	464e      	mov	r6, r9
    3410:	000d      	movs	r5, r1
    3412:	0412      	lsls	r2, r2, #16
    3414:	0c12      	lsrs	r2, r2, #16
    3416:	4345      	muls	r5, r0
    3418:	9105      	str	r1, [sp, #20]
    341a:	4351      	muls	r1, r2
    341c:	4372      	muls	r2, r6
    341e:	4370      	muls	r0, r6
    3420:	1952      	adds	r2, r2, r5
    3422:	0c0e      	lsrs	r6, r1, #16
    3424:	18b2      	adds	r2, r6, r2
    3426:	4295      	cmp	r5, r2
    3428:	d903      	bls.n	3432 <__aeabi_ddiv+0x2de>
    342a:	2580      	movs	r5, #128	; 0x80
    342c:	026d      	lsls	r5, r5, #9
    342e:	46ac      	mov	ip, r5
    3430:	4460      	add	r0, ip
    3432:	0c15      	lsrs	r5, r2, #16
    3434:	0409      	lsls	r1, r1, #16
    3436:	0412      	lsls	r2, r2, #16
    3438:	0c09      	lsrs	r1, r1, #16
    343a:	1828      	adds	r0, r5, r0
    343c:	1852      	adds	r2, r2, r1
    343e:	4283      	cmp	r3, r0
    3440:	d200      	bcs.n	3444 <__aeabi_ddiv+0x2f0>
    3442:	e0ce      	b.n	35e2 <__aeabi_ddiv+0x48e>
    3444:	d100      	bne.n	3448 <__aeabi_ddiv+0x2f4>
    3446:	e0c8      	b.n	35da <__aeabi_ddiv+0x486>
    3448:	1a1d      	subs	r5, r3, r0
    344a:	4653      	mov	r3, sl
    344c:	1a9e      	subs	r6, r3, r2
    344e:	45b2      	cmp	sl, r6
    3450:	4192      	sbcs	r2, r2
    3452:	4252      	negs	r2, r2
    3454:	1aab      	subs	r3, r5, r2
    3456:	469a      	mov	sl, r3
    3458:	4598      	cmp	r8, r3
    345a:	d100      	bne.n	345e <__aeabi_ddiv+0x30a>
    345c:	e117      	b.n	368e <__aeabi_ddiv+0x53a>
    345e:	0039      	movs	r1, r7
    3460:	0018      	movs	r0, r3
    3462:	f7fe fafb 	bl	1a5c <__udivsi3>
    3466:	9b01      	ldr	r3, [sp, #4]
    3468:	0005      	movs	r5, r0
    346a:	4343      	muls	r3, r0
    346c:	0039      	movs	r1, r7
    346e:	4650      	mov	r0, sl
    3470:	9304      	str	r3, [sp, #16]
    3472:	f7fe fb79 	bl	1b68 <__aeabi_uidivmod>
    3476:	9804      	ldr	r0, [sp, #16]
    3478:	040b      	lsls	r3, r1, #16
    347a:	0c31      	lsrs	r1, r6, #16
    347c:	4319      	orrs	r1, r3
    347e:	4288      	cmp	r0, r1
    3480:	d909      	bls.n	3496 <__aeabi_ddiv+0x342>
    3482:	4441      	add	r1, r8
    3484:	1e6b      	subs	r3, r5, #1
    3486:	4588      	cmp	r8, r1
    3488:	d900      	bls.n	348c <__aeabi_ddiv+0x338>
    348a:	e107      	b.n	369c <__aeabi_ddiv+0x548>
    348c:	4288      	cmp	r0, r1
    348e:	d800      	bhi.n	3492 <__aeabi_ddiv+0x33e>
    3490:	e104      	b.n	369c <__aeabi_ddiv+0x548>
    3492:	3d02      	subs	r5, #2
    3494:	4441      	add	r1, r8
    3496:	9b04      	ldr	r3, [sp, #16]
    3498:	1acb      	subs	r3, r1, r3
    349a:	0018      	movs	r0, r3
    349c:	0039      	movs	r1, r7
    349e:	9304      	str	r3, [sp, #16]
    34a0:	f7fe fadc 	bl	1a5c <__udivsi3>
    34a4:	9b01      	ldr	r3, [sp, #4]
    34a6:	4682      	mov	sl, r0
    34a8:	4343      	muls	r3, r0
    34aa:	0039      	movs	r1, r7
    34ac:	9804      	ldr	r0, [sp, #16]
    34ae:	9301      	str	r3, [sp, #4]
    34b0:	f7fe fb5a 	bl	1b68 <__aeabi_uidivmod>
    34b4:	9801      	ldr	r0, [sp, #4]
    34b6:	040b      	lsls	r3, r1, #16
    34b8:	0431      	lsls	r1, r6, #16
    34ba:	0c09      	lsrs	r1, r1, #16
    34bc:	4319      	orrs	r1, r3
    34be:	4288      	cmp	r0, r1
    34c0:	d90d      	bls.n	34de <__aeabi_ddiv+0x38a>
    34c2:	4653      	mov	r3, sl
    34c4:	4441      	add	r1, r8
    34c6:	3b01      	subs	r3, #1
    34c8:	4588      	cmp	r8, r1
    34ca:	d900      	bls.n	34ce <__aeabi_ddiv+0x37a>
    34cc:	e0e8      	b.n	36a0 <__aeabi_ddiv+0x54c>
    34ce:	4288      	cmp	r0, r1
    34d0:	d800      	bhi.n	34d4 <__aeabi_ddiv+0x380>
    34d2:	e0e5      	b.n	36a0 <__aeabi_ddiv+0x54c>
    34d4:	2302      	movs	r3, #2
    34d6:	425b      	negs	r3, r3
    34d8:	469c      	mov	ip, r3
    34da:	4441      	add	r1, r8
    34dc:	44e2      	add	sl, ip
    34de:	9b01      	ldr	r3, [sp, #4]
    34e0:	042d      	lsls	r5, r5, #16
    34e2:	1ace      	subs	r6, r1, r3
    34e4:	4651      	mov	r1, sl
    34e6:	4329      	orrs	r1, r5
    34e8:	9d05      	ldr	r5, [sp, #20]
    34ea:	464f      	mov	r7, r9
    34ec:	002a      	movs	r2, r5
    34ee:	040b      	lsls	r3, r1, #16
    34f0:	0c08      	lsrs	r0, r1, #16
    34f2:	0c1b      	lsrs	r3, r3, #16
    34f4:	435a      	muls	r2, r3
    34f6:	4345      	muls	r5, r0
    34f8:	437b      	muls	r3, r7
    34fa:	4378      	muls	r0, r7
    34fc:	195b      	adds	r3, r3, r5
    34fe:	0c17      	lsrs	r7, r2, #16
    3500:	18fb      	adds	r3, r7, r3
    3502:	429d      	cmp	r5, r3
    3504:	d903      	bls.n	350e <__aeabi_ddiv+0x3ba>
    3506:	2580      	movs	r5, #128	; 0x80
    3508:	026d      	lsls	r5, r5, #9
    350a:	46ac      	mov	ip, r5
    350c:	4460      	add	r0, ip
    350e:	0c1d      	lsrs	r5, r3, #16
    3510:	0412      	lsls	r2, r2, #16
    3512:	041b      	lsls	r3, r3, #16
    3514:	0c12      	lsrs	r2, r2, #16
    3516:	1828      	adds	r0, r5, r0
    3518:	189b      	adds	r3, r3, r2
    351a:	4286      	cmp	r6, r0
    351c:	d200      	bcs.n	3520 <__aeabi_ddiv+0x3cc>
    351e:	e093      	b.n	3648 <__aeabi_ddiv+0x4f4>
    3520:	d100      	bne.n	3524 <__aeabi_ddiv+0x3d0>
    3522:	e08e      	b.n	3642 <__aeabi_ddiv+0x4ee>
    3524:	2301      	movs	r3, #1
    3526:	4319      	orrs	r1, r3
    3528:	4ba0      	ldr	r3, [pc, #640]	; (37ac <__aeabi_ddiv+0x658>)
    352a:	18e3      	adds	r3, r4, r3
    352c:	2b00      	cmp	r3, #0
    352e:	dc00      	bgt.n	3532 <__aeabi_ddiv+0x3de>
    3530:	e099      	b.n	3666 <__aeabi_ddiv+0x512>
    3532:	074a      	lsls	r2, r1, #29
    3534:	d000      	beq.n	3538 <__aeabi_ddiv+0x3e4>
    3536:	e09e      	b.n	3676 <__aeabi_ddiv+0x522>
    3538:	465a      	mov	r2, fp
    353a:	01d2      	lsls	r2, r2, #7
    353c:	d506      	bpl.n	354c <__aeabi_ddiv+0x3f8>
    353e:	465a      	mov	r2, fp
    3540:	4b9b      	ldr	r3, [pc, #620]	; (37b0 <__aeabi_ddiv+0x65c>)
    3542:	401a      	ands	r2, r3
    3544:	2380      	movs	r3, #128	; 0x80
    3546:	4693      	mov	fp, r2
    3548:	00db      	lsls	r3, r3, #3
    354a:	18e3      	adds	r3, r4, r3
    354c:	4a99      	ldr	r2, [pc, #612]	; (37b4 <__aeabi_ddiv+0x660>)
    354e:	4293      	cmp	r3, r2
    3550:	dd68      	ble.n	3624 <__aeabi_ddiv+0x4d0>
    3552:	2301      	movs	r3, #1
    3554:	9a02      	ldr	r2, [sp, #8]
    3556:	4c98      	ldr	r4, [pc, #608]	; (37b8 <__aeabi_ddiv+0x664>)
    3558:	401a      	ands	r2, r3
    355a:	2300      	movs	r3, #0
    355c:	4694      	mov	ip, r2
    355e:	4698      	mov	r8, r3
    3560:	2200      	movs	r2, #0
    3562:	e6c5      	b.n	32f0 <__aeabi_ddiv+0x19c>
    3564:	2280      	movs	r2, #128	; 0x80
    3566:	464b      	mov	r3, r9
    3568:	0312      	lsls	r2, r2, #12
    356a:	4213      	tst	r3, r2
    356c:	d00a      	beq.n	3584 <__aeabi_ddiv+0x430>
    356e:	465b      	mov	r3, fp
    3570:	4213      	tst	r3, r2
    3572:	d106      	bne.n	3582 <__aeabi_ddiv+0x42e>
    3574:	431a      	orrs	r2, r3
    3576:	0312      	lsls	r2, r2, #12
    3578:	0b12      	lsrs	r2, r2, #12
    357a:	46ac      	mov	ip, r5
    357c:	4688      	mov	r8, r1
    357e:	4c8e      	ldr	r4, [pc, #568]	; (37b8 <__aeabi_ddiv+0x664>)
    3580:	e6b6      	b.n	32f0 <__aeabi_ddiv+0x19c>
    3582:	464b      	mov	r3, r9
    3584:	431a      	orrs	r2, r3
    3586:	0312      	lsls	r2, r2, #12
    3588:	0b12      	lsrs	r2, r2, #12
    358a:	46bc      	mov	ip, r7
    358c:	4c8a      	ldr	r4, [pc, #552]	; (37b8 <__aeabi_ddiv+0x664>)
    358e:	e6af      	b.n	32f0 <__aeabi_ddiv+0x19c>
    3590:	0003      	movs	r3, r0
    3592:	465a      	mov	r2, fp
    3594:	3b28      	subs	r3, #40	; 0x28
    3596:	409a      	lsls	r2, r3
    3598:	2300      	movs	r3, #0
    359a:	4691      	mov	r9, r2
    359c:	4698      	mov	r8, r3
    359e:	e657      	b.n	3250 <__aeabi_ddiv+0xfc>
    35a0:	4658      	mov	r0, fp
    35a2:	f001 f869 	bl	4678 <__clzsi2>
    35a6:	3020      	adds	r0, #32
    35a8:	e640      	b.n	322c <__aeabi_ddiv+0xd8>
    35aa:	0003      	movs	r3, r0
    35ac:	4652      	mov	r2, sl
    35ae:	3b28      	subs	r3, #40	; 0x28
    35b0:	409a      	lsls	r2, r3
    35b2:	2100      	movs	r1, #0
    35b4:	4693      	mov	fp, r2
    35b6:	e677      	b.n	32a8 <__aeabi_ddiv+0x154>
    35b8:	f001 f85e 	bl	4678 <__clzsi2>
    35bc:	3020      	adds	r0, #32
    35be:	e65f      	b.n	3280 <__aeabi_ddiv+0x12c>
    35c0:	4588      	cmp	r8, r1
    35c2:	d200      	bcs.n	35c6 <__aeabi_ddiv+0x472>
    35c4:	e6c7      	b.n	3356 <__aeabi_ddiv+0x202>
    35c6:	464b      	mov	r3, r9
    35c8:	07de      	lsls	r6, r3, #31
    35ca:	085d      	lsrs	r5, r3, #1
    35cc:	4643      	mov	r3, r8
    35ce:	085b      	lsrs	r3, r3, #1
    35d0:	431e      	orrs	r6, r3
    35d2:	4643      	mov	r3, r8
    35d4:	07db      	lsls	r3, r3, #31
    35d6:	469a      	mov	sl, r3
    35d8:	e6c2      	b.n	3360 <__aeabi_ddiv+0x20c>
    35da:	2500      	movs	r5, #0
    35dc:	4592      	cmp	sl, r2
    35de:	d300      	bcc.n	35e2 <__aeabi_ddiv+0x48e>
    35e0:	e733      	b.n	344a <__aeabi_ddiv+0x2f6>
    35e2:	9e03      	ldr	r6, [sp, #12]
    35e4:	4659      	mov	r1, fp
    35e6:	46b4      	mov	ip, r6
    35e8:	44e2      	add	sl, ip
    35ea:	45b2      	cmp	sl, r6
    35ec:	41ad      	sbcs	r5, r5
    35ee:	426d      	negs	r5, r5
    35f0:	4445      	add	r5, r8
    35f2:	18eb      	adds	r3, r5, r3
    35f4:	3901      	subs	r1, #1
    35f6:	4598      	cmp	r8, r3
    35f8:	d207      	bcs.n	360a <__aeabi_ddiv+0x4b6>
    35fa:	4298      	cmp	r0, r3
    35fc:	d900      	bls.n	3600 <__aeabi_ddiv+0x4ac>
    35fe:	e07f      	b.n	3700 <__aeabi_ddiv+0x5ac>
    3600:	d100      	bne.n	3604 <__aeabi_ddiv+0x4b0>
    3602:	e0bc      	b.n	377e <__aeabi_ddiv+0x62a>
    3604:	1a1d      	subs	r5, r3, r0
    3606:	468b      	mov	fp, r1
    3608:	e71f      	b.n	344a <__aeabi_ddiv+0x2f6>
    360a:	4598      	cmp	r8, r3
    360c:	d1fa      	bne.n	3604 <__aeabi_ddiv+0x4b0>
    360e:	9d03      	ldr	r5, [sp, #12]
    3610:	4555      	cmp	r5, sl
    3612:	d9f2      	bls.n	35fa <__aeabi_ddiv+0x4a6>
    3614:	4643      	mov	r3, r8
    3616:	468b      	mov	fp, r1
    3618:	1a1d      	subs	r5, r3, r0
    361a:	e716      	b.n	344a <__aeabi_ddiv+0x2f6>
    361c:	469b      	mov	fp, r3
    361e:	e6ca      	b.n	33b6 <__aeabi_ddiv+0x262>
    3620:	0015      	movs	r5, r2
    3622:	e6e7      	b.n	33f4 <__aeabi_ddiv+0x2a0>
    3624:	465a      	mov	r2, fp
    3626:	08c9      	lsrs	r1, r1, #3
    3628:	0752      	lsls	r2, r2, #29
    362a:	430a      	orrs	r2, r1
    362c:	055b      	lsls	r3, r3, #21
    362e:	4690      	mov	r8, r2
    3630:	0d5c      	lsrs	r4, r3, #21
    3632:	465a      	mov	r2, fp
    3634:	2301      	movs	r3, #1
    3636:	9902      	ldr	r1, [sp, #8]
    3638:	0252      	lsls	r2, r2, #9
    363a:	4019      	ands	r1, r3
    363c:	0b12      	lsrs	r2, r2, #12
    363e:	468c      	mov	ip, r1
    3640:	e656      	b.n	32f0 <__aeabi_ddiv+0x19c>
    3642:	2b00      	cmp	r3, #0
    3644:	d100      	bne.n	3648 <__aeabi_ddiv+0x4f4>
    3646:	e76f      	b.n	3528 <__aeabi_ddiv+0x3d4>
    3648:	4446      	add	r6, r8
    364a:	1e4a      	subs	r2, r1, #1
    364c:	45b0      	cmp	r8, r6
    364e:	d929      	bls.n	36a4 <__aeabi_ddiv+0x550>
    3650:	0011      	movs	r1, r2
    3652:	4286      	cmp	r6, r0
    3654:	d000      	beq.n	3658 <__aeabi_ddiv+0x504>
    3656:	e765      	b.n	3524 <__aeabi_ddiv+0x3d0>
    3658:	9a03      	ldr	r2, [sp, #12]
    365a:	4293      	cmp	r3, r2
    365c:	d000      	beq.n	3660 <__aeabi_ddiv+0x50c>
    365e:	e761      	b.n	3524 <__aeabi_ddiv+0x3d0>
    3660:	e762      	b.n	3528 <__aeabi_ddiv+0x3d4>
    3662:	2101      	movs	r1, #1
    3664:	4249      	negs	r1, r1
    3666:	2001      	movs	r0, #1
    3668:	1ac2      	subs	r2, r0, r3
    366a:	2a38      	cmp	r2, #56	; 0x38
    366c:	dd21      	ble.n	36b2 <__aeabi_ddiv+0x55e>
    366e:	9b02      	ldr	r3, [sp, #8]
    3670:	4003      	ands	r3, r0
    3672:	469c      	mov	ip, r3
    3674:	e638      	b.n	32e8 <__aeabi_ddiv+0x194>
    3676:	220f      	movs	r2, #15
    3678:	400a      	ands	r2, r1
    367a:	2a04      	cmp	r2, #4
    367c:	d100      	bne.n	3680 <__aeabi_ddiv+0x52c>
    367e:	e75b      	b.n	3538 <__aeabi_ddiv+0x3e4>
    3680:	000a      	movs	r2, r1
    3682:	1d11      	adds	r1, r2, #4
    3684:	4291      	cmp	r1, r2
    3686:	4192      	sbcs	r2, r2
    3688:	4252      	negs	r2, r2
    368a:	4493      	add	fp, r2
    368c:	e754      	b.n	3538 <__aeabi_ddiv+0x3e4>
    368e:	4b47      	ldr	r3, [pc, #284]	; (37ac <__aeabi_ddiv+0x658>)
    3690:	18e3      	adds	r3, r4, r3
    3692:	2b00      	cmp	r3, #0
    3694:	dde5      	ble.n	3662 <__aeabi_ddiv+0x50e>
    3696:	2201      	movs	r2, #1
    3698:	4252      	negs	r2, r2
    369a:	e7f2      	b.n	3682 <__aeabi_ddiv+0x52e>
    369c:	001d      	movs	r5, r3
    369e:	e6fa      	b.n	3496 <__aeabi_ddiv+0x342>
    36a0:	469a      	mov	sl, r3
    36a2:	e71c      	b.n	34de <__aeabi_ddiv+0x38a>
    36a4:	42b0      	cmp	r0, r6
    36a6:	d839      	bhi.n	371c <__aeabi_ddiv+0x5c8>
    36a8:	d06e      	beq.n	3788 <__aeabi_ddiv+0x634>
    36aa:	0011      	movs	r1, r2
    36ac:	e73a      	b.n	3524 <__aeabi_ddiv+0x3d0>
    36ae:	9302      	str	r3, [sp, #8]
    36b0:	e73a      	b.n	3528 <__aeabi_ddiv+0x3d4>
    36b2:	2a1f      	cmp	r2, #31
    36b4:	dc3c      	bgt.n	3730 <__aeabi_ddiv+0x5dc>
    36b6:	2320      	movs	r3, #32
    36b8:	1a9b      	subs	r3, r3, r2
    36ba:	000c      	movs	r4, r1
    36bc:	4658      	mov	r0, fp
    36be:	4099      	lsls	r1, r3
    36c0:	4098      	lsls	r0, r3
    36c2:	1e4b      	subs	r3, r1, #1
    36c4:	4199      	sbcs	r1, r3
    36c6:	465b      	mov	r3, fp
    36c8:	40d4      	lsrs	r4, r2
    36ca:	40d3      	lsrs	r3, r2
    36cc:	4320      	orrs	r0, r4
    36ce:	4308      	orrs	r0, r1
    36d0:	001a      	movs	r2, r3
    36d2:	0743      	lsls	r3, r0, #29
    36d4:	d009      	beq.n	36ea <__aeabi_ddiv+0x596>
    36d6:	230f      	movs	r3, #15
    36d8:	4003      	ands	r3, r0
    36da:	2b04      	cmp	r3, #4
    36dc:	d005      	beq.n	36ea <__aeabi_ddiv+0x596>
    36de:	0001      	movs	r1, r0
    36e0:	1d08      	adds	r0, r1, #4
    36e2:	4288      	cmp	r0, r1
    36e4:	419b      	sbcs	r3, r3
    36e6:	425b      	negs	r3, r3
    36e8:	18d2      	adds	r2, r2, r3
    36ea:	0213      	lsls	r3, r2, #8
    36ec:	d53a      	bpl.n	3764 <__aeabi_ddiv+0x610>
    36ee:	2301      	movs	r3, #1
    36f0:	9a02      	ldr	r2, [sp, #8]
    36f2:	2401      	movs	r4, #1
    36f4:	401a      	ands	r2, r3
    36f6:	2300      	movs	r3, #0
    36f8:	4694      	mov	ip, r2
    36fa:	4698      	mov	r8, r3
    36fc:	2200      	movs	r2, #0
    36fe:	e5f7      	b.n	32f0 <__aeabi_ddiv+0x19c>
    3700:	2102      	movs	r1, #2
    3702:	4249      	negs	r1, r1
    3704:	468c      	mov	ip, r1
    3706:	9d03      	ldr	r5, [sp, #12]
    3708:	44e3      	add	fp, ip
    370a:	46ac      	mov	ip, r5
    370c:	44e2      	add	sl, ip
    370e:	45aa      	cmp	sl, r5
    3710:	41ad      	sbcs	r5, r5
    3712:	426d      	negs	r5, r5
    3714:	4445      	add	r5, r8
    3716:	18ed      	adds	r5, r5, r3
    3718:	1a2d      	subs	r5, r5, r0
    371a:	e696      	b.n	344a <__aeabi_ddiv+0x2f6>
    371c:	1e8a      	subs	r2, r1, #2
    371e:	9903      	ldr	r1, [sp, #12]
    3720:	004d      	lsls	r5, r1, #1
    3722:	428d      	cmp	r5, r1
    3724:	4189      	sbcs	r1, r1
    3726:	4249      	negs	r1, r1
    3728:	4441      	add	r1, r8
    372a:	1876      	adds	r6, r6, r1
    372c:	9503      	str	r5, [sp, #12]
    372e:	e78f      	b.n	3650 <__aeabi_ddiv+0x4fc>
    3730:	201f      	movs	r0, #31
    3732:	4240      	negs	r0, r0
    3734:	1ac3      	subs	r3, r0, r3
    3736:	4658      	mov	r0, fp
    3738:	40d8      	lsrs	r0, r3
    373a:	0003      	movs	r3, r0
    373c:	2a20      	cmp	r2, #32
    373e:	d028      	beq.n	3792 <__aeabi_ddiv+0x63e>
    3740:	2040      	movs	r0, #64	; 0x40
    3742:	465d      	mov	r5, fp
    3744:	1a82      	subs	r2, r0, r2
    3746:	4095      	lsls	r5, r2
    3748:	4329      	orrs	r1, r5
    374a:	1e4a      	subs	r2, r1, #1
    374c:	4191      	sbcs	r1, r2
    374e:	4319      	orrs	r1, r3
    3750:	2307      	movs	r3, #7
    3752:	2200      	movs	r2, #0
    3754:	400b      	ands	r3, r1
    3756:	d009      	beq.n	376c <__aeabi_ddiv+0x618>
    3758:	230f      	movs	r3, #15
    375a:	2200      	movs	r2, #0
    375c:	400b      	ands	r3, r1
    375e:	0008      	movs	r0, r1
    3760:	2b04      	cmp	r3, #4
    3762:	d1bd      	bne.n	36e0 <__aeabi_ddiv+0x58c>
    3764:	0001      	movs	r1, r0
    3766:	0753      	lsls	r3, r2, #29
    3768:	0252      	lsls	r2, r2, #9
    376a:	0b12      	lsrs	r2, r2, #12
    376c:	08c9      	lsrs	r1, r1, #3
    376e:	4319      	orrs	r1, r3
    3770:	2301      	movs	r3, #1
    3772:	4688      	mov	r8, r1
    3774:	9902      	ldr	r1, [sp, #8]
    3776:	2400      	movs	r4, #0
    3778:	4019      	ands	r1, r3
    377a:	468c      	mov	ip, r1
    377c:	e5b8      	b.n	32f0 <__aeabi_ddiv+0x19c>
    377e:	4552      	cmp	r2, sl
    3780:	d8be      	bhi.n	3700 <__aeabi_ddiv+0x5ac>
    3782:	468b      	mov	fp, r1
    3784:	2500      	movs	r5, #0
    3786:	e660      	b.n	344a <__aeabi_ddiv+0x2f6>
    3788:	9d03      	ldr	r5, [sp, #12]
    378a:	429d      	cmp	r5, r3
    378c:	d3c6      	bcc.n	371c <__aeabi_ddiv+0x5c8>
    378e:	0011      	movs	r1, r2
    3790:	e762      	b.n	3658 <__aeabi_ddiv+0x504>
    3792:	2500      	movs	r5, #0
    3794:	e7d8      	b.n	3748 <__aeabi_ddiv+0x5f4>
    3796:	2280      	movs	r2, #128	; 0x80
    3798:	465b      	mov	r3, fp
    379a:	0312      	lsls	r2, r2, #12
    379c:	431a      	orrs	r2, r3
    379e:	9b01      	ldr	r3, [sp, #4]
    37a0:	0312      	lsls	r2, r2, #12
    37a2:	0b12      	lsrs	r2, r2, #12
    37a4:	469c      	mov	ip, r3
    37a6:	4688      	mov	r8, r1
    37a8:	4c03      	ldr	r4, [pc, #12]	; (37b8 <__aeabi_ddiv+0x664>)
    37aa:	e5a1      	b.n	32f0 <__aeabi_ddiv+0x19c>
    37ac:	000003ff 	.word	0x000003ff
    37b0:	feffffff 	.word	0xfeffffff
    37b4:	000007fe 	.word	0x000007fe
    37b8:	000007ff 	.word	0x000007ff

000037bc <__aeabi_dmul>:
    37bc:	b5f0      	push	{r4, r5, r6, r7, lr}
    37be:	4657      	mov	r7, sl
    37c0:	4645      	mov	r5, r8
    37c2:	46de      	mov	lr, fp
    37c4:	464e      	mov	r6, r9
    37c6:	b5e0      	push	{r5, r6, r7, lr}
    37c8:	030c      	lsls	r4, r1, #12
    37ca:	4698      	mov	r8, r3
    37cc:	004e      	lsls	r6, r1, #1
    37ce:	0b23      	lsrs	r3, r4, #12
    37d0:	b087      	sub	sp, #28
    37d2:	0007      	movs	r7, r0
    37d4:	4692      	mov	sl, r2
    37d6:	469b      	mov	fp, r3
    37d8:	0d76      	lsrs	r6, r6, #21
    37da:	0fcd      	lsrs	r5, r1, #31
    37dc:	2e00      	cmp	r6, #0
    37de:	d06b      	beq.n	38b8 <__aeabi_dmul+0xfc>
    37e0:	4b6d      	ldr	r3, [pc, #436]	; (3998 <__aeabi_dmul+0x1dc>)
    37e2:	429e      	cmp	r6, r3
    37e4:	d035      	beq.n	3852 <__aeabi_dmul+0x96>
    37e6:	2480      	movs	r4, #128	; 0x80
    37e8:	465b      	mov	r3, fp
    37ea:	0f42      	lsrs	r2, r0, #29
    37ec:	0424      	lsls	r4, r4, #16
    37ee:	00db      	lsls	r3, r3, #3
    37f0:	4314      	orrs	r4, r2
    37f2:	431c      	orrs	r4, r3
    37f4:	00c3      	lsls	r3, r0, #3
    37f6:	4699      	mov	r9, r3
    37f8:	4b68      	ldr	r3, [pc, #416]	; (399c <__aeabi_dmul+0x1e0>)
    37fa:	46a3      	mov	fp, r4
    37fc:	469c      	mov	ip, r3
    37fe:	2300      	movs	r3, #0
    3800:	2700      	movs	r7, #0
    3802:	4466      	add	r6, ip
    3804:	9302      	str	r3, [sp, #8]
    3806:	4643      	mov	r3, r8
    3808:	031c      	lsls	r4, r3, #12
    380a:	005a      	lsls	r2, r3, #1
    380c:	0fdb      	lsrs	r3, r3, #31
    380e:	4650      	mov	r0, sl
    3810:	0b24      	lsrs	r4, r4, #12
    3812:	0d52      	lsrs	r2, r2, #21
    3814:	4698      	mov	r8, r3
    3816:	d100      	bne.n	381a <__aeabi_dmul+0x5e>
    3818:	e076      	b.n	3908 <__aeabi_dmul+0x14c>
    381a:	4b5f      	ldr	r3, [pc, #380]	; (3998 <__aeabi_dmul+0x1dc>)
    381c:	429a      	cmp	r2, r3
    381e:	d06d      	beq.n	38fc <__aeabi_dmul+0x140>
    3820:	2380      	movs	r3, #128	; 0x80
    3822:	0f41      	lsrs	r1, r0, #29
    3824:	041b      	lsls	r3, r3, #16
    3826:	430b      	orrs	r3, r1
    3828:	495c      	ldr	r1, [pc, #368]	; (399c <__aeabi_dmul+0x1e0>)
    382a:	00e4      	lsls	r4, r4, #3
    382c:	468c      	mov	ip, r1
    382e:	431c      	orrs	r4, r3
    3830:	00c3      	lsls	r3, r0, #3
    3832:	2000      	movs	r0, #0
    3834:	4462      	add	r2, ip
    3836:	4641      	mov	r1, r8
    3838:	18b6      	adds	r6, r6, r2
    383a:	4069      	eors	r1, r5
    383c:	1c72      	adds	r2, r6, #1
    383e:	9101      	str	r1, [sp, #4]
    3840:	4694      	mov	ip, r2
    3842:	4307      	orrs	r7, r0
    3844:	2f0f      	cmp	r7, #15
    3846:	d900      	bls.n	384a <__aeabi_dmul+0x8e>
    3848:	e0b0      	b.n	39ac <__aeabi_dmul+0x1f0>
    384a:	4a55      	ldr	r2, [pc, #340]	; (39a0 <__aeabi_dmul+0x1e4>)
    384c:	00bf      	lsls	r7, r7, #2
    384e:	59d2      	ldr	r2, [r2, r7]
    3850:	4697      	mov	pc, r2
    3852:	465b      	mov	r3, fp
    3854:	4303      	orrs	r3, r0
    3856:	4699      	mov	r9, r3
    3858:	d000      	beq.n	385c <__aeabi_dmul+0xa0>
    385a:	e087      	b.n	396c <__aeabi_dmul+0x1b0>
    385c:	2300      	movs	r3, #0
    385e:	469b      	mov	fp, r3
    3860:	3302      	adds	r3, #2
    3862:	2708      	movs	r7, #8
    3864:	9302      	str	r3, [sp, #8]
    3866:	e7ce      	b.n	3806 <__aeabi_dmul+0x4a>
    3868:	4642      	mov	r2, r8
    386a:	9201      	str	r2, [sp, #4]
    386c:	2802      	cmp	r0, #2
    386e:	d067      	beq.n	3940 <__aeabi_dmul+0x184>
    3870:	2803      	cmp	r0, #3
    3872:	d100      	bne.n	3876 <__aeabi_dmul+0xba>
    3874:	e20e      	b.n	3c94 <__aeabi_dmul+0x4d8>
    3876:	2801      	cmp	r0, #1
    3878:	d000      	beq.n	387c <__aeabi_dmul+0xc0>
    387a:	e162      	b.n	3b42 <__aeabi_dmul+0x386>
    387c:	2300      	movs	r3, #0
    387e:	2400      	movs	r4, #0
    3880:	2200      	movs	r2, #0
    3882:	4699      	mov	r9, r3
    3884:	9901      	ldr	r1, [sp, #4]
    3886:	4001      	ands	r1, r0
    3888:	b2cd      	uxtb	r5, r1
    388a:	2100      	movs	r1, #0
    388c:	0312      	lsls	r2, r2, #12
    388e:	0d0b      	lsrs	r3, r1, #20
    3890:	0b12      	lsrs	r2, r2, #12
    3892:	051b      	lsls	r3, r3, #20
    3894:	4313      	orrs	r3, r2
    3896:	4a43      	ldr	r2, [pc, #268]	; (39a4 <__aeabi_dmul+0x1e8>)
    3898:	0524      	lsls	r4, r4, #20
    389a:	4013      	ands	r3, r2
    389c:	431c      	orrs	r4, r3
    389e:	0064      	lsls	r4, r4, #1
    38a0:	07ed      	lsls	r5, r5, #31
    38a2:	0864      	lsrs	r4, r4, #1
    38a4:	432c      	orrs	r4, r5
    38a6:	4648      	mov	r0, r9
    38a8:	0021      	movs	r1, r4
    38aa:	b007      	add	sp, #28
    38ac:	bc3c      	pop	{r2, r3, r4, r5}
    38ae:	4690      	mov	r8, r2
    38b0:	4699      	mov	r9, r3
    38b2:	46a2      	mov	sl, r4
    38b4:	46ab      	mov	fp, r5
    38b6:	bdf0      	pop	{r4, r5, r6, r7, pc}
    38b8:	4303      	orrs	r3, r0
    38ba:	4699      	mov	r9, r3
    38bc:	d04f      	beq.n	395e <__aeabi_dmul+0x1a2>
    38be:	465b      	mov	r3, fp
    38c0:	2b00      	cmp	r3, #0
    38c2:	d100      	bne.n	38c6 <__aeabi_dmul+0x10a>
    38c4:	e189      	b.n	3bda <__aeabi_dmul+0x41e>
    38c6:	4658      	mov	r0, fp
    38c8:	f000 fed6 	bl	4678 <__clzsi2>
    38cc:	0003      	movs	r3, r0
    38ce:	3b0b      	subs	r3, #11
    38d0:	2b1c      	cmp	r3, #28
    38d2:	dd00      	ble.n	38d6 <__aeabi_dmul+0x11a>
    38d4:	e17a      	b.n	3bcc <__aeabi_dmul+0x410>
    38d6:	221d      	movs	r2, #29
    38d8:	1ad3      	subs	r3, r2, r3
    38da:	003a      	movs	r2, r7
    38dc:	0001      	movs	r1, r0
    38de:	465c      	mov	r4, fp
    38e0:	40da      	lsrs	r2, r3
    38e2:	3908      	subs	r1, #8
    38e4:	408c      	lsls	r4, r1
    38e6:	0013      	movs	r3, r2
    38e8:	408f      	lsls	r7, r1
    38ea:	4323      	orrs	r3, r4
    38ec:	469b      	mov	fp, r3
    38ee:	46b9      	mov	r9, r7
    38f0:	2300      	movs	r3, #0
    38f2:	4e2d      	ldr	r6, [pc, #180]	; (39a8 <__aeabi_dmul+0x1ec>)
    38f4:	2700      	movs	r7, #0
    38f6:	1a36      	subs	r6, r6, r0
    38f8:	9302      	str	r3, [sp, #8]
    38fa:	e784      	b.n	3806 <__aeabi_dmul+0x4a>
    38fc:	4653      	mov	r3, sl
    38fe:	4323      	orrs	r3, r4
    3900:	d12a      	bne.n	3958 <__aeabi_dmul+0x19c>
    3902:	2400      	movs	r4, #0
    3904:	2002      	movs	r0, #2
    3906:	e796      	b.n	3836 <__aeabi_dmul+0x7a>
    3908:	4653      	mov	r3, sl
    390a:	4323      	orrs	r3, r4
    390c:	d020      	beq.n	3950 <__aeabi_dmul+0x194>
    390e:	2c00      	cmp	r4, #0
    3910:	d100      	bne.n	3914 <__aeabi_dmul+0x158>
    3912:	e157      	b.n	3bc4 <__aeabi_dmul+0x408>
    3914:	0020      	movs	r0, r4
    3916:	f000 feaf 	bl	4678 <__clzsi2>
    391a:	0003      	movs	r3, r0
    391c:	3b0b      	subs	r3, #11
    391e:	2b1c      	cmp	r3, #28
    3920:	dd00      	ble.n	3924 <__aeabi_dmul+0x168>
    3922:	e149      	b.n	3bb8 <__aeabi_dmul+0x3fc>
    3924:	211d      	movs	r1, #29
    3926:	1acb      	subs	r3, r1, r3
    3928:	4651      	mov	r1, sl
    392a:	0002      	movs	r2, r0
    392c:	40d9      	lsrs	r1, r3
    392e:	4653      	mov	r3, sl
    3930:	3a08      	subs	r2, #8
    3932:	4094      	lsls	r4, r2
    3934:	4093      	lsls	r3, r2
    3936:	430c      	orrs	r4, r1
    3938:	4a1b      	ldr	r2, [pc, #108]	; (39a8 <__aeabi_dmul+0x1ec>)
    393a:	1a12      	subs	r2, r2, r0
    393c:	2000      	movs	r0, #0
    393e:	e77a      	b.n	3836 <__aeabi_dmul+0x7a>
    3940:	2501      	movs	r5, #1
    3942:	9b01      	ldr	r3, [sp, #4]
    3944:	4c14      	ldr	r4, [pc, #80]	; (3998 <__aeabi_dmul+0x1dc>)
    3946:	401d      	ands	r5, r3
    3948:	2300      	movs	r3, #0
    394a:	2200      	movs	r2, #0
    394c:	4699      	mov	r9, r3
    394e:	e79c      	b.n	388a <__aeabi_dmul+0xce>
    3950:	2400      	movs	r4, #0
    3952:	2200      	movs	r2, #0
    3954:	2001      	movs	r0, #1
    3956:	e76e      	b.n	3836 <__aeabi_dmul+0x7a>
    3958:	4653      	mov	r3, sl
    395a:	2003      	movs	r0, #3
    395c:	e76b      	b.n	3836 <__aeabi_dmul+0x7a>
    395e:	2300      	movs	r3, #0
    3960:	469b      	mov	fp, r3
    3962:	3301      	adds	r3, #1
    3964:	2704      	movs	r7, #4
    3966:	2600      	movs	r6, #0
    3968:	9302      	str	r3, [sp, #8]
    396a:	e74c      	b.n	3806 <__aeabi_dmul+0x4a>
    396c:	2303      	movs	r3, #3
    396e:	4681      	mov	r9, r0
    3970:	270c      	movs	r7, #12
    3972:	9302      	str	r3, [sp, #8]
    3974:	e747      	b.n	3806 <__aeabi_dmul+0x4a>
    3976:	2280      	movs	r2, #128	; 0x80
    3978:	2300      	movs	r3, #0
    397a:	2500      	movs	r5, #0
    397c:	0312      	lsls	r2, r2, #12
    397e:	4699      	mov	r9, r3
    3980:	4c05      	ldr	r4, [pc, #20]	; (3998 <__aeabi_dmul+0x1dc>)
    3982:	e782      	b.n	388a <__aeabi_dmul+0xce>
    3984:	465c      	mov	r4, fp
    3986:	464b      	mov	r3, r9
    3988:	9802      	ldr	r0, [sp, #8]
    398a:	e76f      	b.n	386c <__aeabi_dmul+0xb0>
    398c:	465c      	mov	r4, fp
    398e:	464b      	mov	r3, r9
    3990:	9501      	str	r5, [sp, #4]
    3992:	9802      	ldr	r0, [sp, #8]
    3994:	e76a      	b.n	386c <__aeabi_dmul+0xb0>
    3996:	46c0      	nop			; (mov r8, r8)
    3998:	000007ff 	.word	0x000007ff
    399c:	fffffc01 	.word	0xfffffc01
    39a0:	00009028 	.word	0x00009028
    39a4:	800fffff 	.word	0x800fffff
    39a8:	fffffc0d 	.word	0xfffffc0d
    39ac:	464a      	mov	r2, r9
    39ae:	4649      	mov	r1, r9
    39b0:	0c17      	lsrs	r7, r2, #16
    39b2:	0c1a      	lsrs	r2, r3, #16
    39b4:	041b      	lsls	r3, r3, #16
    39b6:	0c1b      	lsrs	r3, r3, #16
    39b8:	0408      	lsls	r0, r1, #16
    39ba:	0019      	movs	r1, r3
    39bc:	0c00      	lsrs	r0, r0, #16
    39be:	4341      	muls	r1, r0
    39c0:	0015      	movs	r5, r2
    39c2:	4688      	mov	r8, r1
    39c4:	0019      	movs	r1, r3
    39c6:	437d      	muls	r5, r7
    39c8:	4379      	muls	r1, r7
    39ca:	9503      	str	r5, [sp, #12]
    39cc:	4689      	mov	r9, r1
    39ce:	0029      	movs	r1, r5
    39d0:	0015      	movs	r5, r2
    39d2:	4345      	muls	r5, r0
    39d4:	444d      	add	r5, r9
    39d6:	9502      	str	r5, [sp, #8]
    39d8:	4645      	mov	r5, r8
    39da:	0c2d      	lsrs	r5, r5, #16
    39dc:	46aa      	mov	sl, r5
    39de:	9d02      	ldr	r5, [sp, #8]
    39e0:	4455      	add	r5, sl
    39e2:	45a9      	cmp	r9, r5
    39e4:	d906      	bls.n	39f4 <__aeabi_dmul+0x238>
    39e6:	468a      	mov	sl, r1
    39e8:	2180      	movs	r1, #128	; 0x80
    39ea:	0249      	lsls	r1, r1, #9
    39ec:	4689      	mov	r9, r1
    39ee:	44ca      	add	sl, r9
    39f0:	4651      	mov	r1, sl
    39f2:	9103      	str	r1, [sp, #12]
    39f4:	0c29      	lsrs	r1, r5, #16
    39f6:	9104      	str	r1, [sp, #16]
    39f8:	4641      	mov	r1, r8
    39fa:	0409      	lsls	r1, r1, #16
    39fc:	042d      	lsls	r5, r5, #16
    39fe:	0c09      	lsrs	r1, r1, #16
    3a00:	4688      	mov	r8, r1
    3a02:	0029      	movs	r1, r5
    3a04:	0c25      	lsrs	r5, r4, #16
    3a06:	0424      	lsls	r4, r4, #16
    3a08:	4441      	add	r1, r8
    3a0a:	0c24      	lsrs	r4, r4, #16
    3a0c:	9105      	str	r1, [sp, #20]
    3a0e:	0021      	movs	r1, r4
    3a10:	4341      	muls	r1, r0
    3a12:	4688      	mov	r8, r1
    3a14:	0021      	movs	r1, r4
    3a16:	4379      	muls	r1, r7
    3a18:	468a      	mov	sl, r1
    3a1a:	4368      	muls	r0, r5
    3a1c:	4641      	mov	r1, r8
    3a1e:	4450      	add	r0, sl
    3a20:	4681      	mov	r9, r0
    3a22:	0c08      	lsrs	r0, r1, #16
    3a24:	4448      	add	r0, r9
    3a26:	436f      	muls	r7, r5
    3a28:	4582      	cmp	sl, r0
    3a2a:	d903      	bls.n	3a34 <__aeabi_dmul+0x278>
    3a2c:	2180      	movs	r1, #128	; 0x80
    3a2e:	0249      	lsls	r1, r1, #9
    3a30:	4689      	mov	r9, r1
    3a32:	444f      	add	r7, r9
    3a34:	0c01      	lsrs	r1, r0, #16
    3a36:	4689      	mov	r9, r1
    3a38:	0039      	movs	r1, r7
    3a3a:	4449      	add	r1, r9
    3a3c:	9102      	str	r1, [sp, #8]
    3a3e:	4641      	mov	r1, r8
    3a40:	040f      	lsls	r7, r1, #16
    3a42:	9904      	ldr	r1, [sp, #16]
    3a44:	0c3f      	lsrs	r7, r7, #16
    3a46:	4688      	mov	r8, r1
    3a48:	0400      	lsls	r0, r0, #16
    3a4a:	19c0      	adds	r0, r0, r7
    3a4c:	4480      	add	r8, r0
    3a4e:	4641      	mov	r1, r8
    3a50:	9104      	str	r1, [sp, #16]
    3a52:	4659      	mov	r1, fp
    3a54:	0c0f      	lsrs	r7, r1, #16
    3a56:	0409      	lsls	r1, r1, #16
    3a58:	0c09      	lsrs	r1, r1, #16
    3a5a:	4688      	mov	r8, r1
    3a5c:	4359      	muls	r1, r3
    3a5e:	468a      	mov	sl, r1
    3a60:	0039      	movs	r1, r7
    3a62:	4351      	muls	r1, r2
    3a64:	4689      	mov	r9, r1
    3a66:	4641      	mov	r1, r8
    3a68:	434a      	muls	r2, r1
    3a6a:	4651      	mov	r1, sl
    3a6c:	0c09      	lsrs	r1, r1, #16
    3a6e:	468b      	mov	fp, r1
    3a70:	437b      	muls	r3, r7
    3a72:	18d2      	adds	r2, r2, r3
    3a74:	445a      	add	r2, fp
    3a76:	4293      	cmp	r3, r2
    3a78:	d903      	bls.n	3a82 <__aeabi_dmul+0x2c6>
    3a7a:	2380      	movs	r3, #128	; 0x80
    3a7c:	025b      	lsls	r3, r3, #9
    3a7e:	469b      	mov	fp, r3
    3a80:	44d9      	add	r9, fp
    3a82:	4651      	mov	r1, sl
    3a84:	0409      	lsls	r1, r1, #16
    3a86:	0c09      	lsrs	r1, r1, #16
    3a88:	468a      	mov	sl, r1
    3a8a:	4641      	mov	r1, r8
    3a8c:	4361      	muls	r1, r4
    3a8e:	437c      	muls	r4, r7
    3a90:	0c13      	lsrs	r3, r2, #16
    3a92:	0412      	lsls	r2, r2, #16
    3a94:	444b      	add	r3, r9
    3a96:	4452      	add	r2, sl
    3a98:	46a1      	mov	r9, r4
    3a9a:	468a      	mov	sl, r1
    3a9c:	003c      	movs	r4, r7
    3a9e:	4641      	mov	r1, r8
    3aa0:	436c      	muls	r4, r5
    3aa2:	434d      	muls	r5, r1
    3aa4:	4651      	mov	r1, sl
    3aa6:	444d      	add	r5, r9
    3aa8:	0c0f      	lsrs	r7, r1, #16
    3aaa:	197d      	adds	r5, r7, r5
    3aac:	45a9      	cmp	r9, r5
    3aae:	d903      	bls.n	3ab8 <__aeabi_dmul+0x2fc>
    3ab0:	2180      	movs	r1, #128	; 0x80
    3ab2:	0249      	lsls	r1, r1, #9
    3ab4:	4688      	mov	r8, r1
    3ab6:	4444      	add	r4, r8
    3ab8:	9f04      	ldr	r7, [sp, #16]
    3aba:	9903      	ldr	r1, [sp, #12]
    3abc:	46b8      	mov	r8, r7
    3abe:	4441      	add	r1, r8
    3ac0:	468b      	mov	fp, r1
    3ac2:	4583      	cmp	fp, r0
    3ac4:	4180      	sbcs	r0, r0
    3ac6:	4241      	negs	r1, r0
    3ac8:	4688      	mov	r8, r1
    3aca:	4651      	mov	r1, sl
    3acc:	0408      	lsls	r0, r1, #16
    3ace:	042f      	lsls	r7, r5, #16
    3ad0:	0c00      	lsrs	r0, r0, #16
    3ad2:	183f      	adds	r7, r7, r0
    3ad4:	4658      	mov	r0, fp
    3ad6:	9902      	ldr	r1, [sp, #8]
    3ad8:	1810      	adds	r0, r2, r0
    3ada:	4689      	mov	r9, r1
    3adc:	4290      	cmp	r0, r2
    3ade:	4192      	sbcs	r2, r2
    3ae0:	444f      	add	r7, r9
    3ae2:	46ba      	mov	sl, r7
    3ae4:	4252      	negs	r2, r2
    3ae6:	4699      	mov	r9, r3
    3ae8:	4693      	mov	fp, r2
    3aea:	44c2      	add	sl, r8
    3aec:	44d1      	add	r9, sl
    3aee:	44cb      	add	fp, r9
    3af0:	428f      	cmp	r7, r1
    3af2:	41bf      	sbcs	r7, r7
    3af4:	45c2      	cmp	sl, r8
    3af6:	4189      	sbcs	r1, r1
    3af8:	4599      	cmp	r9, r3
    3afa:	419b      	sbcs	r3, r3
    3afc:	4593      	cmp	fp, r2
    3afe:	4192      	sbcs	r2, r2
    3b00:	427f      	negs	r7, r7
    3b02:	4249      	negs	r1, r1
    3b04:	0c2d      	lsrs	r5, r5, #16
    3b06:	4252      	negs	r2, r2
    3b08:	430f      	orrs	r7, r1
    3b0a:	425b      	negs	r3, r3
    3b0c:	4313      	orrs	r3, r2
    3b0e:	197f      	adds	r7, r7, r5
    3b10:	18ff      	adds	r7, r7, r3
    3b12:	465b      	mov	r3, fp
    3b14:	193c      	adds	r4, r7, r4
    3b16:	0ddb      	lsrs	r3, r3, #23
    3b18:	9a05      	ldr	r2, [sp, #20]
    3b1a:	0264      	lsls	r4, r4, #9
    3b1c:	431c      	orrs	r4, r3
    3b1e:	0243      	lsls	r3, r0, #9
    3b20:	4313      	orrs	r3, r2
    3b22:	1e5d      	subs	r5, r3, #1
    3b24:	41ab      	sbcs	r3, r5
    3b26:	465a      	mov	r2, fp
    3b28:	0dc0      	lsrs	r0, r0, #23
    3b2a:	4303      	orrs	r3, r0
    3b2c:	0252      	lsls	r2, r2, #9
    3b2e:	4313      	orrs	r3, r2
    3b30:	01e2      	lsls	r2, r4, #7
    3b32:	d556      	bpl.n	3be2 <__aeabi_dmul+0x426>
    3b34:	2001      	movs	r0, #1
    3b36:	085a      	lsrs	r2, r3, #1
    3b38:	4003      	ands	r3, r0
    3b3a:	4313      	orrs	r3, r2
    3b3c:	07e2      	lsls	r2, r4, #31
    3b3e:	4313      	orrs	r3, r2
    3b40:	0864      	lsrs	r4, r4, #1
    3b42:	485a      	ldr	r0, [pc, #360]	; (3cac <__aeabi_dmul+0x4f0>)
    3b44:	4460      	add	r0, ip
    3b46:	2800      	cmp	r0, #0
    3b48:	dd4d      	ble.n	3be6 <__aeabi_dmul+0x42a>
    3b4a:	075a      	lsls	r2, r3, #29
    3b4c:	d009      	beq.n	3b62 <__aeabi_dmul+0x3a6>
    3b4e:	220f      	movs	r2, #15
    3b50:	401a      	ands	r2, r3
    3b52:	2a04      	cmp	r2, #4
    3b54:	d005      	beq.n	3b62 <__aeabi_dmul+0x3a6>
    3b56:	1d1a      	adds	r2, r3, #4
    3b58:	429a      	cmp	r2, r3
    3b5a:	419b      	sbcs	r3, r3
    3b5c:	425b      	negs	r3, r3
    3b5e:	18e4      	adds	r4, r4, r3
    3b60:	0013      	movs	r3, r2
    3b62:	01e2      	lsls	r2, r4, #7
    3b64:	d504      	bpl.n	3b70 <__aeabi_dmul+0x3b4>
    3b66:	2080      	movs	r0, #128	; 0x80
    3b68:	4a51      	ldr	r2, [pc, #324]	; (3cb0 <__aeabi_dmul+0x4f4>)
    3b6a:	00c0      	lsls	r0, r0, #3
    3b6c:	4014      	ands	r4, r2
    3b6e:	4460      	add	r0, ip
    3b70:	4a50      	ldr	r2, [pc, #320]	; (3cb4 <__aeabi_dmul+0x4f8>)
    3b72:	4290      	cmp	r0, r2
    3b74:	dd00      	ble.n	3b78 <__aeabi_dmul+0x3bc>
    3b76:	e6e3      	b.n	3940 <__aeabi_dmul+0x184>
    3b78:	2501      	movs	r5, #1
    3b7a:	08db      	lsrs	r3, r3, #3
    3b7c:	0762      	lsls	r2, r4, #29
    3b7e:	431a      	orrs	r2, r3
    3b80:	0264      	lsls	r4, r4, #9
    3b82:	9b01      	ldr	r3, [sp, #4]
    3b84:	4691      	mov	r9, r2
    3b86:	0b22      	lsrs	r2, r4, #12
    3b88:	0544      	lsls	r4, r0, #21
    3b8a:	0d64      	lsrs	r4, r4, #21
    3b8c:	401d      	ands	r5, r3
    3b8e:	e67c      	b.n	388a <__aeabi_dmul+0xce>
    3b90:	2280      	movs	r2, #128	; 0x80
    3b92:	4659      	mov	r1, fp
    3b94:	0312      	lsls	r2, r2, #12
    3b96:	4211      	tst	r1, r2
    3b98:	d008      	beq.n	3bac <__aeabi_dmul+0x3f0>
    3b9a:	4214      	tst	r4, r2
    3b9c:	d106      	bne.n	3bac <__aeabi_dmul+0x3f0>
    3b9e:	4322      	orrs	r2, r4
    3ba0:	0312      	lsls	r2, r2, #12
    3ba2:	0b12      	lsrs	r2, r2, #12
    3ba4:	4645      	mov	r5, r8
    3ba6:	4699      	mov	r9, r3
    3ba8:	4c43      	ldr	r4, [pc, #268]	; (3cb8 <__aeabi_dmul+0x4fc>)
    3baa:	e66e      	b.n	388a <__aeabi_dmul+0xce>
    3bac:	465b      	mov	r3, fp
    3bae:	431a      	orrs	r2, r3
    3bb0:	0312      	lsls	r2, r2, #12
    3bb2:	0b12      	lsrs	r2, r2, #12
    3bb4:	4c40      	ldr	r4, [pc, #256]	; (3cb8 <__aeabi_dmul+0x4fc>)
    3bb6:	e668      	b.n	388a <__aeabi_dmul+0xce>
    3bb8:	0003      	movs	r3, r0
    3bba:	4654      	mov	r4, sl
    3bbc:	3b28      	subs	r3, #40	; 0x28
    3bbe:	409c      	lsls	r4, r3
    3bc0:	2300      	movs	r3, #0
    3bc2:	e6b9      	b.n	3938 <__aeabi_dmul+0x17c>
    3bc4:	f000 fd58 	bl	4678 <__clzsi2>
    3bc8:	3020      	adds	r0, #32
    3bca:	e6a6      	b.n	391a <__aeabi_dmul+0x15e>
    3bcc:	0003      	movs	r3, r0
    3bce:	3b28      	subs	r3, #40	; 0x28
    3bd0:	409f      	lsls	r7, r3
    3bd2:	2300      	movs	r3, #0
    3bd4:	46bb      	mov	fp, r7
    3bd6:	4699      	mov	r9, r3
    3bd8:	e68a      	b.n	38f0 <__aeabi_dmul+0x134>
    3bda:	f000 fd4d 	bl	4678 <__clzsi2>
    3bde:	3020      	adds	r0, #32
    3be0:	e674      	b.n	38cc <__aeabi_dmul+0x110>
    3be2:	46b4      	mov	ip, r6
    3be4:	e7ad      	b.n	3b42 <__aeabi_dmul+0x386>
    3be6:	2501      	movs	r5, #1
    3be8:	1a2a      	subs	r2, r5, r0
    3bea:	2a38      	cmp	r2, #56	; 0x38
    3bec:	dd06      	ble.n	3bfc <__aeabi_dmul+0x440>
    3bee:	9b01      	ldr	r3, [sp, #4]
    3bf0:	2400      	movs	r4, #0
    3bf2:	401d      	ands	r5, r3
    3bf4:	2300      	movs	r3, #0
    3bf6:	2200      	movs	r2, #0
    3bf8:	4699      	mov	r9, r3
    3bfa:	e646      	b.n	388a <__aeabi_dmul+0xce>
    3bfc:	2a1f      	cmp	r2, #31
    3bfe:	dc21      	bgt.n	3c44 <__aeabi_dmul+0x488>
    3c00:	2520      	movs	r5, #32
    3c02:	0020      	movs	r0, r4
    3c04:	1aad      	subs	r5, r5, r2
    3c06:	001e      	movs	r6, r3
    3c08:	40ab      	lsls	r3, r5
    3c0a:	40a8      	lsls	r0, r5
    3c0c:	40d6      	lsrs	r6, r2
    3c0e:	1e5d      	subs	r5, r3, #1
    3c10:	41ab      	sbcs	r3, r5
    3c12:	4330      	orrs	r0, r6
    3c14:	4318      	orrs	r0, r3
    3c16:	40d4      	lsrs	r4, r2
    3c18:	0743      	lsls	r3, r0, #29
    3c1a:	d009      	beq.n	3c30 <__aeabi_dmul+0x474>
    3c1c:	230f      	movs	r3, #15
    3c1e:	4003      	ands	r3, r0
    3c20:	2b04      	cmp	r3, #4
    3c22:	d005      	beq.n	3c30 <__aeabi_dmul+0x474>
    3c24:	0003      	movs	r3, r0
    3c26:	1d18      	adds	r0, r3, #4
    3c28:	4298      	cmp	r0, r3
    3c2a:	419b      	sbcs	r3, r3
    3c2c:	425b      	negs	r3, r3
    3c2e:	18e4      	adds	r4, r4, r3
    3c30:	0223      	lsls	r3, r4, #8
    3c32:	d521      	bpl.n	3c78 <__aeabi_dmul+0x4bc>
    3c34:	2501      	movs	r5, #1
    3c36:	9b01      	ldr	r3, [sp, #4]
    3c38:	2401      	movs	r4, #1
    3c3a:	401d      	ands	r5, r3
    3c3c:	2300      	movs	r3, #0
    3c3e:	2200      	movs	r2, #0
    3c40:	4699      	mov	r9, r3
    3c42:	e622      	b.n	388a <__aeabi_dmul+0xce>
    3c44:	251f      	movs	r5, #31
    3c46:	0021      	movs	r1, r4
    3c48:	426d      	negs	r5, r5
    3c4a:	1a28      	subs	r0, r5, r0
    3c4c:	40c1      	lsrs	r1, r0
    3c4e:	0008      	movs	r0, r1
    3c50:	2a20      	cmp	r2, #32
    3c52:	d01d      	beq.n	3c90 <__aeabi_dmul+0x4d4>
    3c54:	355f      	adds	r5, #95	; 0x5f
    3c56:	1aaa      	subs	r2, r5, r2
    3c58:	4094      	lsls	r4, r2
    3c5a:	4323      	orrs	r3, r4
    3c5c:	1e5c      	subs	r4, r3, #1
    3c5e:	41a3      	sbcs	r3, r4
    3c60:	2507      	movs	r5, #7
    3c62:	4303      	orrs	r3, r0
    3c64:	401d      	ands	r5, r3
    3c66:	2200      	movs	r2, #0
    3c68:	2d00      	cmp	r5, #0
    3c6a:	d009      	beq.n	3c80 <__aeabi_dmul+0x4c4>
    3c6c:	220f      	movs	r2, #15
    3c6e:	2400      	movs	r4, #0
    3c70:	401a      	ands	r2, r3
    3c72:	0018      	movs	r0, r3
    3c74:	2a04      	cmp	r2, #4
    3c76:	d1d6      	bne.n	3c26 <__aeabi_dmul+0x46a>
    3c78:	0003      	movs	r3, r0
    3c7a:	0765      	lsls	r5, r4, #29
    3c7c:	0264      	lsls	r4, r4, #9
    3c7e:	0b22      	lsrs	r2, r4, #12
    3c80:	08db      	lsrs	r3, r3, #3
    3c82:	432b      	orrs	r3, r5
    3c84:	2501      	movs	r5, #1
    3c86:	4699      	mov	r9, r3
    3c88:	9b01      	ldr	r3, [sp, #4]
    3c8a:	2400      	movs	r4, #0
    3c8c:	401d      	ands	r5, r3
    3c8e:	e5fc      	b.n	388a <__aeabi_dmul+0xce>
    3c90:	2400      	movs	r4, #0
    3c92:	e7e2      	b.n	3c5a <__aeabi_dmul+0x49e>
    3c94:	2280      	movs	r2, #128	; 0x80
    3c96:	2501      	movs	r5, #1
    3c98:	0312      	lsls	r2, r2, #12
    3c9a:	4322      	orrs	r2, r4
    3c9c:	9901      	ldr	r1, [sp, #4]
    3c9e:	0312      	lsls	r2, r2, #12
    3ca0:	0b12      	lsrs	r2, r2, #12
    3ca2:	400d      	ands	r5, r1
    3ca4:	4699      	mov	r9, r3
    3ca6:	4c04      	ldr	r4, [pc, #16]	; (3cb8 <__aeabi_dmul+0x4fc>)
    3ca8:	e5ef      	b.n	388a <__aeabi_dmul+0xce>
    3caa:	46c0      	nop			; (mov r8, r8)
    3cac:	000003ff 	.word	0x000003ff
    3cb0:	feffffff 	.word	0xfeffffff
    3cb4:	000007fe 	.word	0x000007fe
    3cb8:	000007ff 	.word	0x000007ff

00003cbc <__aeabi_dsub>:
    3cbc:	b5f0      	push	{r4, r5, r6, r7, lr}
    3cbe:	4646      	mov	r6, r8
    3cc0:	46d6      	mov	lr, sl
    3cc2:	464f      	mov	r7, r9
    3cc4:	030c      	lsls	r4, r1, #12
    3cc6:	b5c0      	push	{r6, r7, lr}
    3cc8:	0fcd      	lsrs	r5, r1, #31
    3cca:	004e      	lsls	r6, r1, #1
    3ccc:	0a61      	lsrs	r1, r4, #9
    3cce:	0f44      	lsrs	r4, r0, #29
    3cd0:	430c      	orrs	r4, r1
    3cd2:	00c1      	lsls	r1, r0, #3
    3cd4:	0058      	lsls	r0, r3, #1
    3cd6:	0d40      	lsrs	r0, r0, #21
    3cd8:	4684      	mov	ip, r0
    3cda:	468a      	mov	sl, r1
    3cdc:	000f      	movs	r7, r1
    3cde:	0319      	lsls	r1, r3, #12
    3ce0:	0f50      	lsrs	r0, r2, #29
    3ce2:	0a49      	lsrs	r1, r1, #9
    3ce4:	4301      	orrs	r1, r0
    3ce6:	48c6      	ldr	r0, [pc, #792]	; (4000 <__aeabi_dsub+0x344>)
    3ce8:	0d76      	lsrs	r6, r6, #21
    3cea:	46a8      	mov	r8, r5
    3cec:	0fdb      	lsrs	r3, r3, #31
    3cee:	00d2      	lsls	r2, r2, #3
    3cf0:	4584      	cmp	ip, r0
    3cf2:	d100      	bne.n	3cf6 <__aeabi_dsub+0x3a>
    3cf4:	e0d8      	b.n	3ea8 <__aeabi_dsub+0x1ec>
    3cf6:	2001      	movs	r0, #1
    3cf8:	4043      	eors	r3, r0
    3cfa:	42ab      	cmp	r3, r5
    3cfc:	d100      	bne.n	3d00 <__aeabi_dsub+0x44>
    3cfe:	e0a6      	b.n	3e4e <__aeabi_dsub+0x192>
    3d00:	4660      	mov	r0, ip
    3d02:	1a35      	subs	r5, r6, r0
    3d04:	2d00      	cmp	r5, #0
    3d06:	dc00      	bgt.n	3d0a <__aeabi_dsub+0x4e>
    3d08:	e105      	b.n	3f16 <__aeabi_dsub+0x25a>
    3d0a:	2800      	cmp	r0, #0
    3d0c:	d110      	bne.n	3d30 <__aeabi_dsub+0x74>
    3d0e:	000b      	movs	r3, r1
    3d10:	4313      	orrs	r3, r2
    3d12:	d100      	bne.n	3d16 <__aeabi_dsub+0x5a>
    3d14:	e0d7      	b.n	3ec6 <__aeabi_dsub+0x20a>
    3d16:	1e6b      	subs	r3, r5, #1
    3d18:	2b00      	cmp	r3, #0
    3d1a:	d000      	beq.n	3d1e <__aeabi_dsub+0x62>
    3d1c:	e14b      	b.n	3fb6 <__aeabi_dsub+0x2fa>
    3d1e:	4653      	mov	r3, sl
    3d20:	1a9f      	subs	r7, r3, r2
    3d22:	45ba      	cmp	sl, r7
    3d24:	4180      	sbcs	r0, r0
    3d26:	1a64      	subs	r4, r4, r1
    3d28:	4240      	negs	r0, r0
    3d2a:	1a24      	subs	r4, r4, r0
    3d2c:	2601      	movs	r6, #1
    3d2e:	e01e      	b.n	3d6e <__aeabi_dsub+0xb2>
    3d30:	4bb3      	ldr	r3, [pc, #716]	; (4000 <__aeabi_dsub+0x344>)
    3d32:	429e      	cmp	r6, r3
    3d34:	d048      	beq.n	3dc8 <__aeabi_dsub+0x10c>
    3d36:	2380      	movs	r3, #128	; 0x80
    3d38:	041b      	lsls	r3, r3, #16
    3d3a:	4319      	orrs	r1, r3
    3d3c:	2d38      	cmp	r5, #56	; 0x38
    3d3e:	dd00      	ble.n	3d42 <__aeabi_dsub+0x86>
    3d40:	e119      	b.n	3f76 <__aeabi_dsub+0x2ba>
    3d42:	2d1f      	cmp	r5, #31
    3d44:	dd00      	ble.n	3d48 <__aeabi_dsub+0x8c>
    3d46:	e14c      	b.n	3fe2 <__aeabi_dsub+0x326>
    3d48:	2320      	movs	r3, #32
    3d4a:	000f      	movs	r7, r1
    3d4c:	1b5b      	subs	r3, r3, r5
    3d4e:	0010      	movs	r0, r2
    3d50:	409a      	lsls	r2, r3
    3d52:	409f      	lsls	r7, r3
    3d54:	40e8      	lsrs	r0, r5
    3d56:	1e53      	subs	r3, r2, #1
    3d58:	419a      	sbcs	r2, r3
    3d5a:	40e9      	lsrs	r1, r5
    3d5c:	4307      	orrs	r7, r0
    3d5e:	4317      	orrs	r7, r2
    3d60:	4653      	mov	r3, sl
    3d62:	1bdf      	subs	r7, r3, r7
    3d64:	1a61      	subs	r1, r4, r1
    3d66:	45ba      	cmp	sl, r7
    3d68:	41a4      	sbcs	r4, r4
    3d6a:	4264      	negs	r4, r4
    3d6c:	1b0c      	subs	r4, r1, r4
    3d6e:	0223      	lsls	r3, r4, #8
    3d70:	d400      	bmi.n	3d74 <__aeabi_dsub+0xb8>
    3d72:	e0c5      	b.n	3f00 <__aeabi_dsub+0x244>
    3d74:	0264      	lsls	r4, r4, #9
    3d76:	0a65      	lsrs	r5, r4, #9
    3d78:	2d00      	cmp	r5, #0
    3d7a:	d100      	bne.n	3d7e <__aeabi_dsub+0xc2>
    3d7c:	e0f6      	b.n	3f6c <__aeabi_dsub+0x2b0>
    3d7e:	0028      	movs	r0, r5
    3d80:	f000 fc7a 	bl	4678 <__clzsi2>
    3d84:	0003      	movs	r3, r0
    3d86:	3b08      	subs	r3, #8
    3d88:	2b1f      	cmp	r3, #31
    3d8a:	dd00      	ble.n	3d8e <__aeabi_dsub+0xd2>
    3d8c:	e0e9      	b.n	3f62 <__aeabi_dsub+0x2a6>
    3d8e:	2220      	movs	r2, #32
    3d90:	003c      	movs	r4, r7
    3d92:	1ad2      	subs	r2, r2, r3
    3d94:	409d      	lsls	r5, r3
    3d96:	40d4      	lsrs	r4, r2
    3d98:	409f      	lsls	r7, r3
    3d9a:	4325      	orrs	r5, r4
    3d9c:	429e      	cmp	r6, r3
    3d9e:	dd00      	ble.n	3da2 <__aeabi_dsub+0xe6>
    3da0:	e0db      	b.n	3f5a <__aeabi_dsub+0x29e>
    3da2:	1b9e      	subs	r6, r3, r6
    3da4:	1c73      	adds	r3, r6, #1
    3da6:	2b1f      	cmp	r3, #31
    3da8:	dd00      	ble.n	3dac <__aeabi_dsub+0xf0>
    3daa:	e10a      	b.n	3fc2 <__aeabi_dsub+0x306>
    3dac:	2220      	movs	r2, #32
    3dae:	0038      	movs	r0, r7
    3db0:	1ad2      	subs	r2, r2, r3
    3db2:	0029      	movs	r1, r5
    3db4:	4097      	lsls	r7, r2
    3db6:	002c      	movs	r4, r5
    3db8:	4091      	lsls	r1, r2
    3dba:	40d8      	lsrs	r0, r3
    3dbc:	1e7a      	subs	r2, r7, #1
    3dbe:	4197      	sbcs	r7, r2
    3dc0:	40dc      	lsrs	r4, r3
    3dc2:	2600      	movs	r6, #0
    3dc4:	4301      	orrs	r1, r0
    3dc6:	430f      	orrs	r7, r1
    3dc8:	077b      	lsls	r3, r7, #29
    3dca:	d009      	beq.n	3de0 <__aeabi_dsub+0x124>
    3dcc:	230f      	movs	r3, #15
    3dce:	403b      	ands	r3, r7
    3dd0:	2b04      	cmp	r3, #4
    3dd2:	d005      	beq.n	3de0 <__aeabi_dsub+0x124>
    3dd4:	1d3b      	adds	r3, r7, #4
    3dd6:	42bb      	cmp	r3, r7
    3dd8:	41bf      	sbcs	r7, r7
    3dda:	427f      	negs	r7, r7
    3ddc:	19e4      	adds	r4, r4, r7
    3dde:	001f      	movs	r7, r3
    3de0:	0223      	lsls	r3, r4, #8
    3de2:	d525      	bpl.n	3e30 <__aeabi_dsub+0x174>
    3de4:	4b86      	ldr	r3, [pc, #536]	; (4000 <__aeabi_dsub+0x344>)
    3de6:	3601      	adds	r6, #1
    3de8:	429e      	cmp	r6, r3
    3dea:	d100      	bne.n	3dee <__aeabi_dsub+0x132>
    3dec:	e0af      	b.n	3f4e <__aeabi_dsub+0x292>
    3dee:	4b85      	ldr	r3, [pc, #532]	; (4004 <__aeabi_dsub+0x348>)
    3df0:	2501      	movs	r5, #1
    3df2:	401c      	ands	r4, r3
    3df4:	4643      	mov	r3, r8
    3df6:	0762      	lsls	r2, r4, #29
    3df8:	08ff      	lsrs	r7, r7, #3
    3dfa:	0264      	lsls	r4, r4, #9
    3dfc:	0576      	lsls	r6, r6, #21
    3dfe:	4317      	orrs	r7, r2
    3e00:	0b24      	lsrs	r4, r4, #12
    3e02:	0d76      	lsrs	r6, r6, #21
    3e04:	401d      	ands	r5, r3
    3e06:	2100      	movs	r1, #0
    3e08:	0324      	lsls	r4, r4, #12
    3e0a:	0b23      	lsrs	r3, r4, #12
    3e0c:	0d0c      	lsrs	r4, r1, #20
    3e0e:	4a7e      	ldr	r2, [pc, #504]	; (4008 <__aeabi_dsub+0x34c>)
    3e10:	0524      	lsls	r4, r4, #20
    3e12:	431c      	orrs	r4, r3
    3e14:	4014      	ands	r4, r2
    3e16:	0533      	lsls	r3, r6, #20
    3e18:	4323      	orrs	r3, r4
    3e1a:	005b      	lsls	r3, r3, #1
    3e1c:	07ed      	lsls	r5, r5, #31
    3e1e:	085b      	lsrs	r3, r3, #1
    3e20:	432b      	orrs	r3, r5
    3e22:	0038      	movs	r0, r7
    3e24:	0019      	movs	r1, r3
    3e26:	bc1c      	pop	{r2, r3, r4}
    3e28:	4690      	mov	r8, r2
    3e2a:	4699      	mov	r9, r3
    3e2c:	46a2      	mov	sl, r4
    3e2e:	bdf0      	pop	{r4, r5, r6, r7, pc}
    3e30:	2501      	movs	r5, #1
    3e32:	4643      	mov	r3, r8
    3e34:	0762      	lsls	r2, r4, #29
    3e36:	08ff      	lsrs	r7, r7, #3
    3e38:	4317      	orrs	r7, r2
    3e3a:	08e4      	lsrs	r4, r4, #3
    3e3c:	401d      	ands	r5, r3
    3e3e:	4b70      	ldr	r3, [pc, #448]	; (4000 <__aeabi_dsub+0x344>)
    3e40:	429e      	cmp	r6, r3
    3e42:	d036      	beq.n	3eb2 <__aeabi_dsub+0x1f6>
    3e44:	0324      	lsls	r4, r4, #12
    3e46:	0576      	lsls	r6, r6, #21
    3e48:	0b24      	lsrs	r4, r4, #12
    3e4a:	0d76      	lsrs	r6, r6, #21
    3e4c:	e7db      	b.n	3e06 <__aeabi_dsub+0x14a>
    3e4e:	4663      	mov	r3, ip
    3e50:	1af3      	subs	r3, r6, r3
    3e52:	2b00      	cmp	r3, #0
    3e54:	dc00      	bgt.n	3e58 <__aeabi_dsub+0x19c>
    3e56:	e094      	b.n	3f82 <__aeabi_dsub+0x2c6>
    3e58:	4660      	mov	r0, ip
    3e5a:	2800      	cmp	r0, #0
    3e5c:	d035      	beq.n	3eca <__aeabi_dsub+0x20e>
    3e5e:	4868      	ldr	r0, [pc, #416]	; (4000 <__aeabi_dsub+0x344>)
    3e60:	4286      	cmp	r6, r0
    3e62:	d0b1      	beq.n	3dc8 <__aeabi_dsub+0x10c>
    3e64:	2780      	movs	r7, #128	; 0x80
    3e66:	043f      	lsls	r7, r7, #16
    3e68:	4339      	orrs	r1, r7
    3e6a:	2b38      	cmp	r3, #56	; 0x38
    3e6c:	dc00      	bgt.n	3e70 <__aeabi_dsub+0x1b4>
    3e6e:	e0fd      	b.n	406c <__aeabi_dsub+0x3b0>
    3e70:	430a      	orrs	r2, r1
    3e72:	0017      	movs	r7, r2
    3e74:	2100      	movs	r1, #0
    3e76:	1e7a      	subs	r2, r7, #1
    3e78:	4197      	sbcs	r7, r2
    3e7a:	4457      	add	r7, sl
    3e7c:	4557      	cmp	r7, sl
    3e7e:	4180      	sbcs	r0, r0
    3e80:	1909      	adds	r1, r1, r4
    3e82:	4244      	negs	r4, r0
    3e84:	190c      	adds	r4, r1, r4
    3e86:	0223      	lsls	r3, r4, #8
    3e88:	d53a      	bpl.n	3f00 <__aeabi_dsub+0x244>
    3e8a:	4b5d      	ldr	r3, [pc, #372]	; (4000 <__aeabi_dsub+0x344>)
    3e8c:	3601      	adds	r6, #1
    3e8e:	429e      	cmp	r6, r3
    3e90:	d100      	bne.n	3e94 <__aeabi_dsub+0x1d8>
    3e92:	e14b      	b.n	412c <__aeabi_dsub+0x470>
    3e94:	2201      	movs	r2, #1
    3e96:	4b5b      	ldr	r3, [pc, #364]	; (4004 <__aeabi_dsub+0x348>)
    3e98:	401c      	ands	r4, r3
    3e9a:	087b      	lsrs	r3, r7, #1
    3e9c:	4017      	ands	r7, r2
    3e9e:	431f      	orrs	r7, r3
    3ea0:	07e2      	lsls	r2, r4, #31
    3ea2:	4317      	orrs	r7, r2
    3ea4:	0864      	lsrs	r4, r4, #1
    3ea6:	e78f      	b.n	3dc8 <__aeabi_dsub+0x10c>
    3ea8:	0008      	movs	r0, r1
    3eaa:	4310      	orrs	r0, r2
    3eac:	d000      	beq.n	3eb0 <__aeabi_dsub+0x1f4>
    3eae:	e724      	b.n	3cfa <__aeabi_dsub+0x3e>
    3eb0:	e721      	b.n	3cf6 <__aeabi_dsub+0x3a>
    3eb2:	0023      	movs	r3, r4
    3eb4:	433b      	orrs	r3, r7
    3eb6:	d100      	bne.n	3eba <__aeabi_dsub+0x1fe>
    3eb8:	e1b9      	b.n	422e <__aeabi_dsub+0x572>
    3eba:	2280      	movs	r2, #128	; 0x80
    3ebc:	0312      	lsls	r2, r2, #12
    3ebe:	4314      	orrs	r4, r2
    3ec0:	0324      	lsls	r4, r4, #12
    3ec2:	0b24      	lsrs	r4, r4, #12
    3ec4:	e79f      	b.n	3e06 <__aeabi_dsub+0x14a>
    3ec6:	002e      	movs	r6, r5
    3ec8:	e77e      	b.n	3dc8 <__aeabi_dsub+0x10c>
    3eca:	0008      	movs	r0, r1
    3ecc:	4310      	orrs	r0, r2
    3ece:	d100      	bne.n	3ed2 <__aeabi_dsub+0x216>
    3ed0:	e0ca      	b.n	4068 <__aeabi_dsub+0x3ac>
    3ed2:	1e58      	subs	r0, r3, #1
    3ed4:	4684      	mov	ip, r0
    3ed6:	2800      	cmp	r0, #0
    3ed8:	d000      	beq.n	3edc <__aeabi_dsub+0x220>
    3eda:	e0e7      	b.n	40ac <__aeabi_dsub+0x3f0>
    3edc:	4452      	add	r2, sl
    3ede:	4552      	cmp	r2, sl
    3ee0:	4180      	sbcs	r0, r0
    3ee2:	1864      	adds	r4, r4, r1
    3ee4:	4240      	negs	r0, r0
    3ee6:	1824      	adds	r4, r4, r0
    3ee8:	0017      	movs	r7, r2
    3eea:	2601      	movs	r6, #1
    3eec:	0223      	lsls	r3, r4, #8
    3eee:	d507      	bpl.n	3f00 <__aeabi_dsub+0x244>
    3ef0:	2602      	movs	r6, #2
    3ef2:	e7cf      	b.n	3e94 <__aeabi_dsub+0x1d8>
    3ef4:	4664      	mov	r4, ip
    3ef6:	432c      	orrs	r4, r5
    3ef8:	d100      	bne.n	3efc <__aeabi_dsub+0x240>
    3efa:	e1b3      	b.n	4264 <__aeabi_dsub+0x5a8>
    3efc:	002c      	movs	r4, r5
    3efe:	4667      	mov	r7, ip
    3f00:	077b      	lsls	r3, r7, #29
    3f02:	d000      	beq.n	3f06 <__aeabi_dsub+0x24a>
    3f04:	e762      	b.n	3dcc <__aeabi_dsub+0x110>
    3f06:	0763      	lsls	r3, r4, #29
    3f08:	08ff      	lsrs	r7, r7, #3
    3f0a:	431f      	orrs	r7, r3
    3f0c:	2501      	movs	r5, #1
    3f0e:	4643      	mov	r3, r8
    3f10:	08e4      	lsrs	r4, r4, #3
    3f12:	401d      	ands	r5, r3
    3f14:	e793      	b.n	3e3e <__aeabi_dsub+0x182>
    3f16:	2d00      	cmp	r5, #0
    3f18:	d178      	bne.n	400c <__aeabi_dsub+0x350>
    3f1a:	1c75      	adds	r5, r6, #1
    3f1c:	056d      	lsls	r5, r5, #21
    3f1e:	0d6d      	lsrs	r5, r5, #21
    3f20:	2d01      	cmp	r5, #1
    3f22:	dc00      	bgt.n	3f26 <__aeabi_dsub+0x26a>
    3f24:	e0f2      	b.n	410c <__aeabi_dsub+0x450>
    3f26:	4650      	mov	r0, sl
    3f28:	1a80      	subs	r0, r0, r2
    3f2a:	4582      	cmp	sl, r0
    3f2c:	41bf      	sbcs	r7, r7
    3f2e:	1a65      	subs	r5, r4, r1
    3f30:	427f      	negs	r7, r7
    3f32:	1bed      	subs	r5, r5, r7
    3f34:	4684      	mov	ip, r0
    3f36:	0228      	lsls	r0, r5, #8
    3f38:	d400      	bmi.n	3f3c <__aeabi_dsub+0x280>
    3f3a:	e08c      	b.n	4056 <__aeabi_dsub+0x39a>
    3f3c:	4650      	mov	r0, sl
    3f3e:	1a17      	subs	r7, r2, r0
    3f40:	42ba      	cmp	r2, r7
    3f42:	4192      	sbcs	r2, r2
    3f44:	1b0c      	subs	r4, r1, r4
    3f46:	4255      	negs	r5, r2
    3f48:	1b65      	subs	r5, r4, r5
    3f4a:	4698      	mov	r8, r3
    3f4c:	e714      	b.n	3d78 <__aeabi_dsub+0xbc>
    3f4e:	2501      	movs	r5, #1
    3f50:	4643      	mov	r3, r8
    3f52:	2400      	movs	r4, #0
    3f54:	401d      	ands	r5, r3
    3f56:	2700      	movs	r7, #0
    3f58:	e755      	b.n	3e06 <__aeabi_dsub+0x14a>
    3f5a:	4c2a      	ldr	r4, [pc, #168]	; (4004 <__aeabi_dsub+0x348>)
    3f5c:	1af6      	subs	r6, r6, r3
    3f5e:	402c      	ands	r4, r5
    3f60:	e732      	b.n	3dc8 <__aeabi_dsub+0x10c>
    3f62:	003d      	movs	r5, r7
    3f64:	3828      	subs	r0, #40	; 0x28
    3f66:	4085      	lsls	r5, r0
    3f68:	2700      	movs	r7, #0
    3f6a:	e717      	b.n	3d9c <__aeabi_dsub+0xe0>
    3f6c:	0038      	movs	r0, r7
    3f6e:	f000 fb83 	bl	4678 <__clzsi2>
    3f72:	3020      	adds	r0, #32
    3f74:	e706      	b.n	3d84 <__aeabi_dsub+0xc8>
    3f76:	430a      	orrs	r2, r1
    3f78:	0017      	movs	r7, r2
    3f7a:	2100      	movs	r1, #0
    3f7c:	1e7a      	subs	r2, r7, #1
    3f7e:	4197      	sbcs	r7, r2
    3f80:	e6ee      	b.n	3d60 <__aeabi_dsub+0xa4>
    3f82:	2b00      	cmp	r3, #0
    3f84:	d000      	beq.n	3f88 <__aeabi_dsub+0x2cc>
    3f86:	e0e5      	b.n	4154 <__aeabi_dsub+0x498>
    3f88:	1c73      	adds	r3, r6, #1
    3f8a:	469c      	mov	ip, r3
    3f8c:	055b      	lsls	r3, r3, #21
    3f8e:	0d5b      	lsrs	r3, r3, #21
    3f90:	2b01      	cmp	r3, #1
    3f92:	dc00      	bgt.n	3f96 <__aeabi_dsub+0x2da>
    3f94:	e09f      	b.n	40d6 <__aeabi_dsub+0x41a>
    3f96:	4b1a      	ldr	r3, [pc, #104]	; (4000 <__aeabi_dsub+0x344>)
    3f98:	459c      	cmp	ip, r3
    3f9a:	d100      	bne.n	3f9e <__aeabi_dsub+0x2e2>
    3f9c:	e0c5      	b.n	412a <__aeabi_dsub+0x46e>
    3f9e:	4452      	add	r2, sl
    3fa0:	4552      	cmp	r2, sl
    3fa2:	4180      	sbcs	r0, r0
    3fa4:	1864      	adds	r4, r4, r1
    3fa6:	4240      	negs	r0, r0
    3fa8:	1824      	adds	r4, r4, r0
    3faa:	07e7      	lsls	r7, r4, #31
    3fac:	0852      	lsrs	r2, r2, #1
    3fae:	4317      	orrs	r7, r2
    3fb0:	0864      	lsrs	r4, r4, #1
    3fb2:	4666      	mov	r6, ip
    3fb4:	e708      	b.n	3dc8 <__aeabi_dsub+0x10c>
    3fb6:	4812      	ldr	r0, [pc, #72]	; (4000 <__aeabi_dsub+0x344>)
    3fb8:	4285      	cmp	r5, r0
    3fba:	d100      	bne.n	3fbe <__aeabi_dsub+0x302>
    3fbc:	e085      	b.n	40ca <__aeabi_dsub+0x40e>
    3fbe:	001d      	movs	r5, r3
    3fc0:	e6bc      	b.n	3d3c <__aeabi_dsub+0x80>
    3fc2:	0029      	movs	r1, r5
    3fc4:	3e1f      	subs	r6, #31
    3fc6:	40f1      	lsrs	r1, r6
    3fc8:	2b20      	cmp	r3, #32
    3fca:	d100      	bne.n	3fce <__aeabi_dsub+0x312>
    3fcc:	e07f      	b.n	40ce <__aeabi_dsub+0x412>
    3fce:	2240      	movs	r2, #64	; 0x40
    3fd0:	1ad3      	subs	r3, r2, r3
    3fd2:	409d      	lsls	r5, r3
    3fd4:	432f      	orrs	r7, r5
    3fd6:	1e7d      	subs	r5, r7, #1
    3fd8:	41af      	sbcs	r7, r5
    3fda:	2400      	movs	r4, #0
    3fdc:	430f      	orrs	r7, r1
    3fde:	2600      	movs	r6, #0
    3fe0:	e78e      	b.n	3f00 <__aeabi_dsub+0x244>
    3fe2:	002b      	movs	r3, r5
    3fe4:	000f      	movs	r7, r1
    3fe6:	3b20      	subs	r3, #32
    3fe8:	40df      	lsrs	r7, r3
    3fea:	2d20      	cmp	r5, #32
    3fec:	d071      	beq.n	40d2 <__aeabi_dsub+0x416>
    3fee:	2340      	movs	r3, #64	; 0x40
    3ff0:	1b5d      	subs	r5, r3, r5
    3ff2:	40a9      	lsls	r1, r5
    3ff4:	430a      	orrs	r2, r1
    3ff6:	1e51      	subs	r1, r2, #1
    3ff8:	418a      	sbcs	r2, r1
    3ffa:	2100      	movs	r1, #0
    3ffc:	4317      	orrs	r7, r2
    3ffe:	e6af      	b.n	3d60 <__aeabi_dsub+0xa4>
    4000:	000007ff 	.word	0x000007ff
    4004:	ff7fffff 	.word	0xff7fffff
    4008:	800fffff 	.word	0x800fffff
    400c:	2e00      	cmp	r6, #0
    400e:	d03e      	beq.n	408e <__aeabi_dsub+0x3d2>
    4010:	4eb3      	ldr	r6, [pc, #716]	; (42e0 <__aeabi_dsub+0x624>)
    4012:	45b4      	cmp	ip, r6
    4014:	d045      	beq.n	40a2 <__aeabi_dsub+0x3e6>
    4016:	2680      	movs	r6, #128	; 0x80
    4018:	0436      	lsls	r6, r6, #16
    401a:	426d      	negs	r5, r5
    401c:	4334      	orrs	r4, r6
    401e:	2d38      	cmp	r5, #56	; 0x38
    4020:	dd00      	ble.n	4024 <__aeabi_dsub+0x368>
    4022:	e0a8      	b.n	4176 <__aeabi_dsub+0x4ba>
    4024:	2d1f      	cmp	r5, #31
    4026:	dd00      	ble.n	402a <__aeabi_dsub+0x36e>
    4028:	e11f      	b.n	426a <__aeabi_dsub+0x5ae>
    402a:	2620      	movs	r6, #32
    402c:	0027      	movs	r7, r4
    402e:	4650      	mov	r0, sl
    4030:	1b76      	subs	r6, r6, r5
    4032:	40b7      	lsls	r7, r6
    4034:	40e8      	lsrs	r0, r5
    4036:	4307      	orrs	r7, r0
    4038:	4650      	mov	r0, sl
    403a:	40b0      	lsls	r0, r6
    403c:	1e46      	subs	r6, r0, #1
    403e:	41b0      	sbcs	r0, r6
    4040:	40ec      	lsrs	r4, r5
    4042:	4338      	orrs	r0, r7
    4044:	1a17      	subs	r7, r2, r0
    4046:	42ba      	cmp	r2, r7
    4048:	4192      	sbcs	r2, r2
    404a:	1b0c      	subs	r4, r1, r4
    404c:	4252      	negs	r2, r2
    404e:	1aa4      	subs	r4, r4, r2
    4050:	4666      	mov	r6, ip
    4052:	4698      	mov	r8, r3
    4054:	e68b      	b.n	3d6e <__aeabi_dsub+0xb2>
    4056:	4664      	mov	r4, ip
    4058:	4667      	mov	r7, ip
    405a:	432c      	orrs	r4, r5
    405c:	d000      	beq.n	4060 <__aeabi_dsub+0x3a4>
    405e:	e68b      	b.n	3d78 <__aeabi_dsub+0xbc>
    4060:	2500      	movs	r5, #0
    4062:	2600      	movs	r6, #0
    4064:	2700      	movs	r7, #0
    4066:	e6ea      	b.n	3e3e <__aeabi_dsub+0x182>
    4068:	001e      	movs	r6, r3
    406a:	e6ad      	b.n	3dc8 <__aeabi_dsub+0x10c>
    406c:	2b1f      	cmp	r3, #31
    406e:	dc60      	bgt.n	4132 <__aeabi_dsub+0x476>
    4070:	2720      	movs	r7, #32
    4072:	1af8      	subs	r0, r7, r3
    4074:	000f      	movs	r7, r1
    4076:	4684      	mov	ip, r0
    4078:	4087      	lsls	r7, r0
    407a:	0010      	movs	r0, r2
    407c:	40d8      	lsrs	r0, r3
    407e:	4307      	orrs	r7, r0
    4080:	4660      	mov	r0, ip
    4082:	4082      	lsls	r2, r0
    4084:	1e50      	subs	r0, r2, #1
    4086:	4182      	sbcs	r2, r0
    4088:	40d9      	lsrs	r1, r3
    408a:	4317      	orrs	r7, r2
    408c:	e6f5      	b.n	3e7a <__aeabi_dsub+0x1be>
    408e:	0026      	movs	r6, r4
    4090:	4650      	mov	r0, sl
    4092:	4306      	orrs	r6, r0
    4094:	d005      	beq.n	40a2 <__aeabi_dsub+0x3e6>
    4096:	43ed      	mvns	r5, r5
    4098:	2d00      	cmp	r5, #0
    409a:	d0d3      	beq.n	4044 <__aeabi_dsub+0x388>
    409c:	4e90      	ldr	r6, [pc, #576]	; (42e0 <__aeabi_dsub+0x624>)
    409e:	45b4      	cmp	ip, r6
    40a0:	d1bd      	bne.n	401e <__aeabi_dsub+0x362>
    40a2:	000c      	movs	r4, r1
    40a4:	0017      	movs	r7, r2
    40a6:	4666      	mov	r6, ip
    40a8:	4698      	mov	r8, r3
    40aa:	e68d      	b.n	3dc8 <__aeabi_dsub+0x10c>
    40ac:	488c      	ldr	r0, [pc, #560]	; (42e0 <__aeabi_dsub+0x624>)
    40ae:	4283      	cmp	r3, r0
    40b0:	d00b      	beq.n	40ca <__aeabi_dsub+0x40e>
    40b2:	4663      	mov	r3, ip
    40b4:	e6d9      	b.n	3e6a <__aeabi_dsub+0x1ae>
    40b6:	2d00      	cmp	r5, #0
    40b8:	d000      	beq.n	40bc <__aeabi_dsub+0x400>
    40ba:	e096      	b.n	41ea <__aeabi_dsub+0x52e>
    40bc:	0008      	movs	r0, r1
    40be:	4310      	orrs	r0, r2
    40c0:	d100      	bne.n	40c4 <__aeabi_dsub+0x408>
    40c2:	e0e2      	b.n	428a <__aeabi_dsub+0x5ce>
    40c4:	000c      	movs	r4, r1
    40c6:	0017      	movs	r7, r2
    40c8:	4698      	mov	r8, r3
    40ca:	4e85      	ldr	r6, [pc, #532]	; (42e0 <__aeabi_dsub+0x624>)
    40cc:	e67c      	b.n	3dc8 <__aeabi_dsub+0x10c>
    40ce:	2500      	movs	r5, #0
    40d0:	e780      	b.n	3fd4 <__aeabi_dsub+0x318>
    40d2:	2100      	movs	r1, #0
    40d4:	e78e      	b.n	3ff4 <__aeabi_dsub+0x338>
    40d6:	0023      	movs	r3, r4
    40d8:	4650      	mov	r0, sl
    40da:	4303      	orrs	r3, r0
    40dc:	2e00      	cmp	r6, #0
    40de:	d000      	beq.n	40e2 <__aeabi_dsub+0x426>
    40e0:	e0a8      	b.n	4234 <__aeabi_dsub+0x578>
    40e2:	2b00      	cmp	r3, #0
    40e4:	d100      	bne.n	40e8 <__aeabi_dsub+0x42c>
    40e6:	e0de      	b.n	42a6 <__aeabi_dsub+0x5ea>
    40e8:	000b      	movs	r3, r1
    40ea:	4313      	orrs	r3, r2
    40ec:	d100      	bne.n	40f0 <__aeabi_dsub+0x434>
    40ee:	e66b      	b.n	3dc8 <__aeabi_dsub+0x10c>
    40f0:	4452      	add	r2, sl
    40f2:	4552      	cmp	r2, sl
    40f4:	4180      	sbcs	r0, r0
    40f6:	1864      	adds	r4, r4, r1
    40f8:	4240      	negs	r0, r0
    40fa:	1824      	adds	r4, r4, r0
    40fc:	0017      	movs	r7, r2
    40fe:	0223      	lsls	r3, r4, #8
    4100:	d400      	bmi.n	4104 <__aeabi_dsub+0x448>
    4102:	e6fd      	b.n	3f00 <__aeabi_dsub+0x244>
    4104:	4b77      	ldr	r3, [pc, #476]	; (42e4 <__aeabi_dsub+0x628>)
    4106:	4666      	mov	r6, ip
    4108:	401c      	ands	r4, r3
    410a:	e65d      	b.n	3dc8 <__aeabi_dsub+0x10c>
    410c:	0025      	movs	r5, r4
    410e:	4650      	mov	r0, sl
    4110:	4305      	orrs	r5, r0
    4112:	2e00      	cmp	r6, #0
    4114:	d1cf      	bne.n	40b6 <__aeabi_dsub+0x3fa>
    4116:	2d00      	cmp	r5, #0
    4118:	d14f      	bne.n	41ba <__aeabi_dsub+0x4fe>
    411a:	000c      	movs	r4, r1
    411c:	4314      	orrs	r4, r2
    411e:	d100      	bne.n	4122 <__aeabi_dsub+0x466>
    4120:	e0a0      	b.n	4264 <__aeabi_dsub+0x5a8>
    4122:	000c      	movs	r4, r1
    4124:	0017      	movs	r7, r2
    4126:	4698      	mov	r8, r3
    4128:	e64e      	b.n	3dc8 <__aeabi_dsub+0x10c>
    412a:	4666      	mov	r6, ip
    412c:	2400      	movs	r4, #0
    412e:	2700      	movs	r7, #0
    4130:	e685      	b.n	3e3e <__aeabi_dsub+0x182>
    4132:	001f      	movs	r7, r3
    4134:	0008      	movs	r0, r1
    4136:	3f20      	subs	r7, #32
    4138:	40f8      	lsrs	r0, r7
    413a:	0007      	movs	r7, r0
    413c:	2b20      	cmp	r3, #32
    413e:	d100      	bne.n	4142 <__aeabi_dsub+0x486>
    4140:	e08e      	b.n	4260 <__aeabi_dsub+0x5a4>
    4142:	2040      	movs	r0, #64	; 0x40
    4144:	1ac3      	subs	r3, r0, r3
    4146:	4099      	lsls	r1, r3
    4148:	430a      	orrs	r2, r1
    414a:	1e51      	subs	r1, r2, #1
    414c:	418a      	sbcs	r2, r1
    414e:	2100      	movs	r1, #0
    4150:	4317      	orrs	r7, r2
    4152:	e692      	b.n	3e7a <__aeabi_dsub+0x1be>
    4154:	2e00      	cmp	r6, #0
    4156:	d114      	bne.n	4182 <__aeabi_dsub+0x4c6>
    4158:	0026      	movs	r6, r4
    415a:	4650      	mov	r0, sl
    415c:	4306      	orrs	r6, r0
    415e:	d062      	beq.n	4226 <__aeabi_dsub+0x56a>
    4160:	43db      	mvns	r3, r3
    4162:	2b00      	cmp	r3, #0
    4164:	d15c      	bne.n	4220 <__aeabi_dsub+0x564>
    4166:	1887      	adds	r7, r0, r2
    4168:	4297      	cmp	r7, r2
    416a:	4192      	sbcs	r2, r2
    416c:	1864      	adds	r4, r4, r1
    416e:	4252      	negs	r2, r2
    4170:	18a4      	adds	r4, r4, r2
    4172:	4666      	mov	r6, ip
    4174:	e687      	b.n	3e86 <__aeabi_dsub+0x1ca>
    4176:	4650      	mov	r0, sl
    4178:	4320      	orrs	r0, r4
    417a:	1e44      	subs	r4, r0, #1
    417c:	41a0      	sbcs	r0, r4
    417e:	2400      	movs	r4, #0
    4180:	e760      	b.n	4044 <__aeabi_dsub+0x388>
    4182:	4e57      	ldr	r6, [pc, #348]	; (42e0 <__aeabi_dsub+0x624>)
    4184:	45b4      	cmp	ip, r6
    4186:	d04e      	beq.n	4226 <__aeabi_dsub+0x56a>
    4188:	2680      	movs	r6, #128	; 0x80
    418a:	0436      	lsls	r6, r6, #16
    418c:	425b      	negs	r3, r3
    418e:	4334      	orrs	r4, r6
    4190:	2b38      	cmp	r3, #56	; 0x38
    4192:	dd00      	ble.n	4196 <__aeabi_dsub+0x4da>
    4194:	e07f      	b.n	4296 <__aeabi_dsub+0x5da>
    4196:	2b1f      	cmp	r3, #31
    4198:	dd00      	ble.n	419c <__aeabi_dsub+0x4e0>
    419a:	e08b      	b.n	42b4 <__aeabi_dsub+0x5f8>
    419c:	2620      	movs	r6, #32
    419e:	0027      	movs	r7, r4
    41a0:	4650      	mov	r0, sl
    41a2:	1af6      	subs	r6, r6, r3
    41a4:	40b7      	lsls	r7, r6
    41a6:	40d8      	lsrs	r0, r3
    41a8:	4307      	orrs	r7, r0
    41aa:	4650      	mov	r0, sl
    41ac:	40b0      	lsls	r0, r6
    41ae:	1e46      	subs	r6, r0, #1
    41b0:	41b0      	sbcs	r0, r6
    41b2:	4307      	orrs	r7, r0
    41b4:	40dc      	lsrs	r4, r3
    41b6:	18bf      	adds	r7, r7, r2
    41b8:	e7d6      	b.n	4168 <__aeabi_dsub+0x4ac>
    41ba:	000d      	movs	r5, r1
    41bc:	4315      	orrs	r5, r2
    41be:	d100      	bne.n	41c2 <__aeabi_dsub+0x506>
    41c0:	e602      	b.n	3dc8 <__aeabi_dsub+0x10c>
    41c2:	4650      	mov	r0, sl
    41c4:	1a80      	subs	r0, r0, r2
    41c6:	4582      	cmp	sl, r0
    41c8:	41bf      	sbcs	r7, r7
    41ca:	1a65      	subs	r5, r4, r1
    41cc:	427f      	negs	r7, r7
    41ce:	1bed      	subs	r5, r5, r7
    41d0:	4684      	mov	ip, r0
    41d2:	0228      	lsls	r0, r5, #8
    41d4:	d400      	bmi.n	41d8 <__aeabi_dsub+0x51c>
    41d6:	e68d      	b.n	3ef4 <__aeabi_dsub+0x238>
    41d8:	4650      	mov	r0, sl
    41da:	1a17      	subs	r7, r2, r0
    41dc:	42ba      	cmp	r2, r7
    41de:	4192      	sbcs	r2, r2
    41e0:	1b0c      	subs	r4, r1, r4
    41e2:	4252      	negs	r2, r2
    41e4:	1aa4      	subs	r4, r4, r2
    41e6:	4698      	mov	r8, r3
    41e8:	e5ee      	b.n	3dc8 <__aeabi_dsub+0x10c>
    41ea:	000d      	movs	r5, r1
    41ec:	4315      	orrs	r5, r2
    41ee:	d100      	bne.n	41f2 <__aeabi_dsub+0x536>
    41f0:	e76b      	b.n	40ca <__aeabi_dsub+0x40e>
    41f2:	4650      	mov	r0, sl
    41f4:	0767      	lsls	r7, r4, #29
    41f6:	08c0      	lsrs	r0, r0, #3
    41f8:	4307      	orrs	r7, r0
    41fa:	2080      	movs	r0, #128	; 0x80
    41fc:	08e4      	lsrs	r4, r4, #3
    41fe:	0300      	lsls	r0, r0, #12
    4200:	4204      	tst	r4, r0
    4202:	d007      	beq.n	4214 <__aeabi_dsub+0x558>
    4204:	08cd      	lsrs	r5, r1, #3
    4206:	4205      	tst	r5, r0
    4208:	d104      	bne.n	4214 <__aeabi_dsub+0x558>
    420a:	002c      	movs	r4, r5
    420c:	4698      	mov	r8, r3
    420e:	08d7      	lsrs	r7, r2, #3
    4210:	0749      	lsls	r1, r1, #29
    4212:	430f      	orrs	r7, r1
    4214:	0f7b      	lsrs	r3, r7, #29
    4216:	00e4      	lsls	r4, r4, #3
    4218:	431c      	orrs	r4, r3
    421a:	00ff      	lsls	r7, r7, #3
    421c:	4e30      	ldr	r6, [pc, #192]	; (42e0 <__aeabi_dsub+0x624>)
    421e:	e5d3      	b.n	3dc8 <__aeabi_dsub+0x10c>
    4220:	4e2f      	ldr	r6, [pc, #188]	; (42e0 <__aeabi_dsub+0x624>)
    4222:	45b4      	cmp	ip, r6
    4224:	d1b4      	bne.n	4190 <__aeabi_dsub+0x4d4>
    4226:	000c      	movs	r4, r1
    4228:	0017      	movs	r7, r2
    422a:	4666      	mov	r6, ip
    422c:	e5cc      	b.n	3dc8 <__aeabi_dsub+0x10c>
    422e:	2700      	movs	r7, #0
    4230:	2400      	movs	r4, #0
    4232:	e5e8      	b.n	3e06 <__aeabi_dsub+0x14a>
    4234:	2b00      	cmp	r3, #0
    4236:	d039      	beq.n	42ac <__aeabi_dsub+0x5f0>
    4238:	000b      	movs	r3, r1
    423a:	4313      	orrs	r3, r2
    423c:	d100      	bne.n	4240 <__aeabi_dsub+0x584>
    423e:	e744      	b.n	40ca <__aeabi_dsub+0x40e>
    4240:	08c0      	lsrs	r0, r0, #3
    4242:	0767      	lsls	r7, r4, #29
    4244:	4307      	orrs	r7, r0
    4246:	2080      	movs	r0, #128	; 0x80
    4248:	08e4      	lsrs	r4, r4, #3
    424a:	0300      	lsls	r0, r0, #12
    424c:	4204      	tst	r4, r0
    424e:	d0e1      	beq.n	4214 <__aeabi_dsub+0x558>
    4250:	08cb      	lsrs	r3, r1, #3
    4252:	4203      	tst	r3, r0
    4254:	d1de      	bne.n	4214 <__aeabi_dsub+0x558>
    4256:	08d7      	lsrs	r7, r2, #3
    4258:	0749      	lsls	r1, r1, #29
    425a:	430f      	orrs	r7, r1
    425c:	001c      	movs	r4, r3
    425e:	e7d9      	b.n	4214 <__aeabi_dsub+0x558>
    4260:	2100      	movs	r1, #0
    4262:	e771      	b.n	4148 <__aeabi_dsub+0x48c>
    4264:	2500      	movs	r5, #0
    4266:	2700      	movs	r7, #0
    4268:	e5e9      	b.n	3e3e <__aeabi_dsub+0x182>
    426a:	002e      	movs	r6, r5
    426c:	0027      	movs	r7, r4
    426e:	3e20      	subs	r6, #32
    4270:	40f7      	lsrs	r7, r6
    4272:	2d20      	cmp	r5, #32
    4274:	d02f      	beq.n	42d6 <__aeabi_dsub+0x61a>
    4276:	2640      	movs	r6, #64	; 0x40
    4278:	1b75      	subs	r5, r6, r5
    427a:	40ac      	lsls	r4, r5
    427c:	4650      	mov	r0, sl
    427e:	4320      	orrs	r0, r4
    4280:	1e44      	subs	r4, r0, #1
    4282:	41a0      	sbcs	r0, r4
    4284:	2400      	movs	r4, #0
    4286:	4338      	orrs	r0, r7
    4288:	e6dc      	b.n	4044 <__aeabi_dsub+0x388>
    428a:	2480      	movs	r4, #128	; 0x80
    428c:	2500      	movs	r5, #0
    428e:	0324      	lsls	r4, r4, #12
    4290:	4e13      	ldr	r6, [pc, #76]	; (42e0 <__aeabi_dsub+0x624>)
    4292:	2700      	movs	r7, #0
    4294:	e5d3      	b.n	3e3e <__aeabi_dsub+0x182>
    4296:	4650      	mov	r0, sl
    4298:	4320      	orrs	r0, r4
    429a:	0007      	movs	r7, r0
    429c:	1e78      	subs	r0, r7, #1
    429e:	4187      	sbcs	r7, r0
    42a0:	2400      	movs	r4, #0
    42a2:	18bf      	adds	r7, r7, r2
    42a4:	e760      	b.n	4168 <__aeabi_dsub+0x4ac>
    42a6:	000c      	movs	r4, r1
    42a8:	0017      	movs	r7, r2
    42aa:	e58d      	b.n	3dc8 <__aeabi_dsub+0x10c>
    42ac:	000c      	movs	r4, r1
    42ae:	0017      	movs	r7, r2
    42b0:	4e0b      	ldr	r6, [pc, #44]	; (42e0 <__aeabi_dsub+0x624>)
    42b2:	e589      	b.n	3dc8 <__aeabi_dsub+0x10c>
    42b4:	001e      	movs	r6, r3
    42b6:	0027      	movs	r7, r4
    42b8:	3e20      	subs	r6, #32
    42ba:	40f7      	lsrs	r7, r6
    42bc:	2b20      	cmp	r3, #32
    42be:	d00c      	beq.n	42da <__aeabi_dsub+0x61e>
    42c0:	2640      	movs	r6, #64	; 0x40
    42c2:	1af3      	subs	r3, r6, r3
    42c4:	409c      	lsls	r4, r3
    42c6:	4650      	mov	r0, sl
    42c8:	4320      	orrs	r0, r4
    42ca:	1e44      	subs	r4, r0, #1
    42cc:	41a0      	sbcs	r0, r4
    42ce:	4307      	orrs	r7, r0
    42d0:	2400      	movs	r4, #0
    42d2:	18bf      	adds	r7, r7, r2
    42d4:	e748      	b.n	4168 <__aeabi_dsub+0x4ac>
    42d6:	2400      	movs	r4, #0
    42d8:	e7d0      	b.n	427c <__aeabi_dsub+0x5c0>
    42da:	2400      	movs	r4, #0
    42dc:	e7f3      	b.n	42c6 <__aeabi_dsub+0x60a>
    42de:	46c0      	nop			; (mov r8, r8)
    42e0:	000007ff 	.word	0x000007ff
    42e4:	ff7fffff 	.word	0xff7fffff

000042e8 <__aeabi_d2iz>:
    42e8:	b530      	push	{r4, r5, lr}
    42ea:	4d13      	ldr	r5, [pc, #76]	; (4338 <__aeabi_d2iz+0x50>)
    42ec:	030a      	lsls	r2, r1, #12
    42ee:	004b      	lsls	r3, r1, #1
    42f0:	0b12      	lsrs	r2, r2, #12
    42f2:	0d5b      	lsrs	r3, r3, #21
    42f4:	0fc9      	lsrs	r1, r1, #31
    42f6:	2400      	movs	r4, #0
    42f8:	42ab      	cmp	r3, r5
    42fa:	dd10      	ble.n	431e <__aeabi_d2iz+0x36>
    42fc:	4c0f      	ldr	r4, [pc, #60]	; (433c <__aeabi_d2iz+0x54>)
    42fe:	42a3      	cmp	r3, r4
    4300:	dc0f      	bgt.n	4322 <__aeabi_d2iz+0x3a>
    4302:	2480      	movs	r4, #128	; 0x80
    4304:	4d0e      	ldr	r5, [pc, #56]	; (4340 <__aeabi_d2iz+0x58>)
    4306:	0364      	lsls	r4, r4, #13
    4308:	4322      	orrs	r2, r4
    430a:	1aed      	subs	r5, r5, r3
    430c:	2d1f      	cmp	r5, #31
    430e:	dd0b      	ble.n	4328 <__aeabi_d2iz+0x40>
    4310:	480c      	ldr	r0, [pc, #48]	; (4344 <__aeabi_d2iz+0x5c>)
    4312:	1ac3      	subs	r3, r0, r3
    4314:	40da      	lsrs	r2, r3
    4316:	4254      	negs	r4, r2
    4318:	2900      	cmp	r1, #0
    431a:	d100      	bne.n	431e <__aeabi_d2iz+0x36>
    431c:	0014      	movs	r4, r2
    431e:	0020      	movs	r0, r4
    4320:	bd30      	pop	{r4, r5, pc}
    4322:	4b09      	ldr	r3, [pc, #36]	; (4348 <__aeabi_d2iz+0x60>)
    4324:	18cc      	adds	r4, r1, r3
    4326:	e7fa      	b.n	431e <__aeabi_d2iz+0x36>
    4328:	4c08      	ldr	r4, [pc, #32]	; (434c <__aeabi_d2iz+0x64>)
    432a:	40e8      	lsrs	r0, r5
    432c:	46a4      	mov	ip, r4
    432e:	4463      	add	r3, ip
    4330:	409a      	lsls	r2, r3
    4332:	4302      	orrs	r2, r0
    4334:	e7ef      	b.n	4316 <__aeabi_d2iz+0x2e>
    4336:	46c0      	nop			; (mov r8, r8)
    4338:	000003fe 	.word	0x000003fe
    433c:	0000041d 	.word	0x0000041d
    4340:	00000433 	.word	0x00000433
    4344:	00000413 	.word	0x00000413
    4348:	7fffffff 	.word	0x7fffffff
    434c:	fffffbed 	.word	0xfffffbed

00004350 <__aeabi_i2d>:
    4350:	b570      	push	{r4, r5, r6, lr}
    4352:	2800      	cmp	r0, #0
    4354:	d030      	beq.n	43b8 <__aeabi_i2d+0x68>
    4356:	17c3      	asrs	r3, r0, #31
    4358:	18c4      	adds	r4, r0, r3
    435a:	405c      	eors	r4, r3
    435c:	0fc5      	lsrs	r5, r0, #31
    435e:	0020      	movs	r0, r4
    4360:	f000 f98a 	bl	4678 <__clzsi2>
    4364:	4b17      	ldr	r3, [pc, #92]	; (43c4 <__aeabi_i2d+0x74>)
    4366:	4a18      	ldr	r2, [pc, #96]	; (43c8 <__aeabi_i2d+0x78>)
    4368:	1a1b      	subs	r3, r3, r0
    436a:	1ad2      	subs	r2, r2, r3
    436c:	2a1f      	cmp	r2, #31
    436e:	dd18      	ble.n	43a2 <__aeabi_i2d+0x52>
    4370:	4a16      	ldr	r2, [pc, #88]	; (43cc <__aeabi_i2d+0x7c>)
    4372:	1ad2      	subs	r2, r2, r3
    4374:	4094      	lsls	r4, r2
    4376:	2200      	movs	r2, #0
    4378:	0324      	lsls	r4, r4, #12
    437a:	055b      	lsls	r3, r3, #21
    437c:	0b24      	lsrs	r4, r4, #12
    437e:	0d5b      	lsrs	r3, r3, #21
    4380:	2100      	movs	r1, #0
    4382:	0010      	movs	r0, r2
    4384:	0324      	lsls	r4, r4, #12
    4386:	0d0a      	lsrs	r2, r1, #20
    4388:	0b24      	lsrs	r4, r4, #12
    438a:	0512      	lsls	r2, r2, #20
    438c:	4322      	orrs	r2, r4
    438e:	4c10      	ldr	r4, [pc, #64]	; (43d0 <__aeabi_i2d+0x80>)
    4390:	051b      	lsls	r3, r3, #20
    4392:	4022      	ands	r2, r4
    4394:	4313      	orrs	r3, r2
    4396:	005b      	lsls	r3, r3, #1
    4398:	07ed      	lsls	r5, r5, #31
    439a:	085b      	lsrs	r3, r3, #1
    439c:	432b      	orrs	r3, r5
    439e:	0019      	movs	r1, r3
    43a0:	bd70      	pop	{r4, r5, r6, pc}
    43a2:	0021      	movs	r1, r4
    43a4:	4091      	lsls	r1, r2
    43a6:	000a      	movs	r2, r1
    43a8:	210b      	movs	r1, #11
    43aa:	1a08      	subs	r0, r1, r0
    43ac:	40c4      	lsrs	r4, r0
    43ae:	055b      	lsls	r3, r3, #21
    43b0:	0324      	lsls	r4, r4, #12
    43b2:	0b24      	lsrs	r4, r4, #12
    43b4:	0d5b      	lsrs	r3, r3, #21
    43b6:	e7e3      	b.n	4380 <__aeabi_i2d+0x30>
    43b8:	2500      	movs	r5, #0
    43ba:	2300      	movs	r3, #0
    43bc:	2400      	movs	r4, #0
    43be:	2200      	movs	r2, #0
    43c0:	e7de      	b.n	4380 <__aeabi_i2d+0x30>
    43c2:	46c0      	nop			; (mov r8, r8)
    43c4:	0000041e 	.word	0x0000041e
    43c8:	00000433 	.word	0x00000433
    43cc:	00000413 	.word	0x00000413
    43d0:	800fffff 	.word	0x800fffff

000043d4 <__aeabi_ui2d>:
    43d4:	b510      	push	{r4, lr}
    43d6:	1e04      	subs	r4, r0, #0
    43d8:	d028      	beq.n	442c <__aeabi_ui2d+0x58>
    43da:	f000 f94d 	bl	4678 <__clzsi2>
    43de:	4b15      	ldr	r3, [pc, #84]	; (4434 <__aeabi_ui2d+0x60>)
    43e0:	4a15      	ldr	r2, [pc, #84]	; (4438 <__aeabi_ui2d+0x64>)
    43e2:	1a1b      	subs	r3, r3, r0
    43e4:	1ad2      	subs	r2, r2, r3
    43e6:	2a1f      	cmp	r2, #31
    43e8:	dd15      	ble.n	4416 <__aeabi_ui2d+0x42>
    43ea:	4a14      	ldr	r2, [pc, #80]	; (443c <__aeabi_ui2d+0x68>)
    43ec:	1ad2      	subs	r2, r2, r3
    43ee:	4094      	lsls	r4, r2
    43f0:	2200      	movs	r2, #0
    43f2:	0324      	lsls	r4, r4, #12
    43f4:	055b      	lsls	r3, r3, #21
    43f6:	0b24      	lsrs	r4, r4, #12
    43f8:	0d5b      	lsrs	r3, r3, #21
    43fa:	2100      	movs	r1, #0
    43fc:	0010      	movs	r0, r2
    43fe:	0324      	lsls	r4, r4, #12
    4400:	0d0a      	lsrs	r2, r1, #20
    4402:	0b24      	lsrs	r4, r4, #12
    4404:	0512      	lsls	r2, r2, #20
    4406:	4322      	orrs	r2, r4
    4408:	4c0d      	ldr	r4, [pc, #52]	; (4440 <__aeabi_ui2d+0x6c>)
    440a:	051b      	lsls	r3, r3, #20
    440c:	4022      	ands	r2, r4
    440e:	4313      	orrs	r3, r2
    4410:	005b      	lsls	r3, r3, #1
    4412:	0859      	lsrs	r1, r3, #1
    4414:	bd10      	pop	{r4, pc}
    4416:	0021      	movs	r1, r4
    4418:	4091      	lsls	r1, r2
    441a:	000a      	movs	r2, r1
    441c:	210b      	movs	r1, #11
    441e:	1a08      	subs	r0, r1, r0
    4420:	40c4      	lsrs	r4, r0
    4422:	055b      	lsls	r3, r3, #21
    4424:	0324      	lsls	r4, r4, #12
    4426:	0b24      	lsrs	r4, r4, #12
    4428:	0d5b      	lsrs	r3, r3, #21
    442a:	e7e6      	b.n	43fa <__aeabi_ui2d+0x26>
    442c:	2300      	movs	r3, #0
    442e:	2400      	movs	r4, #0
    4430:	2200      	movs	r2, #0
    4432:	e7e2      	b.n	43fa <__aeabi_ui2d+0x26>
    4434:	0000041e 	.word	0x0000041e
    4438:	00000433 	.word	0x00000433
    443c:	00000413 	.word	0x00000413
    4440:	800fffff 	.word	0x800fffff

00004444 <__aeabi_f2d>:
    4444:	0041      	lsls	r1, r0, #1
    4446:	0e09      	lsrs	r1, r1, #24
    4448:	1c4b      	adds	r3, r1, #1
    444a:	b570      	push	{r4, r5, r6, lr}
    444c:	b2db      	uxtb	r3, r3
    444e:	0246      	lsls	r6, r0, #9
    4450:	0a75      	lsrs	r5, r6, #9
    4452:	0fc4      	lsrs	r4, r0, #31
    4454:	2b01      	cmp	r3, #1
    4456:	dd14      	ble.n	4482 <__aeabi_f2d+0x3e>
    4458:	23e0      	movs	r3, #224	; 0xe0
    445a:	009b      	lsls	r3, r3, #2
    445c:	076d      	lsls	r5, r5, #29
    445e:	0b36      	lsrs	r6, r6, #12
    4460:	18cb      	adds	r3, r1, r3
    4462:	2100      	movs	r1, #0
    4464:	0d0a      	lsrs	r2, r1, #20
    4466:	0028      	movs	r0, r5
    4468:	0512      	lsls	r2, r2, #20
    446a:	4d1c      	ldr	r5, [pc, #112]	; (44dc <__aeabi_f2d+0x98>)
    446c:	4332      	orrs	r2, r6
    446e:	055b      	lsls	r3, r3, #21
    4470:	402a      	ands	r2, r5
    4472:	085b      	lsrs	r3, r3, #1
    4474:	4313      	orrs	r3, r2
    4476:	005b      	lsls	r3, r3, #1
    4478:	07e4      	lsls	r4, r4, #31
    447a:	085b      	lsrs	r3, r3, #1
    447c:	4323      	orrs	r3, r4
    447e:	0019      	movs	r1, r3
    4480:	bd70      	pop	{r4, r5, r6, pc}
    4482:	2900      	cmp	r1, #0
    4484:	d114      	bne.n	44b0 <__aeabi_f2d+0x6c>
    4486:	2d00      	cmp	r5, #0
    4488:	d01e      	beq.n	44c8 <__aeabi_f2d+0x84>
    448a:	0028      	movs	r0, r5
    448c:	f000 f8f4 	bl	4678 <__clzsi2>
    4490:	280a      	cmp	r0, #10
    4492:	dc1c      	bgt.n	44ce <__aeabi_f2d+0x8a>
    4494:	230b      	movs	r3, #11
    4496:	002a      	movs	r2, r5
    4498:	1a1b      	subs	r3, r3, r0
    449a:	40da      	lsrs	r2, r3
    449c:	0003      	movs	r3, r0
    449e:	3315      	adds	r3, #21
    44a0:	409d      	lsls	r5, r3
    44a2:	4b0f      	ldr	r3, [pc, #60]	; (44e0 <__aeabi_f2d+0x9c>)
    44a4:	0312      	lsls	r2, r2, #12
    44a6:	1a1b      	subs	r3, r3, r0
    44a8:	055b      	lsls	r3, r3, #21
    44aa:	0b16      	lsrs	r6, r2, #12
    44ac:	0d5b      	lsrs	r3, r3, #21
    44ae:	e7d8      	b.n	4462 <__aeabi_f2d+0x1e>
    44b0:	2d00      	cmp	r5, #0
    44b2:	d006      	beq.n	44c2 <__aeabi_f2d+0x7e>
    44b4:	0b32      	lsrs	r2, r6, #12
    44b6:	2680      	movs	r6, #128	; 0x80
    44b8:	0336      	lsls	r6, r6, #12
    44ba:	076d      	lsls	r5, r5, #29
    44bc:	4316      	orrs	r6, r2
    44be:	4b09      	ldr	r3, [pc, #36]	; (44e4 <__aeabi_f2d+0xa0>)
    44c0:	e7cf      	b.n	4462 <__aeabi_f2d+0x1e>
    44c2:	4b08      	ldr	r3, [pc, #32]	; (44e4 <__aeabi_f2d+0xa0>)
    44c4:	2600      	movs	r6, #0
    44c6:	e7cc      	b.n	4462 <__aeabi_f2d+0x1e>
    44c8:	2300      	movs	r3, #0
    44ca:	2600      	movs	r6, #0
    44cc:	e7c9      	b.n	4462 <__aeabi_f2d+0x1e>
    44ce:	0003      	movs	r3, r0
    44d0:	002a      	movs	r2, r5
    44d2:	3b0b      	subs	r3, #11
    44d4:	409a      	lsls	r2, r3
    44d6:	2500      	movs	r5, #0
    44d8:	e7e3      	b.n	44a2 <__aeabi_f2d+0x5e>
    44da:	46c0      	nop			; (mov r8, r8)
    44dc:	800fffff 	.word	0x800fffff
    44e0:	00000389 	.word	0x00000389
    44e4:	000007ff 	.word	0x000007ff

000044e8 <__aeabi_d2f>:
    44e8:	b5f0      	push	{r4, r5, r6, r7, lr}
    44ea:	004c      	lsls	r4, r1, #1
    44ec:	0d64      	lsrs	r4, r4, #21
    44ee:	030b      	lsls	r3, r1, #12
    44f0:	1c62      	adds	r2, r4, #1
    44f2:	0f45      	lsrs	r5, r0, #29
    44f4:	0a5b      	lsrs	r3, r3, #9
    44f6:	0552      	lsls	r2, r2, #21
    44f8:	432b      	orrs	r3, r5
    44fa:	0fc9      	lsrs	r1, r1, #31
    44fc:	00c5      	lsls	r5, r0, #3
    44fe:	0d52      	lsrs	r2, r2, #21
    4500:	2a01      	cmp	r2, #1
    4502:	dd28      	ble.n	4556 <__aeabi_d2f+0x6e>
    4504:	4a3a      	ldr	r2, [pc, #232]	; (45f0 <__aeabi_d2f+0x108>)
    4506:	18a6      	adds	r6, r4, r2
    4508:	2efe      	cmp	r6, #254	; 0xfe
    450a:	dc1b      	bgt.n	4544 <__aeabi_d2f+0x5c>
    450c:	2e00      	cmp	r6, #0
    450e:	dd3e      	ble.n	458e <__aeabi_d2f+0xa6>
    4510:	0180      	lsls	r0, r0, #6
    4512:	0002      	movs	r2, r0
    4514:	1e50      	subs	r0, r2, #1
    4516:	4182      	sbcs	r2, r0
    4518:	0f6d      	lsrs	r5, r5, #29
    451a:	432a      	orrs	r2, r5
    451c:	00db      	lsls	r3, r3, #3
    451e:	4313      	orrs	r3, r2
    4520:	075a      	lsls	r2, r3, #29
    4522:	d004      	beq.n	452e <__aeabi_d2f+0x46>
    4524:	220f      	movs	r2, #15
    4526:	401a      	ands	r2, r3
    4528:	2a04      	cmp	r2, #4
    452a:	d000      	beq.n	452e <__aeabi_d2f+0x46>
    452c:	3304      	adds	r3, #4
    452e:	2280      	movs	r2, #128	; 0x80
    4530:	04d2      	lsls	r2, r2, #19
    4532:	401a      	ands	r2, r3
    4534:	d05a      	beq.n	45ec <__aeabi_d2f+0x104>
    4536:	3601      	adds	r6, #1
    4538:	2eff      	cmp	r6, #255	; 0xff
    453a:	d003      	beq.n	4544 <__aeabi_d2f+0x5c>
    453c:	019b      	lsls	r3, r3, #6
    453e:	0a5b      	lsrs	r3, r3, #9
    4540:	b2f4      	uxtb	r4, r6
    4542:	e001      	b.n	4548 <__aeabi_d2f+0x60>
    4544:	24ff      	movs	r4, #255	; 0xff
    4546:	2300      	movs	r3, #0
    4548:	0258      	lsls	r0, r3, #9
    454a:	05e4      	lsls	r4, r4, #23
    454c:	0a40      	lsrs	r0, r0, #9
    454e:	07c9      	lsls	r1, r1, #31
    4550:	4320      	orrs	r0, r4
    4552:	4308      	orrs	r0, r1
    4554:	bdf0      	pop	{r4, r5, r6, r7, pc}
    4556:	2c00      	cmp	r4, #0
    4558:	d007      	beq.n	456a <__aeabi_d2f+0x82>
    455a:	431d      	orrs	r5, r3
    455c:	d0f2      	beq.n	4544 <__aeabi_d2f+0x5c>
    455e:	2080      	movs	r0, #128	; 0x80
    4560:	00db      	lsls	r3, r3, #3
    4562:	0480      	lsls	r0, r0, #18
    4564:	4303      	orrs	r3, r0
    4566:	26ff      	movs	r6, #255	; 0xff
    4568:	e7da      	b.n	4520 <__aeabi_d2f+0x38>
    456a:	432b      	orrs	r3, r5
    456c:	d003      	beq.n	4576 <__aeabi_d2f+0x8e>
    456e:	2305      	movs	r3, #5
    4570:	08db      	lsrs	r3, r3, #3
    4572:	2cff      	cmp	r4, #255	; 0xff
    4574:	d003      	beq.n	457e <__aeabi_d2f+0x96>
    4576:	025b      	lsls	r3, r3, #9
    4578:	0a5b      	lsrs	r3, r3, #9
    457a:	b2e4      	uxtb	r4, r4
    457c:	e7e4      	b.n	4548 <__aeabi_d2f+0x60>
    457e:	2b00      	cmp	r3, #0
    4580:	d032      	beq.n	45e8 <__aeabi_d2f+0x100>
    4582:	2080      	movs	r0, #128	; 0x80
    4584:	03c0      	lsls	r0, r0, #15
    4586:	4303      	orrs	r3, r0
    4588:	025b      	lsls	r3, r3, #9
    458a:	0a5b      	lsrs	r3, r3, #9
    458c:	e7dc      	b.n	4548 <__aeabi_d2f+0x60>
    458e:	0032      	movs	r2, r6
    4590:	3217      	adds	r2, #23
    4592:	db14      	blt.n	45be <__aeabi_d2f+0xd6>
    4594:	2280      	movs	r2, #128	; 0x80
    4596:	271e      	movs	r7, #30
    4598:	0412      	lsls	r2, r2, #16
    459a:	4313      	orrs	r3, r2
    459c:	1bbf      	subs	r7, r7, r6
    459e:	2f1f      	cmp	r7, #31
    45a0:	dc0f      	bgt.n	45c2 <__aeabi_d2f+0xda>
    45a2:	4a14      	ldr	r2, [pc, #80]	; (45f4 <__aeabi_d2f+0x10c>)
    45a4:	4694      	mov	ip, r2
    45a6:	4464      	add	r4, ip
    45a8:	002a      	movs	r2, r5
    45aa:	40a5      	lsls	r5, r4
    45ac:	002e      	movs	r6, r5
    45ae:	40a3      	lsls	r3, r4
    45b0:	1e75      	subs	r5, r6, #1
    45b2:	41ae      	sbcs	r6, r5
    45b4:	40fa      	lsrs	r2, r7
    45b6:	4333      	orrs	r3, r6
    45b8:	4313      	orrs	r3, r2
    45ba:	2600      	movs	r6, #0
    45bc:	e7b0      	b.n	4520 <__aeabi_d2f+0x38>
    45be:	2400      	movs	r4, #0
    45c0:	e7d5      	b.n	456e <__aeabi_d2f+0x86>
    45c2:	2202      	movs	r2, #2
    45c4:	4252      	negs	r2, r2
    45c6:	1b96      	subs	r6, r2, r6
    45c8:	001a      	movs	r2, r3
    45ca:	40f2      	lsrs	r2, r6
    45cc:	2f20      	cmp	r7, #32
    45ce:	d009      	beq.n	45e4 <__aeabi_d2f+0xfc>
    45d0:	4809      	ldr	r0, [pc, #36]	; (45f8 <__aeabi_d2f+0x110>)
    45d2:	4684      	mov	ip, r0
    45d4:	4464      	add	r4, ip
    45d6:	40a3      	lsls	r3, r4
    45d8:	432b      	orrs	r3, r5
    45da:	1e5d      	subs	r5, r3, #1
    45dc:	41ab      	sbcs	r3, r5
    45de:	2600      	movs	r6, #0
    45e0:	4313      	orrs	r3, r2
    45e2:	e79d      	b.n	4520 <__aeabi_d2f+0x38>
    45e4:	2300      	movs	r3, #0
    45e6:	e7f7      	b.n	45d8 <__aeabi_d2f+0xf0>
    45e8:	2300      	movs	r3, #0
    45ea:	e7ad      	b.n	4548 <__aeabi_d2f+0x60>
    45ec:	0034      	movs	r4, r6
    45ee:	e7bf      	b.n	4570 <__aeabi_d2f+0x88>
    45f0:	fffffc80 	.word	0xfffffc80
    45f4:	fffffc82 	.word	0xfffffc82
    45f8:	fffffca2 	.word	0xfffffca2

000045fc <__aeabi_cdrcmple>:
    45fc:	4684      	mov	ip, r0
    45fe:	1c10      	adds	r0, r2, #0
    4600:	4662      	mov	r2, ip
    4602:	468c      	mov	ip, r1
    4604:	1c19      	adds	r1, r3, #0
    4606:	4663      	mov	r3, ip
    4608:	e000      	b.n	460c <__aeabi_cdcmpeq>
    460a:	46c0      	nop			; (mov r8, r8)

0000460c <__aeabi_cdcmpeq>:
    460c:	b51f      	push	{r0, r1, r2, r3, r4, lr}
    460e:	f000 f8fb 	bl	4808 <__ledf2>
    4612:	2800      	cmp	r0, #0
    4614:	d401      	bmi.n	461a <__aeabi_cdcmpeq+0xe>
    4616:	2100      	movs	r1, #0
    4618:	42c8      	cmn	r0, r1
    461a:	bd1f      	pop	{r0, r1, r2, r3, r4, pc}

0000461c <__aeabi_dcmpeq>:
    461c:	b510      	push	{r4, lr}
    461e:	f000 f855 	bl	46cc <__eqdf2>
    4622:	4240      	negs	r0, r0
    4624:	3001      	adds	r0, #1
    4626:	bd10      	pop	{r4, pc}

00004628 <__aeabi_dcmplt>:
    4628:	b510      	push	{r4, lr}
    462a:	f000 f8ed 	bl	4808 <__ledf2>
    462e:	2800      	cmp	r0, #0
    4630:	db01      	blt.n	4636 <__aeabi_dcmplt+0xe>
    4632:	2000      	movs	r0, #0
    4634:	bd10      	pop	{r4, pc}
    4636:	2001      	movs	r0, #1
    4638:	bd10      	pop	{r4, pc}
    463a:	46c0      	nop			; (mov r8, r8)

0000463c <__aeabi_dcmple>:
    463c:	b510      	push	{r4, lr}
    463e:	f000 f8e3 	bl	4808 <__ledf2>
    4642:	2800      	cmp	r0, #0
    4644:	dd01      	ble.n	464a <__aeabi_dcmple+0xe>
    4646:	2000      	movs	r0, #0
    4648:	bd10      	pop	{r4, pc}
    464a:	2001      	movs	r0, #1
    464c:	bd10      	pop	{r4, pc}
    464e:	46c0      	nop			; (mov r8, r8)

00004650 <__aeabi_dcmpgt>:
    4650:	b510      	push	{r4, lr}
    4652:	f000 f875 	bl	4740 <__gedf2>
    4656:	2800      	cmp	r0, #0
    4658:	dc01      	bgt.n	465e <__aeabi_dcmpgt+0xe>
    465a:	2000      	movs	r0, #0
    465c:	bd10      	pop	{r4, pc}
    465e:	2001      	movs	r0, #1
    4660:	bd10      	pop	{r4, pc}
    4662:	46c0      	nop			; (mov r8, r8)

00004664 <__aeabi_dcmpge>:
    4664:	b510      	push	{r4, lr}
    4666:	f000 f86b 	bl	4740 <__gedf2>
    466a:	2800      	cmp	r0, #0
    466c:	da01      	bge.n	4672 <__aeabi_dcmpge+0xe>
    466e:	2000      	movs	r0, #0
    4670:	bd10      	pop	{r4, pc}
    4672:	2001      	movs	r0, #1
    4674:	bd10      	pop	{r4, pc}
    4676:	46c0      	nop			; (mov r8, r8)

00004678 <__clzsi2>:
    4678:	211c      	movs	r1, #28
    467a:	2301      	movs	r3, #1
    467c:	041b      	lsls	r3, r3, #16
    467e:	4298      	cmp	r0, r3
    4680:	d301      	bcc.n	4686 <__clzsi2+0xe>
    4682:	0c00      	lsrs	r0, r0, #16
    4684:	3910      	subs	r1, #16
    4686:	0a1b      	lsrs	r3, r3, #8
    4688:	4298      	cmp	r0, r3
    468a:	d301      	bcc.n	4690 <__clzsi2+0x18>
    468c:	0a00      	lsrs	r0, r0, #8
    468e:	3908      	subs	r1, #8
    4690:	091b      	lsrs	r3, r3, #4
    4692:	4298      	cmp	r0, r3
    4694:	d301      	bcc.n	469a <__clzsi2+0x22>
    4696:	0900      	lsrs	r0, r0, #4
    4698:	3904      	subs	r1, #4
    469a:	a202      	add	r2, pc, #8	; (adr r2, 46a4 <__clzsi2+0x2c>)
    469c:	5c10      	ldrb	r0, [r2, r0]
    469e:	1840      	adds	r0, r0, r1
    46a0:	4770      	bx	lr
    46a2:	46c0      	nop			; (mov r8, r8)
    46a4:	02020304 	.word	0x02020304
    46a8:	01010101 	.word	0x01010101
	...

000046b4 <__clzdi2>:
    46b4:	b510      	push	{r4, lr}
    46b6:	2900      	cmp	r1, #0
    46b8:	d103      	bne.n	46c2 <__clzdi2+0xe>
    46ba:	f7ff ffdd 	bl	4678 <__clzsi2>
    46be:	3020      	adds	r0, #32
    46c0:	e002      	b.n	46c8 <__clzdi2+0x14>
    46c2:	1c08      	adds	r0, r1, #0
    46c4:	f7ff ffd8 	bl	4678 <__clzsi2>
    46c8:	bd10      	pop	{r4, pc}
    46ca:	46c0      	nop			; (mov r8, r8)

000046cc <__eqdf2>:
    46cc:	b5f0      	push	{r4, r5, r6, r7, lr}
    46ce:	464f      	mov	r7, r9
    46d0:	4646      	mov	r6, r8
    46d2:	46d6      	mov	lr, sl
    46d4:	005c      	lsls	r4, r3, #1
    46d6:	b5c0      	push	{r6, r7, lr}
    46d8:	031f      	lsls	r7, r3, #12
    46da:	0fdb      	lsrs	r3, r3, #31
    46dc:	469a      	mov	sl, r3
    46de:	4b17      	ldr	r3, [pc, #92]	; (473c <__eqdf2+0x70>)
    46e0:	030e      	lsls	r6, r1, #12
    46e2:	004d      	lsls	r5, r1, #1
    46e4:	4684      	mov	ip, r0
    46e6:	4680      	mov	r8, r0
    46e8:	0b36      	lsrs	r6, r6, #12
    46ea:	0d6d      	lsrs	r5, r5, #21
    46ec:	0fc9      	lsrs	r1, r1, #31
    46ee:	4691      	mov	r9, r2
    46f0:	0b3f      	lsrs	r7, r7, #12
    46f2:	0d64      	lsrs	r4, r4, #21
    46f4:	2001      	movs	r0, #1
    46f6:	429d      	cmp	r5, r3
    46f8:	d008      	beq.n	470c <__eqdf2+0x40>
    46fa:	429c      	cmp	r4, r3
    46fc:	d001      	beq.n	4702 <__eqdf2+0x36>
    46fe:	42a5      	cmp	r5, r4
    4700:	d00b      	beq.n	471a <__eqdf2+0x4e>
    4702:	bc1c      	pop	{r2, r3, r4}
    4704:	4690      	mov	r8, r2
    4706:	4699      	mov	r9, r3
    4708:	46a2      	mov	sl, r4
    470a:	bdf0      	pop	{r4, r5, r6, r7, pc}
    470c:	4663      	mov	r3, ip
    470e:	4333      	orrs	r3, r6
    4710:	d1f7      	bne.n	4702 <__eqdf2+0x36>
    4712:	42ac      	cmp	r4, r5
    4714:	d1f5      	bne.n	4702 <__eqdf2+0x36>
    4716:	433a      	orrs	r2, r7
    4718:	d1f3      	bne.n	4702 <__eqdf2+0x36>
    471a:	2001      	movs	r0, #1
    471c:	42be      	cmp	r6, r7
    471e:	d1f0      	bne.n	4702 <__eqdf2+0x36>
    4720:	45c8      	cmp	r8, r9
    4722:	d1ee      	bne.n	4702 <__eqdf2+0x36>
    4724:	4551      	cmp	r1, sl
    4726:	d007      	beq.n	4738 <__eqdf2+0x6c>
    4728:	2d00      	cmp	r5, #0
    472a:	d1ea      	bne.n	4702 <__eqdf2+0x36>
    472c:	4663      	mov	r3, ip
    472e:	431e      	orrs	r6, r3
    4730:	0030      	movs	r0, r6
    4732:	1e46      	subs	r6, r0, #1
    4734:	41b0      	sbcs	r0, r6
    4736:	e7e4      	b.n	4702 <__eqdf2+0x36>
    4738:	2000      	movs	r0, #0
    473a:	e7e2      	b.n	4702 <__eqdf2+0x36>
    473c:	000007ff 	.word	0x000007ff

00004740 <__gedf2>:
    4740:	b5f0      	push	{r4, r5, r6, r7, lr}
    4742:	4645      	mov	r5, r8
    4744:	46de      	mov	lr, fp
    4746:	4657      	mov	r7, sl
    4748:	464e      	mov	r6, r9
    474a:	b5e0      	push	{r5, r6, r7, lr}
    474c:	031f      	lsls	r7, r3, #12
    474e:	0b3d      	lsrs	r5, r7, #12
    4750:	4f2c      	ldr	r7, [pc, #176]	; (4804 <__gedf2+0xc4>)
    4752:	030e      	lsls	r6, r1, #12
    4754:	004c      	lsls	r4, r1, #1
    4756:	46ab      	mov	fp, r5
    4758:	005d      	lsls	r5, r3, #1
    475a:	4684      	mov	ip, r0
    475c:	0b36      	lsrs	r6, r6, #12
    475e:	0d64      	lsrs	r4, r4, #21
    4760:	0fc9      	lsrs	r1, r1, #31
    4762:	4690      	mov	r8, r2
    4764:	0d6d      	lsrs	r5, r5, #21
    4766:	0fdb      	lsrs	r3, r3, #31
    4768:	42bc      	cmp	r4, r7
    476a:	d02a      	beq.n	47c2 <__gedf2+0x82>
    476c:	4f25      	ldr	r7, [pc, #148]	; (4804 <__gedf2+0xc4>)
    476e:	42bd      	cmp	r5, r7
    4770:	d02d      	beq.n	47ce <__gedf2+0x8e>
    4772:	2c00      	cmp	r4, #0
    4774:	d10f      	bne.n	4796 <__gedf2+0x56>
    4776:	4330      	orrs	r0, r6
    4778:	0007      	movs	r7, r0
    477a:	4681      	mov	r9, r0
    477c:	4278      	negs	r0, r7
    477e:	4178      	adcs	r0, r7
    4780:	b2c0      	uxtb	r0, r0
    4782:	2d00      	cmp	r5, #0
    4784:	d117      	bne.n	47b6 <__gedf2+0x76>
    4786:	465f      	mov	r7, fp
    4788:	433a      	orrs	r2, r7
    478a:	d114      	bne.n	47b6 <__gedf2+0x76>
    478c:	464b      	mov	r3, r9
    478e:	2000      	movs	r0, #0
    4790:	2b00      	cmp	r3, #0
    4792:	d00a      	beq.n	47aa <__gedf2+0x6a>
    4794:	e006      	b.n	47a4 <__gedf2+0x64>
    4796:	2d00      	cmp	r5, #0
    4798:	d102      	bne.n	47a0 <__gedf2+0x60>
    479a:	4658      	mov	r0, fp
    479c:	4302      	orrs	r2, r0
    479e:	d001      	beq.n	47a4 <__gedf2+0x64>
    47a0:	4299      	cmp	r1, r3
    47a2:	d018      	beq.n	47d6 <__gedf2+0x96>
    47a4:	4248      	negs	r0, r1
    47a6:	2101      	movs	r1, #1
    47a8:	4308      	orrs	r0, r1
    47aa:	bc3c      	pop	{r2, r3, r4, r5}
    47ac:	4690      	mov	r8, r2
    47ae:	4699      	mov	r9, r3
    47b0:	46a2      	mov	sl, r4
    47b2:	46ab      	mov	fp, r5
    47b4:	bdf0      	pop	{r4, r5, r6, r7, pc}
    47b6:	2800      	cmp	r0, #0
    47b8:	d0f2      	beq.n	47a0 <__gedf2+0x60>
    47ba:	2001      	movs	r0, #1
    47bc:	3b01      	subs	r3, #1
    47be:	4318      	orrs	r0, r3
    47c0:	e7f3      	b.n	47aa <__gedf2+0x6a>
    47c2:	0037      	movs	r7, r6
    47c4:	4307      	orrs	r7, r0
    47c6:	d0d1      	beq.n	476c <__gedf2+0x2c>
    47c8:	2002      	movs	r0, #2
    47ca:	4240      	negs	r0, r0
    47cc:	e7ed      	b.n	47aa <__gedf2+0x6a>
    47ce:	465f      	mov	r7, fp
    47d0:	4317      	orrs	r7, r2
    47d2:	d0ce      	beq.n	4772 <__gedf2+0x32>
    47d4:	e7f8      	b.n	47c8 <__gedf2+0x88>
    47d6:	42ac      	cmp	r4, r5
    47d8:	dce4      	bgt.n	47a4 <__gedf2+0x64>
    47da:	da03      	bge.n	47e4 <__gedf2+0xa4>
    47dc:	1e48      	subs	r0, r1, #1
    47de:	2101      	movs	r1, #1
    47e0:	4308      	orrs	r0, r1
    47e2:	e7e2      	b.n	47aa <__gedf2+0x6a>
    47e4:	455e      	cmp	r6, fp
    47e6:	d8dd      	bhi.n	47a4 <__gedf2+0x64>
    47e8:	d006      	beq.n	47f8 <__gedf2+0xb8>
    47ea:	2000      	movs	r0, #0
    47ec:	455e      	cmp	r6, fp
    47ee:	d2dc      	bcs.n	47aa <__gedf2+0x6a>
    47f0:	2301      	movs	r3, #1
    47f2:	1e48      	subs	r0, r1, #1
    47f4:	4318      	orrs	r0, r3
    47f6:	e7d8      	b.n	47aa <__gedf2+0x6a>
    47f8:	45c4      	cmp	ip, r8
    47fa:	d8d3      	bhi.n	47a4 <__gedf2+0x64>
    47fc:	2000      	movs	r0, #0
    47fe:	45c4      	cmp	ip, r8
    4800:	d3f6      	bcc.n	47f0 <__gedf2+0xb0>
    4802:	e7d2      	b.n	47aa <__gedf2+0x6a>
    4804:	000007ff 	.word	0x000007ff

00004808 <__ledf2>:
    4808:	b5f0      	push	{r4, r5, r6, r7, lr}
    480a:	464e      	mov	r6, r9
    480c:	4645      	mov	r5, r8
    480e:	46de      	mov	lr, fp
    4810:	4657      	mov	r7, sl
    4812:	005c      	lsls	r4, r3, #1
    4814:	b5e0      	push	{r5, r6, r7, lr}
    4816:	031f      	lsls	r7, r3, #12
    4818:	0fdb      	lsrs	r3, r3, #31
    481a:	4699      	mov	r9, r3
    481c:	4b2a      	ldr	r3, [pc, #168]	; (48c8 <__ledf2+0xc0>)
    481e:	030e      	lsls	r6, r1, #12
    4820:	004d      	lsls	r5, r1, #1
    4822:	0fc9      	lsrs	r1, r1, #31
    4824:	4684      	mov	ip, r0
    4826:	0b36      	lsrs	r6, r6, #12
    4828:	0d6d      	lsrs	r5, r5, #21
    482a:	468b      	mov	fp, r1
    482c:	4690      	mov	r8, r2
    482e:	0b3f      	lsrs	r7, r7, #12
    4830:	0d64      	lsrs	r4, r4, #21
    4832:	429d      	cmp	r5, r3
    4834:	d020      	beq.n	4878 <__ledf2+0x70>
    4836:	4b24      	ldr	r3, [pc, #144]	; (48c8 <__ledf2+0xc0>)
    4838:	429c      	cmp	r4, r3
    483a:	d022      	beq.n	4882 <__ledf2+0x7a>
    483c:	2d00      	cmp	r5, #0
    483e:	d112      	bne.n	4866 <__ledf2+0x5e>
    4840:	4330      	orrs	r0, r6
    4842:	4243      	negs	r3, r0
    4844:	4143      	adcs	r3, r0
    4846:	b2db      	uxtb	r3, r3
    4848:	2c00      	cmp	r4, #0
    484a:	d01f      	beq.n	488c <__ledf2+0x84>
    484c:	2b00      	cmp	r3, #0
    484e:	d00c      	beq.n	486a <__ledf2+0x62>
    4850:	464b      	mov	r3, r9
    4852:	2001      	movs	r0, #1
    4854:	3b01      	subs	r3, #1
    4856:	4303      	orrs	r3, r0
    4858:	0018      	movs	r0, r3
    485a:	bc3c      	pop	{r2, r3, r4, r5}
    485c:	4690      	mov	r8, r2
    485e:	4699      	mov	r9, r3
    4860:	46a2      	mov	sl, r4
    4862:	46ab      	mov	fp, r5
    4864:	bdf0      	pop	{r4, r5, r6, r7, pc}
    4866:	2c00      	cmp	r4, #0
    4868:	d016      	beq.n	4898 <__ledf2+0x90>
    486a:	45cb      	cmp	fp, r9
    486c:	d017      	beq.n	489e <__ledf2+0x96>
    486e:	465b      	mov	r3, fp
    4870:	4259      	negs	r1, r3
    4872:	2301      	movs	r3, #1
    4874:	430b      	orrs	r3, r1
    4876:	e7ef      	b.n	4858 <__ledf2+0x50>
    4878:	0031      	movs	r1, r6
    487a:	2302      	movs	r3, #2
    487c:	4301      	orrs	r1, r0
    487e:	d1eb      	bne.n	4858 <__ledf2+0x50>
    4880:	e7d9      	b.n	4836 <__ledf2+0x2e>
    4882:	0039      	movs	r1, r7
    4884:	2302      	movs	r3, #2
    4886:	4311      	orrs	r1, r2
    4888:	d1e6      	bne.n	4858 <__ledf2+0x50>
    488a:	e7d7      	b.n	483c <__ledf2+0x34>
    488c:	433a      	orrs	r2, r7
    488e:	d1dd      	bne.n	484c <__ledf2+0x44>
    4890:	2300      	movs	r3, #0
    4892:	2800      	cmp	r0, #0
    4894:	d0e0      	beq.n	4858 <__ledf2+0x50>
    4896:	e7ea      	b.n	486e <__ledf2+0x66>
    4898:	433a      	orrs	r2, r7
    489a:	d1e6      	bne.n	486a <__ledf2+0x62>
    489c:	e7e7      	b.n	486e <__ledf2+0x66>
    489e:	42a5      	cmp	r5, r4
    48a0:	dce5      	bgt.n	486e <__ledf2+0x66>
    48a2:	db05      	blt.n	48b0 <__ledf2+0xa8>
    48a4:	42be      	cmp	r6, r7
    48a6:	d8e2      	bhi.n	486e <__ledf2+0x66>
    48a8:	d007      	beq.n	48ba <__ledf2+0xb2>
    48aa:	2300      	movs	r3, #0
    48ac:	42be      	cmp	r6, r7
    48ae:	d2d3      	bcs.n	4858 <__ledf2+0x50>
    48b0:	4659      	mov	r1, fp
    48b2:	2301      	movs	r3, #1
    48b4:	3901      	subs	r1, #1
    48b6:	430b      	orrs	r3, r1
    48b8:	e7ce      	b.n	4858 <__ledf2+0x50>
    48ba:	45c4      	cmp	ip, r8
    48bc:	d8d7      	bhi.n	486e <__ledf2+0x66>
    48be:	2300      	movs	r3, #0
    48c0:	45c4      	cmp	ip, r8
    48c2:	d3f5      	bcc.n	48b0 <__ledf2+0xa8>
    48c4:	e7c8      	b.n	4858 <__ledf2+0x50>
    48c6:	46c0      	nop			; (mov r8, r8)
    48c8:	000007ff 	.word	0x000007ff

000048cc <__libc_init_array>:
    48cc:	b570      	push	{r4, r5, r6, lr}
    48ce:	4e0d      	ldr	r6, [pc, #52]	; (4904 <__libc_init_array+0x38>)
    48d0:	4d0d      	ldr	r5, [pc, #52]	; (4908 <__libc_init_array+0x3c>)
    48d2:	2400      	movs	r4, #0
    48d4:	1bad      	subs	r5, r5, r6
    48d6:	10ad      	asrs	r5, r5, #2
    48d8:	d005      	beq.n	48e6 <__libc_init_array+0x1a>
    48da:	00a3      	lsls	r3, r4, #2
    48dc:	58f3      	ldr	r3, [r6, r3]
    48de:	3401      	adds	r4, #1
    48e0:	4798      	blx	r3
    48e2:	42a5      	cmp	r5, r4
    48e4:	d1f9      	bne.n	48da <__libc_init_array+0xe>
    48e6:	f004 fdb5 	bl	9454 <_init>
    48ea:	4e08      	ldr	r6, [pc, #32]	; (490c <__libc_init_array+0x40>)
    48ec:	4d08      	ldr	r5, [pc, #32]	; (4910 <__libc_init_array+0x44>)
    48ee:	2400      	movs	r4, #0
    48f0:	1bad      	subs	r5, r5, r6
    48f2:	10ad      	asrs	r5, r5, #2
    48f4:	d005      	beq.n	4902 <__libc_init_array+0x36>
    48f6:	00a3      	lsls	r3, r4, #2
    48f8:	58f3      	ldr	r3, [r6, r3]
    48fa:	3401      	adds	r4, #1
    48fc:	4798      	blx	r3
    48fe:	42a5      	cmp	r5, r4
    4900:	d1f9      	bne.n	48f6 <__libc_init_array+0x2a>
    4902:	bd70      	pop	{r4, r5, r6, pc}
    4904:	00009460 	.word	0x00009460
    4908:	00009460 	.word	0x00009460
    490c:	00009460 	.word	0x00009460
    4910:	00009468 	.word	0x00009468

00004914 <memcpy>:
    4914:	b5f0      	push	{r4, r5, r6, r7, lr}
    4916:	0005      	movs	r5, r0
    4918:	2a0f      	cmp	r2, #15
    491a:	d92f      	bls.n	497c <memcpy+0x68>
    491c:	000b      	movs	r3, r1
    491e:	4303      	orrs	r3, r0
    4920:	079b      	lsls	r3, r3, #30
    4922:	d134      	bne.n	498e <memcpy+0x7a>
    4924:	0016      	movs	r6, r2
    4926:	000c      	movs	r4, r1
    4928:	0003      	movs	r3, r0
    492a:	3e10      	subs	r6, #16
    492c:	0935      	lsrs	r5, r6, #4
    492e:	3501      	adds	r5, #1
    4930:	012d      	lsls	r5, r5, #4
    4932:	1945      	adds	r5, r0, r5
    4934:	6827      	ldr	r7, [r4, #0]
    4936:	601f      	str	r7, [r3, #0]
    4938:	6867      	ldr	r7, [r4, #4]
    493a:	605f      	str	r7, [r3, #4]
    493c:	68a7      	ldr	r7, [r4, #8]
    493e:	609f      	str	r7, [r3, #8]
    4940:	68e7      	ldr	r7, [r4, #12]
    4942:	3410      	adds	r4, #16
    4944:	60df      	str	r7, [r3, #12]
    4946:	3310      	adds	r3, #16
    4948:	429d      	cmp	r5, r3
    494a:	d1f3      	bne.n	4934 <memcpy+0x20>
    494c:	230f      	movs	r3, #15
    494e:	439e      	bics	r6, r3
    4950:	3610      	adds	r6, #16
    4952:	1985      	adds	r5, r0, r6
    4954:	1989      	adds	r1, r1, r6
    4956:	4013      	ands	r3, r2
    4958:	2b03      	cmp	r3, #3
    495a:	d91a      	bls.n	4992 <memcpy+0x7e>
    495c:	1f1e      	subs	r6, r3, #4
    495e:	2300      	movs	r3, #0
    4960:	08b4      	lsrs	r4, r6, #2
    4962:	3401      	adds	r4, #1
    4964:	00a4      	lsls	r4, r4, #2
    4966:	58cf      	ldr	r7, [r1, r3]
    4968:	50ef      	str	r7, [r5, r3]
    496a:	3304      	adds	r3, #4
    496c:	42a3      	cmp	r3, r4
    496e:	d1fa      	bne.n	4966 <memcpy+0x52>
    4970:	2403      	movs	r4, #3
    4972:	43a6      	bics	r6, r4
    4974:	1d33      	adds	r3, r6, #4
    4976:	4022      	ands	r2, r4
    4978:	18c9      	adds	r1, r1, r3
    497a:	18ed      	adds	r5, r5, r3
    497c:	2a00      	cmp	r2, #0
    497e:	d005      	beq.n	498c <memcpy+0x78>
    4980:	2300      	movs	r3, #0
    4982:	5ccc      	ldrb	r4, [r1, r3]
    4984:	54ec      	strb	r4, [r5, r3]
    4986:	3301      	adds	r3, #1
    4988:	4293      	cmp	r3, r2
    498a:	d1fa      	bne.n	4982 <memcpy+0x6e>
    498c:	bdf0      	pop	{r4, r5, r6, r7, pc}
    498e:	0005      	movs	r5, r0
    4990:	e7f6      	b.n	4980 <memcpy+0x6c>
    4992:	001a      	movs	r2, r3
    4994:	e7f2      	b.n	497c <memcpy+0x68>
    4996:	46c0      	nop			; (mov r8, r8)

00004998 <memset>:
    4998:	b5f0      	push	{r4, r5, r6, r7, lr}
    499a:	0783      	lsls	r3, r0, #30
    499c:	d043      	beq.n	4a26 <memset+0x8e>
    499e:	1e54      	subs	r4, r2, #1
    49a0:	2a00      	cmp	r2, #0
    49a2:	d03f      	beq.n	4a24 <memset+0x8c>
    49a4:	b2ce      	uxtb	r6, r1
    49a6:	0002      	movs	r2, r0
    49a8:	2503      	movs	r5, #3
    49aa:	e002      	b.n	49b2 <memset+0x1a>
    49ac:	001a      	movs	r2, r3
    49ae:	3c01      	subs	r4, #1
    49b0:	d338      	bcc.n	4a24 <memset+0x8c>
    49b2:	1c53      	adds	r3, r2, #1
    49b4:	7016      	strb	r6, [r2, #0]
    49b6:	422b      	tst	r3, r5
    49b8:	d1f8      	bne.n	49ac <memset+0x14>
    49ba:	2c03      	cmp	r4, #3
    49bc:	d92a      	bls.n	4a14 <memset+0x7c>
    49be:	22ff      	movs	r2, #255	; 0xff
    49c0:	400a      	ands	r2, r1
    49c2:	0215      	lsls	r5, r2, #8
    49c4:	4315      	orrs	r5, r2
    49c6:	042a      	lsls	r2, r5, #16
    49c8:	4315      	orrs	r5, r2
    49ca:	2c0f      	cmp	r4, #15
    49cc:	d914      	bls.n	49f8 <memset+0x60>
    49ce:	0027      	movs	r7, r4
    49d0:	001a      	movs	r2, r3
    49d2:	3f10      	subs	r7, #16
    49d4:	093e      	lsrs	r6, r7, #4
    49d6:	3601      	adds	r6, #1
    49d8:	0136      	lsls	r6, r6, #4
    49da:	199e      	adds	r6, r3, r6
    49dc:	6015      	str	r5, [r2, #0]
    49de:	6055      	str	r5, [r2, #4]
    49e0:	6095      	str	r5, [r2, #8]
    49e2:	60d5      	str	r5, [r2, #12]
    49e4:	3210      	adds	r2, #16
    49e6:	4296      	cmp	r6, r2
    49e8:	d1f8      	bne.n	49dc <memset+0x44>
    49ea:	220f      	movs	r2, #15
    49ec:	4397      	bics	r7, r2
    49ee:	3710      	adds	r7, #16
    49f0:	19db      	adds	r3, r3, r7
    49f2:	4014      	ands	r4, r2
    49f4:	2c03      	cmp	r4, #3
    49f6:	d90d      	bls.n	4a14 <memset+0x7c>
    49f8:	001a      	movs	r2, r3
    49fa:	1f27      	subs	r7, r4, #4
    49fc:	08be      	lsrs	r6, r7, #2
    49fe:	3601      	adds	r6, #1
    4a00:	00b6      	lsls	r6, r6, #2
    4a02:	199e      	adds	r6, r3, r6
    4a04:	c220      	stmia	r2!, {r5}
    4a06:	42b2      	cmp	r2, r6
    4a08:	d1fc      	bne.n	4a04 <memset+0x6c>
    4a0a:	2203      	movs	r2, #3
    4a0c:	4397      	bics	r7, r2
    4a0e:	3704      	adds	r7, #4
    4a10:	19db      	adds	r3, r3, r7
    4a12:	4014      	ands	r4, r2
    4a14:	2c00      	cmp	r4, #0
    4a16:	d005      	beq.n	4a24 <memset+0x8c>
    4a18:	b2c9      	uxtb	r1, r1
    4a1a:	191c      	adds	r4, r3, r4
    4a1c:	7019      	strb	r1, [r3, #0]
    4a1e:	3301      	adds	r3, #1
    4a20:	429c      	cmp	r4, r3
    4a22:	d1fb      	bne.n	4a1c <memset+0x84>
    4a24:	bdf0      	pop	{r4, r5, r6, r7, pc}
    4a26:	0014      	movs	r4, r2
    4a28:	0003      	movs	r3, r0
    4a2a:	e7c6      	b.n	49ba <memset+0x22>

00004a2c <strlen>:
    4a2c:	b510      	push	{r4, lr}
    4a2e:	0783      	lsls	r3, r0, #30
    4a30:	d025      	beq.n	4a7e <strlen+0x52>
    4a32:	7803      	ldrb	r3, [r0, #0]
    4a34:	2b00      	cmp	r3, #0
    4a36:	d024      	beq.n	4a82 <strlen+0x56>
    4a38:	0003      	movs	r3, r0
    4a3a:	2103      	movs	r1, #3
    4a3c:	e002      	b.n	4a44 <strlen+0x18>
    4a3e:	781a      	ldrb	r2, [r3, #0]
    4a40:	2a00      	cmp	r2, #0
    4a42:	d01a      	beq.n	4a7a <strlen+0x4e>
    4a44:	3301      	adds	r3, #1
    4a46:	420b      	tst	r3, r1
    4a48:	d1f9      	bne.n	4a3e <strlen+0x12>
    4a4a:	6819      	ldr	r1, [r3, #0]
    4a4c:	4a0e      	ldr	r2, [pc, #56]	; (4a88 <strlen+0x5c>)
    4a4e:	4c0f      	ldr	r4, [pc, #60]	; (4a8c <strlen+0x60>)
    4a50:	188a      	adds	r2, r1, r2
    4a52:	438a      	bics	r2, r1
    4a54:	4222      	tst	r2, r4
    4a56:	d106      	bne.n	4a66 <strlen+0x3a>
    4a58:	3304      	adds	r3, #4
    4a5a:	6819      	ldr	r1, [r3, #0]
    4a5c:	4a0a      	ldr	r2, [pc, #40]	; (4a88 <strlen+0x5c>)
    4a5e:	188a      	adds	r2, r1, r2
    4a60:	438a      	bics	r2, r1
    4a62:	4222      	tst	r2, r4
    4a64:	d0f8      	beq.n	4a58 <strlen+0x2c>
    4a66:	001a      	movs	r2, r3
    4a68:	781b      	ldrb	r3, [r3, #0]
    4a6a:	2b00      	cmp	r3, #0
    4a6c:	d003      	beq.n	4a76 <strlen+0x4a>
    4a6e:	3201      	adds	r2, #1
    4a70:	7811      	ldrb	r1, [r2, #0]
    4a72:	2900      	cmp	r1, #0
    4a74:	d1fb      	bne.n	4a6e <strlen+0x42>
    4a76:	1a10      	subs	r0, r2, r0
    4a78:	bd10      	pop	{r4, pc}
    4a7a:	1a18      	subs	r0, r3, r0
    4a7c:	e7fc      	b.n	4a78 <strlen+0x4c>
    4a7e:	0003      	movs	r3, r0
    4a80:	e7e3      	b.n	4a4a <strlen+0x1e>
    4a82:	2000      	movs	r0, #0
    4a84:	e7f8      	b.n	4a78 <strlen+0x4c>
    4a86:	46c0      	nop			; (mov r8, r8)
    4a88:	fefefeff 	.word	0xfefefeff
    4a8c:	80808080 	.word	0x80808080

00004a90 <strncpy>:
    4a90:	000b      	movs	r3, r1
    4a92:	4303      	orrs	r3, r0
    4a94:	b5f0      	push	{r4, r5, r6, r7, lr}
    4a96:	079b      	lsls	r3, r3, #30
    4a98:	d101      	bne.n	4a9e <strncpy+0xe>
    4a9a:	2a03      	cmp	r2, #3
    4a9c:	d814      	bhi.n	4ac8 <strncpy+0x38>
    4a9e:	0006      	movs	r6, r0
    4aa0:	2a00      	cmp	r2, #0
    4aa2:	d010      	beq.n	4ac6 <strncpy+0x36>
    4aa4:	780c      	ldrb	r4, [r1, #0]
    4aa6:	3a01      	subs	r2, #1
    4aa8:	1c73      	adds	r3, r6, #1
    4aaa:	7034      	strb	r4, [r6, #0]
    4aac:	2c00      	cmp	r4, #0
    4aae:	d01d      	beq.n	4aec <strncpy+0x5c>
    4ab0:	2401      	movs	r4, #1
    4ab2:	e006      	b.n	4ac2 <strncpy+0x32>
    4ab4:	5d0d      	ldrb	r5, [r1, r4]
    4ab6:	3a01      	subs	r2, #1
    4ab8:	5535      	strb	r5, [r6, r4]
    4aba:	3301      	adds	r3, #1
    4abc:	3401      	adds	r4, #1
    4abe:	2d00      	cmp	r5, #0
    4ac0:	d014      	beq.n	4aec <strncpy+0x5c>
    4ac2:	2a00      	cmp	r2, #0
    4ac4:	d1f6      	bne.n	4ab4 <strncpy+0x24>
    4ac6:	bdf0      	pop	{r4, r5, r6, r7, pc}
    4ac8:	0005      	movs	r5, r0
    4aca:	4f0d      	ldr	r7, [pc, #52]	; (4b00 <strncpy+0x70>)
    4acc:	e006      	b.n	4adc <strncpy+0x4c>
    4ace:	3a04      	subs	r2, #4
    4ad0:	1d2e      	adds	r6, r5, #4
    4ad2:	3104      	adds	r1, #4
    4ad4:	602c      	str	r4, [r5, #0]
    4ad6:	2a03      	cmp	r2, #3
    4ad8:	d9e2      	bls.n	4aa0 <strncpy+0x10>
    4ada:	0035      	movs	r5, r6
    4adc:	680c      	ldr	r4, [r1, #0]
    4ade:	4b09      	ldr	r3, [pc, #36]	; (4b04 <strncpy+0x74>)
    4ae0:	18e3      	adds	r3, r4, r3
    4ae2:	43a3      	bics	r3, r4
    4ae4:	423b      	tst	r3, r7
    4ae6:	d0f2      	beq.n	4ace <strncpy+0x3e>
    4ae8:	002e      	movs	r6, r5
    4aea:	e7db      	b.n	4aa4 <strncpy+0x14>
    4aec:	189c      	adds	r4, r3, r2
    4aee:	2100      	movs	r1, #0
    4af0:	2a00      	cmp	r2, #0
    4af2:	d0e8      	beq.n	4ac6 <strncpy+0x36>
    4af4:	7019      	strb	r1, [r3, #0]
    4af6:	3301      	adds	r3, #1
    4af8:	42a3      	cmp	r3, r4
    4afa:	d1fb      	bne.n	4af4 <strncpy+0x64>
    4afc:	e7e3      	b.n	4ac6 <strncpy+0x36>
    4afe:	46c0      	nop			; (mov r8, r8)
    4b00:	80808080 	.word	0x80808080
    4b04:	fefefeff 	.word	0xfefefeff

00004b08 <_vsnprintf_r>:
    4b08:	b530      	push	{r4, r5, lr}
    4b0a:	0004      	movs	r4, r0
    4b0c:	b09b      	sub	sp, #108	; 0x6c
    4b0e:	0018      	movs	r0, r3
    4b10:	2a00      	cmp	r2, #0
    4b12:	db2e      	blt.n	4b72 <_vsnprintf_r+0x6a>
    4b14:	2382      	movs	r3, #130	; 0x82
    4b16:	466d      	mov	r5, sp
    4b18:	009b      	lsls	r3, r3, #2
    4b1a:	81ab      	strh	r3, [r5, #12]
    4b1c:	9100      	str	r1, [sp, #0]
    4b1e:	9104      	str	r1, [sp, #16]
    4b20:	2a00      	cmp	r2, #0
    4b22:	d011      	beq.n	4b48 <_vsnprintf_r+0x40>
    4b24:	2301      	movs	r3, #1
    4b26:	3a01      	subs	r2, #1
    4b28:	425b      	negs	r3, r3
    4b2a:	9202      	str	r2, [sp, #8]
    4b2c:	9205      	str	r2, [sp, #20]
    4b2e:	81eb      	strh	r3, [r5, #14]
    4b30:	0002      	movs	r2, r0
    4b32:	9b1e      	ldr	r3, [sp, #120]	; 0x78
    4b34:	4669      	mov	r1, sp
    4b36:	0020      	movs	r0, r4
    4b38:	f002 f86a 	bl	6c10 <_svfprintf_r>
    4b3c:	1c43      	adds	r3, r0, #1
    4b3e:	db12      	blt.n	4b66 <_vsnprintf_r+0x5e>
    4b40:	2300      	movs	r3, #0
    4b42:	9a00      	ldr	r2, [sp, #0]
    4b44:	7013      	strb	r3, [r2, #0]
    4b46:	e00c      	b.n	4b62 <_vsnprintf_r+0x5a>
    4b48:	2301      	movs	r3, #1
    4b4a:	425b      	negs	r3, r3
    4b4c:	9202      	str	r2, [sp, #8]
    4b4e:	9205      	str	r2, [sp, #20]
    4b50:	81eb      	strh	r3, [r5, #14]
    4b52:	0002      	movs	r2, r0
    4b54:	9b1e      	ldr	r3, [sp, #120]	; 0x78
    4b56:	4669      	mov	r1, sp
    4b58:	0020      	movs	r0, r4
    4b5a:	f002 f859 	bl	6c10 <_svfprintf_r>
    4b5e:	1c43      	adds	r3, r0, #1
    4b60:	db04      	blt.n	4b6c <_vsnprintf_r+0x64>
    4b62:	b01b      	add	sp, #108	; 0x6c
    4b64:	bd30      	pop	{r4, r5, pc}
    4b66:	238b      	movs	r3, #139	; 0x8b
    4b68:	6023      	str	r3, [r4, #0]
    4b6a:	e7e9      	b.n	4b40 <_vsnprintf_r+0x38>
    4b6c:	238b      	movs	r3, #139	; 0x8b
    4b6e:	6023      	str	r3, [r4, #0]
    4b70:	e7f7      	b.n	4b62 <_vsnprintf_r+0x5a>
    4b72:	238b      	movs	r3, #139	; 0x8b
    4b74:	2001      	movs	r0, #1
    4b76:	6023      	str	r3, [r4, #0]
    4b78:	4240      	negs	r0, r0
    4b7a:	e7f2      	b.n	4b62 <_vsnprintf_r+0x5a>

00004b7c <vsnprintf>:
    4b7c:	b510      	push	{r4, lr}
    4b7e:	0004      	movs	r4, r0
    4b80:	4805      	ldr	r0, [pc, #20]	; (4b98 <vsnprintf+0x1c>)
    4b82:	b082      	sub	sp, #8
    4b84:	6800      	ldr	r0, [r0, #0]
    4b86:	9300      	str	r3, [sp, #0]
    4b88:	0013      	movs	r3, r2
    4b8a:	000a      	movs	r2, r1
    4b8c:	0021      	movs	r1, r4
    4b8e:	f7ff ffbb 	bl	4b08 <_vsnprintf_r>
    4b92:	b002      	add	sp, #8
    4b94:	bd10      	pop	{r4, pc}
    4b96:	46c0      	nop			; (mov r8, r8)
    4b98:	20000000 	.word	0x20000000

00004b9c <register_fini>:
    4b9c:	4b03      	ldr	r3, [pc, #12]	; (4bac <register_fini+0x10>)
    4b9e:	b510      	push	{r4, lr}
    4ba0:	2b00      	cmp	r3, #0
    4ba2:	d002      	beq.n	4baa <register_fini+0xe>
    4ba4:	4802      	ldr	r0, [pc, #8]	; (4bb0 <register_fini+0x14>)
    4ba6:	f000 f805 	bl	4bb4 <atexit>
    4baa:	bd10      	pop	{r4, pc}
    4bac:	00000000 	.word	0x00000000
    4bb0:	00005ca1 	.word	0x00005ca1

00004bb4 <atexit>:
    4bb4:	b510      	push	{r4, lr}
    4bb6:	0001      	movs	r1, r0
    4bb8:	2300      	movs	r3, #0
    4bba:	2200      	movs	r2, #0
    4bbc:	2000      	movs	r0, #0
    4bbe:	f003 fb2b 	bl	8218 <__register_exitproc>
    4bc2:	bd10      	pop	{r4, pc}

00004bc4 <quorem>:
    4bc4:	b5f0      	push	{r4, r5, r6, r7, lr}
    4bc6:	4645      	mov	r5, r8
    4bc8:	4680      	mov	r8, r0
    4bca:	46de      	mov	lr, fp
    4bcc:	4657      	mov	r7, sl
    4bce:	464e      	mov	r6, r9
    4bd0:	4642      	mov	r2, r8
    4bd2:	b5e0      	push	{r5, r6, r7, lr}
    4bd4:	690c      	ldr	r4, [r1, #16]
    4bd6:	6912      	ldr	r2, [r2, #16]
    4bd8:	b085      	sub	sp, #20
    4bda:	000b      	movs	r3, r1
    4bdc:	9102      	str	r1, [sp, #8]
    4bde:	2000      	movs	r0, #0
    4be0:	4294      	cmp	r4, r2
    4be2:	dd00      	ble.n	4be6 <quorem+0x22>
    4be4:	e090      	b.n	4d08 <quorem+0x144>
    4be6:	2214      	movs	r2, #20
    4be8:	4694      	mov	ip, r2
    4bea:	4463      	add	r3, ip
    4bec:	4699      	mov	r9, r3
    4bee:	464a      	mov	r2, r9
    4bf0:	3c01      	subs	r4, #1
    4bf2:	00a3      	lsls	r3, r4, #2
    4bf4:	18d6      	adds	r6, r2, r3
    4bf6:	2214      	movs	r2, #20
    4bf8:	4442      	add	r2, r8
    4bfa:	4693      	mov	fp, r2
    4bfc:	449b      	add	fp, r3
    4bfe:	6833      	ldr	r3, [r6, #0]
    4c00:	0015      	movs	r5, r2
    4c02:	1c59      	adds	r1, r3, #1
    4c04:	465b      	mov	r3, fp
    4c06:	6818      	ldr	r0, [r3, #0]
    4c08:	9201      	str	r2, [sp, #4]
    4c0a:	f7fc ff27 	bl	1a5c <__udivsi3>
    4c0e:	1e03      	subs	r3, r0, #0
    4c10:	9000      	str	r0, [sp, #0]
    4c12:	d042      	beq.n	4c9a <quorem+0xd6>
    4c14:	0029      	movs	r1, r5
    4c16:	2700      	movs	r7, #0
    4c18:	464d      	mov	r5, r9
    4c1a:	2000      	movs	r0, #0
    4c1c:	46b1      	mov	r9, r6
    4c1e:	46a2      	mov	sl, r4
    4c20:	003e      	movs	r6, r7
    4c22:	0004      	movs	r4, r0
    4c24:	469c      	mov	ip, r3
    4c26:	002f      	movs	r7, r5
    4c28:	0008      	movs	r0, r1
    4c2a:	9503      	str	r5, [sp, #12]
    4c2c:	4663      	mov	r3, ip
    4c2e:	cf04      	ldmia	r7!, {r2}
    4c30:	0415      	lsls	r5, r2, #16
    4c32:	0c2d      	lsrs	r5, r5, #16
    4c34:	435d      	muls	r5, r3
    4c36:	0c12      	lsrs	r2, r2, #16
    4c38:	435a      	muls	r2, r3
    4c3a:	19ad      	adds	r5, r5, r6
    4c3c:	0c2b      	lsrs	r3, r5, #16
    4c3e:	18d2      	adds	r2, r2, r3
    4c40:	6803      	ldr	r3, [r0, #0]
    4c42:	042d      	lsls	r5, r5, #16
    4c44:	0419      	lsls	r1, r3, #16
    4c46:	0c09      	lsrs	r1, r1, #16
    4c48:	1909      	adds	r1, r1, r4
    4c4a:	0c16      	lsrs	r6, r2, #16
    4c4c:	0c2d      	lsrs	r5, r5, #16
    4c4e:	0412      	lsls	r2, r2, #16
    4c50:	1b49      	subs	r1, r1, r5
    4c52:	0c12      	lsrs	r2, r2, #16
    4c54:	0c1b      	lsrs	r3, r3, #16
    4c56:	1a9b      	subs	r3, r3, r2
    4c58:	140a      	asrs	r2, r1, #16
    4c5a:	189b      	adds	r3, r3, r2
    4c5c:	0409      	lsls	r1, r1, #16
    4c5e:	141c      	asrs	r4, r3, #16
    4c60:	0c09      	lsrs	r1, r1, #16
    4c62:	041b      	lsls	r3, r3, #16
    4c64:	4319      	orrs	r1, r3
    4c66:	c002      	stmia	r0!, {r1}
    4c68:	45b9      	cmp	r9, r7
    4c6a:	d2df      	bcs.n	4c2c <quorem+0x68>
    4c6c:	9b03      	ldr	r3, [sp, #12]
    4c6e:	464e      	mov	r6, r9
    4c70:	4699      	mov	r9, r3
    4c72:	465b      	mov	r3, fp
    4c74:	681b      	ldr	r3, [r3, #0]
    4c76:	4654      	mov	r4, sl
    4c78:	2b00      	cmp	r3, #0
    4c7a:	d10e      	bne.n	4c9a <quorem+0xd6>
    4c7c:	465b      	mov	r3, fp
    4c7e:	9a01      	ldr	r2, [sp, #4]
    4c80:	3b04      	subs	r3, #4
    4c82:	429a      	cmp	r2, r3
    4c84:	d304      	bcc.n	4c90 <quorem+0xcc>
    4c86:	e006      	b.n	4c96 <quorem+0xd2>
    4c88:	3b04      	subs	r3, #4
    4c8a:	3c01      	subs	r4, #1
    4c8c:	429a      	cmp	r2, r3
    4c8e:	d202      	bcs.n	4c96 <quorem+0xd2>
    4c90:	6819      	ldr	r1, [r3, #0]
    4c92:	2900      	cmp	r1, #0
    4c94:	d0f8      	beq.n	4c88 <quorem+0xc4>
    4c96:	4643      	mov	r3, r8
    4c98:	611c      	str	r4, [r3, #16]
    4c9a:	9902      	ldr	r1, [sp, #8]
    4c9c:	4640      	mov	r0, r8
    4c9e:	f001 fe91 	bl	69c4 <__mcmp>
    4ca2:	2800      	cmp	r0, #0
    4ca4:	db2f      	blt.n	4d06 <quorem+0x142>
    4ca6:	464f      	mov	r7, r9
    4ca8:	2000      	movs	r0, #0
    4caa:	9b00      	ldr	r3, [sp, #0]
    4cac:	9d01      	ldr	r5, [sp, #4]
    4cae:	3301      	adds	r3, #1
    4cb0:	9300      	str	r3, [sp, #0]
    4cb2:	682b      	ldr	r3, [r5, #0]
    4cb4:	cf02      	ldmia	r7!, {r1}
    4cb6:	041a      	lsls	r2, r3, #16
    4cb8:	0c12      	lsrs	r2, r2, #16
    4cba:	1810      	adds	r0, r2, r0
    4cbc:	040a      	lsls	r2, r1, #16
    4cbe:	0c12      	lsrs	r2, r2, #16
    4cc0:	1a82      	subs	r2, r0, r2
    4cc2:	0c09      	lsrs	r1, r1, #16
    4cc4:	0c1b      	lsrs	r3, r3, #16
    4cc6:	1a5b      	subs	r3, r3, r1
    4cc8:	1411      	asrs	r1, r2, #16
    4cca:	185b      	adds	r3, r3, r1
    4ccc:	0412      	lsls	r2, r2, #16
    4cce:	1418      	asrs	r0, r3, #16
    4cd0:	0c12      	lsrs	r2, r2, #16
    4cd2:	041b      	lsls	r3, r3, #16
    4cd4:	4313      	orrs	r3, r2
    4cd6:	c508      	stmia	r5!, {r3}
    4cd8:	42be      	cmp	r6, r7
    4cda:	d2ea      	bcs.n	4cb2 <quorem+0xee>
    4cdc:	9901      	ldr	r1, [sp, #4]
    4cde:	00a3      	lsls	r3, r4, #2
    4ce0:	468c      	mov	ip, r1
    4ce2:	4463      	add	r3, ip
    4ce4:	681a      	ldr	r2, [r3, #0]
    4ce6:	2a00      	cmp	r2, #0
    4ce8:	d10d      	bne.n	4d06 <quorem+0x142>
    4cea:	3b04      	subs	r3, #4
    4cec:	000a      	movs	r2, r1
    4cee:	4299      	cmp	r1, r3
    4cf0:	d304      	bcc.n	4cfc <quorem+0x138>
    4cf2:	e006      	b.n	4d02 <quorem+0x13e>
    4cf4:	3b04      	subs	r3, #4
    4cf6:	3c01      	subs	r4, #1
    4cf8:	429a      	cmp	r2, r3
    4cfa:	d202      	bcs.n	4d02 <quorem+0x13e>
    4cfc:	6819      	ldr	r1, [r3, #0]
    4cfe:	2900      	cmp	r1, #0
    4d00:	d0f8      	beq.n	4cf4 <quorem+0x130>
    4d02:	4643      	mov	r3, r8
    4d04:	611c      	str	r4, [r3, #16]
    4d06:	9800      	ldr	r0, [sp, #0]
    4d08:	b005      	add	sp, #20
    4d0a:	bc3c      	pop	{r2, r3, r4, r5}
    4d0c:	4690      	mov	r8, r2
    4d0e:	4699      	mov	r9, r3
    4d10:	46a2      	mov	sl, r4
    4d12:	46ab      	mov	fp, r5
    4d14:	bdf0      	pop	{r4, r5, r6, r7, pc}
    4d16:	46c0      	nop			; (mov r8, r8)

00004d18 <_dtoa_r>:
    4d18:	b5f0      	push	{r4, r5, r6, r7, lr}
    4d1a:	4657      	mov	r7, sl
    4d1c:	464e      	mov	r6, r9
    4d1e:	4645      	mov	r5, r8
    4d20:	46de      	mov	lr, fp
    4d22:	b5e0      	push	{r5, r6, r7, lr}
    4d24:	6c01      	ldr	r1, [r0, #64]	; 0x40
    4d26:	b099      	sub	sp, #100	; 0x64
    4d28:	4682      	mov	sl, r0
    4d2a:	001d      	movs	r5, r3
    4d2c:	0016      	movs	r6, r2
    4d2e:	001f      	movs	r7, r3
    4d30:	2900      	cmp	r1, #0
    4d32:	d009      	beq.n	4d48 <_dtoa_r+0x30>
    4d34:	2301      	movs	r3, #1
    4d36:	6c42      	ldr	r2, [r0, #68]	; 0x44
    4d38:	4093      	lsls	r3, r2
    4d3a:	604a      	str	r2, [r1, #4]
    4d3c:	608b      	str	r3, [r1, #8]
    4d3e:	f001 fc35 	bl	65ac <_Bfree>
    4d42:	2300      	movs	r3, #0
    4d44:	4652      	mov	r2, sl
    4d46:	6413      	str	r3, [r2, #64]	; 0x40
    4d48:	46b8      	mov	r8, r7
    4d4a:	2f00      	cmp	r7, #0
    4d4c:	db37      	blt.n	4dbe <_dtoa_r+0xa6>
    4d4e:	2300      	movs	r3, #0
    4d50:	9a25      	ldr	r2, [sp, #148]	; 0x94
    4d52:	6013      	str	r3, [r2, #0]
    4d54:	4642      	mov	r2, r8
    4d56:	4bd6      	ldr	r3, [pc, #856]	; (50b0 <_dtoa_r+0x398>)
    4d58:	401a      	ands	r2, r3
    4d5a:	429a      	cmp	r2, r3
    4d5c:	d018      	beq.n	4d90 <_dtoa_r+0x78>
    4d5e:	2200      	movs	r2, #0
    4d60:	2300      	movs	r3, #0
    4d62:	0030      	movs	r0, r6
    4d64:	0039      	movs	r1, r7
    4d66:	f7ff fc59 	bl	461c <__aeabi_dcmpeq>
    4d6a:	2800      	cmp	r0, #0
    4d6c:	d02f      	beq.n	4dce <_dtoa_r+0xb6>
    4d6e:	2301      	movs	r3, #1
    4d70:	9a24      	ldr	r2, [sp, #144]	; 0x90
    4d72:	6013      	str	r3, [r2, #0]
    4d74:	9b26      	ldr	r3, [sp, #152]	; 0x98
    4d76:	2b00      	cmp	r3, #0
    4d78:	d100      	bne.n	4d7c <_dtoa_r+0x64>
    4d7a:	e22a      	b.n	51d2 <_dtoa_r+0x4ba>
    4d7c:	48cd      	ldr	r0, [pc, #820]	; (50b4 <_dtoa_r+0x39c>)
    4d7e:	6018      	str	r0, [r3, #0]
    4d80:	3801      	subs	r0, #1
    4d82:	b019      	add	sp, #100	; 0x64
    4d84:	bc3c      	pop	{r2, r3, r4, r5}
    4d86:	4690      	mov	r8, r2
    4d88:	4699      	mov	r9, r3
    4d8a:	46a2      	mov	sl, r4
    4d8c:	46ab      	mov	fp, r5
    4d8e:	bdf0      	pop	{r4, r5, r6, r7, pc}
    4d90:	4bc9      	ldr	r3, [pc, #804]	; (50b8 <_dtoa_r+0x3a0>)
    4d92:	9a24      	ldr	r2, [sp, #144]	; 0x90
    4d94:	6013      	str	r3, [r2, #0]
    4d96:	2e00      	cmp	r6, #0
    4d98:	d10b      	bne.n	4db2 <_dtoa_r+0x9a>
    4d9a:	4643      	mov	r3, r8
    4d9c:	0318      	lsls	r0, r3, #12
    4d9e:	d108      	bne.n	4db2 <_dtoa_r+0x9a>
    4da0:	9b26      	ldr	r3, [sp, #152]	; 0x98
    4da2:	48c6      	ldr	r0, [pc, #792]	; (50bc <_dtoa_r+0x3a4>)
    4da4:	2b00      	cmp	r3, #0
    4da6:	d0ec      	beq.n	4d82 <_dtoa_r+0x6a>
    4da8:	0003      	movs	r3, r0
    4daa:	3308      	adds	r3, #8
    4dac:	9a26      	ldr	r2, [sp, #152]	; 0x98
    4dae:	6013      	str	r3, [r2, #0]
    4db0:	e7e7      	b.n	4d82 <_dtoa_r+0x6a>
    4db2:	9b26      	ldr	r3, [sp, #152]	; 0x98
    4db4:	48c2      	ldr	r0, [pc, #776]	; (50c0 <_dtoa_r+0x3a8>)
    4db6:	2b00      	cmp	r3, #0
    4db8:	d0e3      	beq.n	4d82 <_dtoa_r+0x6a>
    4dba:	1cc3      	adds	r3, r0, #3
    4dbc:	e7f6      	b.n	4dac <_dtoa_r+0x94>
    4dbe:	2301      	movs	r3, #1
    4dc0:	9a25      	ldr	r2, [sp, #148]	; 0x94
    4dc2:	0068      	lsls	r0, r5, #1
    4dc4:	6013      	str	r3, [r2, #0]
    4dc6:	0843      	lsrs	r3, r0, #1
    4dc8:	4698      	mov	r8, r3
    4dca:	001f      	movs	r7, r3
    4dcc:	e7c2      	b.n	4d54 <_dtoa_r+0x3c>
    4dce:	ab16      	add	r3, sp, #88	; 0x58
    4dd0:	9301      	str	r3, [sp, #4]
    4dd2:	ab17      	add	r3, sp, #92	; 0x5c
    4dd4:	9300      	str	r3, [sp, #0]
    4dd6:	0032      	movs	r2, r6
    4dd8:	003b      	movs	r3, r7
    4dda:	4650      	mov	r0, sl
    4ddc:	f001 fea8 	bl	6b30 <__d2b>
    4de0:	4643      	mov	r3, r8
    4de2:	4683      	mov	fp, r0
    4de4:	0d1a      	lsrs	r2, r3, #20
    4de6:	d100      	bne.n	4dea <_dtoa_r+0xd2>
    4de8:	e1d6      	b.n	5198 <_dtoa_r+0x480>
    4dea:	033b      	lsls	r3, r7, #12
    4dec:	4cb5      	ldr	r4, [pc, #724]	; (50c4 <_dtoa_r+0x3ac>)
    4dee:	0b1b      	lsrs	r3, r3, #12
    4df0:	431c      	orrs	r4, r3
    4df2:	4bb5      	ldr	r3, [pc, #724]	; (50c8 <_dtoa_r+0x3b0>)
    4df4:	0030      	movs	r0, r6
    4df6:	4698      	mov	r8, r3
    4df8:	9b16      	ldr	r3, [sp, #88]	; 0x58
    4dfa:	0021      	movs	r1, r4
    4dfc:	4699      	mov	r9, r3
    4dfe:	2300      	movs	r3, #0
    4e00:	4490      	add	r8, r2
    4e02:	930f      	str	r3, [sp, #60]	; 0x3c
    4e04:	2200      	movs	r2, #0
    4e06:	4bb1      	ldr	r3, [pc, #708]	; (50cc <_dtoa_r+0x3b4>)
    4e08:	f7fe ff58 	bl	3cbc <__aeabi_dsub>
    4e0c:	4ab0      	ldr	r2, [pc, #704]	; (50d0 <_dtoa_r+0x3b8>)
    4e0e:	4bb1      	ldr	r3, [pc, #708]	; (50d4 <_dtoa_r+0x3bc>)
    4e10:	f7fe fcd4 	bl	37bc <__aeabi_dmul>
    4e14:	4ab0      	ldr	r2, [pc, #704]	; (50d8 <_dtoa_r+0x3c0>)
    4e16:	4bb1      	ldr	r3, [pc, #708]	; (50dc <_dtoa_r+0x3c4>)
    4e18:	f7fd fe8c 	bl	2b34 <__aeabi_dadd>
    4e1c:	0004      	movs	r4, r0
    4e1e:	4640      	mov	r0, r8
    4e20:	000d      	movs	r5, r1
    4e22:	f7ff fa95 	bl	4350 <__aeabi_i2d>
    4e26:	4aae      	ldr	r2, [pc, #696]	; (50e0 <_dtoa_r+0x3c8>)
    4e28:	4bae      	ldr	r3, [pc, #696]	; (50e4 <_dtoa_r+0x3cc>)
    4e2a:	f7fe fcc7 	bl	37bc <__aeabi_dmul>
    4e2e:	0002      	movs	r2, r0
    4e30:	000b      	movs	r3, r1
    4e32:	0020      	movs	r0, r4
    4e34:	0029      	movs	r1, r5
    4e36:	f7fd fe7d 	bl	2b34 <__aeabi_dadd>
    4e3a:	0004      	movs	r4, r0
    4e3c:	000d      	movs	r5, r1
    4e3e:	f7ff fa53 	bl	42e8 <__aeabi_d2iz>
    4e42:	2200      	movs	r2, #0
    4e44:	9003      	str	r0, [sp, #12]
    4e46:	2300      	movs	r3, #0
    4e48:	0020      	movs	r0, r4
    4e4a:	0029      	movs	r1, r5
    4e4c:	f7ff fbec 	bl	4628 <__aeabi_dcmplt>
    4e50:	2800      	cmp	r0, #0
    4e52:	d000      	beq.n	4e56 <_dtoa_r+0x13e>
    4e54:	e2b1      	b.n	53ba <_dtoa_r+0x6a2>
    4e56:	2301      	movs	r3, #1
    4e58:	9c03      	ldr	r4, [sp, #12]
    4e5a:	930c      	str	r3, [sp, #48]	; 0x30
    4e5c:	2c16      	cmp	r4, #22
    4e5e:	d810      	bhi.n	4e82 <_dtoa_r+0x16a>
    4e60:	49a1      	ldr	r1, [pc, #644]	; (50e8 <_dtoa_r+0x3d0>)
    4e62:	00e3      	lsls	r3, r4, #3
    4e64:	18c9      	adds	r1, r1, r3
    4e66:	0032      	movs	r2, r6
    4e68:	6808      	ldr	r0, [r1, #0]
    4e6a:	6849      	ldr	r1, [r1, #4]
    4e6c:	003b      	movs	r3, r7
    4e6e:	f7ff fbef 	bl	4650 <__aeabi_dcmpgt>
    4e72:	2800      	cmp	r0, #0
    4e74:	d100      	bne.n	4e78 <_dtoa_r+0x160>
    4e76:	e31d      	b.n	54b4 <_dtoa_r+0x79c>
    4e78:	0023      	movs	r3, r4
    4e7a:	3b01      	subs	r3, #1
    4e7c:	9303      	str	r3, [sp, #12]
    4e7e:	2300      	movs	r3, #0
    4e80:	930c      	str	r3, [sp, #48]	; 0x30
    4e82:	464b      	mov	r3, r9
    4e84:	4642      	mov	r2, r8
    4e86:	1a9a      	subs	r2, r3, r2
    4e88:	2300      	movs	r3, #0
    4e8a:	9306      	str	r3, [sp, #24]
    4e8c:	0013      	movs	r3, r2
    4e8e:	3b01      	subs	r3, #1
    4e90:	9304      	str	r3, [sp, #16]
    4e92:	d500      	bpl.n	4e96 <_dtoa_r+0x17e>
    4e94:	e2a1      	b.n	53da <_dtoa_r+0x6c2>
    4e96:	9b03      	ldr	r3, [sp, #12]
    4e98:	2b00      	cmp	r3, #0
    4e9a:	da00      	bge.n	4e9e <_dtoa_r+0x186>
    4e9c:	e284      	b.n	53a8 <_dtoa_r+0x690>
    4e9e:	469c      	mov	ip, r3
    4ea0:	930d      	str	r3, [sp, #52]	; 0x34
    4ea2:	2300      	movs	r3, #0
    4ea4:	9a04      	ldr	r2, [sp, #16]
    4ea6:	4699      	mov	r9, r3
    4ea8:	0011      	movs	r1, r2
    4eaa:	4461      	add	r1, ip
    4eac:	9104      	str	r1, [sp, #16]
    4eae:	9b22      	ldr	r3, [sp, #136]	; 0x88
    4eb0:	2b09      	cmp	r3, #9
    4eb2:	d900      	bls.n	4eb6 <_dtoa_r+0x19e>
    4eb4:	e18f      	b.n	51d6 <_dtoa_r+0x4be>
    4eb6:	2401      	movs	r4, #1
    4eb8:	2b05      	cmp	r3, #5
    4eba:	dd02      	ble.n	4ec2 <_dtoa_r+0x1aa>
    4ebc:	2400      	movs	r4, #0
    4ebe:	3b04      	subs	r3, #4
    4ec0:	9322      	str	r3, [sp, #136]	; 0x88
    4ec2:	9b22      	ldr	r3, [sp, #136]	; 0x88
    4ec4:	2b03      	cmp	r3, #3
    4ec6:	d101      	bne.n	4ecc <_dtoa_r+0x1b4>
    4ec8:	f000 fcce 	bl	5868 <_dtoa_r+0xb50>
    4ecc:	dc01      	bgt.n	4ed2 <_dtoa_r+0x1ba>
    4ece:	f000 fc92 	bl	57f6 <_dtoa_r+0xade>
    4ed2:	9b22      	ldr	r3, [sp, #136]	; 0x88
    4ed4:	2b04      	cmp	r3, #4
    4ed6:	d101      	bne.n	4edc <_dtoa_r+0x1c4>
    4ed8:	f000 fc40 	bl	575c <_dtoa_r+0xa44>
    4edc:	2301      	movs	r3, #1
    4ede:	930b      	str	r3, [sp, #44]	; 0x2c
    4ee0:	9b22      	ldr	r3, [sp, #136]	; 0x88
    4ee2:	2b05      	cmp	r3, #5
    4ee4:	d001      	beq.n	4eea <_dtoa_r+0x1d2>
    4ee6:	f000 fc8b 	bl	5800 <_dtoa_r+0xae8>
    4eea:	9a23      	ldr	r2, [sp, #140]	; 0x8c
    4eec:	9b03      	ldr	r3, [sp, #12]
    4eee:	4694      	mov	ip, r2
    4ef0:	4463      	add	r3, ip
    4ef2:	930e      	str	r3, [sp, #56]	; 0x38
    4ef4:	3301      	adds	r3, #1
    4ef6:	9307      	str	r3, [sp, #28]
    4ef8:	1e1d      	subs	r5, r3, #0
    4efa:	dc01      	bgt.n	4f00 <_dtoa_r+0x1e8>
    4efc:	f000 fd49 	bl	5992 <_dtoa_r+0xc7a>
    4f00:	9b07      	ldr	r3, [sp, #28]
    4f02:	4698      	mov	r8, r3
    4f04:	2300      	movs	r3, #0
    4f06:	4652      	mov	r2, sl
    4f08:	2100      	movs	r1, #0
    4f0a:	6453      	str	r3, [r2, #68]	; 0x44
    4f0c:	2d17      	cmp	r5, #23
    4f0e:	d90a      	bls.n	4f26 <_dtoa_r+0x20e>
    4f10:	2201      	movs	r2, #1
    4f12:	3304      	adds	r3, #4
    4f14:	005b      	lsls	r3, r3, #1
    4f16:	0018      	movs	r0, r3
    4f18:	3014      	adds	r0, #20
    4f1a:	0011      	movs	r1, r2
    4f1c:	3201      	adds	r2, #1
    4f1e:	4285      	cmp	r5, r0
    4f20:	d2f8      	bcs.n	4f14 <_dtoa_r+0x1fc>
    4f22:	4653      	mov	r3, sl
    4f24:	6459      	str	r1, [r3, #68]	; 0x44
    4f26:	4650      	mov	r0, sl
    4f28:	f001 fb18 	bl	655c <_Balloc>
    4f2c:	4653      	mov	r3, sl
    4f2e:	6418      	str	r0, [r3, #64]	; 0x40
    4f30:	4643      	mov	r3, r8
    4f32:	900a      	str	r0, [sp, #40]	; 0x28
    4f34:	2b0e      	cmp	r3, #14
    4f36:	d900      	bls.n	4f3a <_dtoa_r+0x222>
    4f38:	e161      	b.n	51fe <_dtoa_r+0x4e6>
    4f3a:	2c00      	cmp	r4, #0
    4f3c:	d100      	bne.n	4f40 <_dtoa_r+0x228>
    4f3e:	e15e      	b.n	51fe <_dtoa_r+0x4e6>
    4f40:	9610      	str	r6, [sp, #64]	; 0x40
    4f42:	9711      	str	r7, [sp, #68]	; 0x44
    4f44:	9e03      	ldr	r6, [sp, #12]
    4f46:	2e00      	cmp	r6, #0
    4f48:	dc01      	bgt.n	4f4e <_dtoa_r+0x236>
    4f4a:	f000 fd25 	bl	5998 <_dtoa_r+0xc80>
    4f4e:	0032      	movs	r2, r6
    4f50:	210f      	movs	r1, #15
    4f52:	4b65      	ldr	r3, [pc, #404]	; (50e8 <_dtoa_r+0x3d0>)
    4f54:	400a      	ands	r2, r1
    4f56:	00d2      	lsls	r2, r2, #3
    4f58:	189b      	adds	r3, r3, r2
    4f5a:	1136      	asrs	r6, r6, #4
    4f5c:	681c      	ldr	r4, [r3, #0]
    4f5e:	685d      	ldr	r5, [r3, #4]
    4f60:	06f3      	lsls	r3, r6, #27
    4f62:	d401      	bmi.n	4f68 <_dtoa_r+0x250>
    4f64:	f000 fcca 	bl	58fc <_dtoa_r+0xbe4>
    4f68:	4b60      	ldr	r3, [pc, #384]	; (50ec <_dtoa_r+0x3d4>)
    4f6a:	400e      	ands	r6, r1
    4f6c:	6a1a      	ldr	r2, [r3, #32]
    4f6e:	6a5b      	ldr	r3, [r3, #36]	; 0x24
    4f70:	9810      	ldr	r0, [sp, #64]	; 0x40
    4f72:	9911      	ldr	r1, [sp, #68]	; 0x44
    4f74:	f7fe f8ee 	bl	3154 <__aeabi_ddiv>
    4f78:	2303      	movs	r3, #3
    4f7a:	4698      	mov	r8, r3
    4f7c:	9008      	str	r0, [sp, #32]
    4f7e:	9109      	str	r1, [sp, #36]	; 0x24
    4f80:	2e00      	cmp	r6, #0
    4f82:	d011      	beq.n	4fa8 <_dtoa_r+0x290>
    4f84:	4f59      	ldr	r7, [pc, #356]	; (50ec <_dtoa_r+0x3d4>)
    4f86:	2301      	movs	r3, #1
    4f88:	4233      	tst	r3, r6
    4f8a:	d009      	beq.n	4fa0 <_dtoa_r+0x288>
    4f8c:	469c      	mov	ip, r3
    4f8e:	683a      	ldr	r2, [r7, #0]
    4f90:	687b      	ldr	r3, [r7, #4]
    4f92:	0020      	movs	r0, r4
    4f94:	0029      	movs	r1, r5
    4f96:	44e0      	add	r8, ip
    4f98:	f7fe fc10 	bl	37bc <__aeabi_dmul>
    4f9c:	0004      	movs	r4, r0
    4f9e:	000d      	movs	r5, r1
    4fa0:	1076      	asrs	r6, r6, #1
    4fa2:	3708      	adds	r7, #8
    4fa4:	2e00      	cmp	r6, #0
    4fa6:	d1ee      	bne.n	4f86 <_dtoa_r+0x26e>
    4fa8:	0022      	movs	r2, r4
    4faa:	9808      	ldr	r0, [sp, #32]
    4fac:	9909      	ldr	r1, [sp, #36]	; 0x24
    4fae:	002b      	movs	r3, r5
    4fb0:	f7fe f8d0 	bl	3154 <__aeabi_ddiv>
    4fb4:	0006      	movs	r6, r0
    4fb6:	000f      	movs	r7, r1
    4fb8:	9b0c      	ldr	r3, [sp, #48]	; 0x30
    4fba:	2b00      	cmp	r3, #0
    4fbc:	d009      	beq.n	4fd2 <_dtoa_r+0x2ba>
    4fbe:	2200      	movs	r2, #0
    4fc0:	4b40      	ldr	r3, [pc, #256]	; (50c4 <_dtoa_r+0x3ac>)
    4fc2:	0030      	movs	r0, r6
    4fc4:	0039      	movs	r1, r7
    4fc6:	f7ff fb2f 	bl	4628 <__aeabi_dcmplt>
    4fca:	2800      	cmp	r0, #0
    4fcc:	d001      	beq.n	4fd2 <_dtoa_r+0x2ba>
    4fce:	f000 fdc2 	bl	5b56 <_dtoa_r+0xe3e>
    4fd2:	4640      	mov	r0, r8
    4fd4:	f7ff f9bc 	bl	4350 <__aeabi_i2d>
    4fd8:	0032      	movs	r2, r6
    4fda:	003b      	movs	r3, r7
    4fdc:	f7fe fbee 	bl	37bc <__aeabi_dmul>
    4fe0:	2200      	movs	r2, #0
    4fe2:	4b43      	ldr	r3, [pc, #268]	; (50f0 <_dtoa_r+0x3d8>)
    4fe4:	f7fd fda6 	bl	2b34 <__aeabi_dadd>
    4fe8:	4a42      	ldr	r2, [pc, #264]	; (50f4 <_dtoa_r+0x3dc>)
    4fea:	000b      	movs	r3, r1
    4fec:	4694      	mov	ip, r2
    4fee:	4463      	add	r3, ip
    4ff0:	9008      	str	r0, [sp, #32]
    4ff2:	9109      	str	r1, [sp, #36]	; 0x24
    4ff4:	9309      	str	r3, [sp, #36]	; 0x24
    4ff6:	9b07      	ldr	r3, [sp, #28]
    4ff8:	2b00      	cmp	r3, #0
    4ffa:	d101      	bne.n	5000 <_dtoa_r+0x2e8>
    4ffc:	f000 fc50 	bl	58a0 <_dtoa_r+0xb88>
    5000:	9b03      	ldr	r3, [sp, #12]
    5002:	9313      	str	r3, [sp, #76]	; 0x4c
    5004:	9b07      	ldr	r3, [sp, #28]
    5006:	9312      	str	r3, [sp, #72]	; 0x48
    5008:	9b0b      	ldr	r3, [sp, #44]	; 0x2c
    500a:	2b00      	cmp	r3, #0
    500c:	d101      	bne.n	5012 <_dtoa_r+0x2fa>
    500e:	f000 fd1d 	bl	5a4c <_dtoa_r+0xd34>
    5012:	9b12      	ldr	r3, [sp, #72]	; 0x48
    5014:	2000      	movs	r0, #0
    5016:	1e5a      	subs	r2, r3, #1
    5018:	4b33      	ldr	r3, [pc, #204]	; (50e8 <_dtoa_r+0x3d0>)
    501a:	00d2      	lsls	r2, r2, #3
    501c:	189b      	adds	r3, r3, r2
    501e:	681a      	ldr	r2, [r3, #0]
    5020:	685b      	ldr	r3, [r3, #4]
    5022:	4935      	ldr	r1, [pc, #212]	; (50f8 <_dtoa_r+0x3e0>)
    5024:	f7fe f896 	bl	3154 <__aeabi_ddiv>
    5028:	9a08      	ldr	r2, [sp, #32]
    502a:	9b09      	ldr	r3, [sp, #36]	; 0x24
    502c:	f7fe fe46 	bl	3cbc <__aeabi_dsub>
    5030:	9008      	str	r0, [sp, #32]
    5032:	9109      	str	r1, [sp, #36]	; 0x24
    5034:	0039      	movs	r1, r7
    5036:	0030      	movs	r0, r6
    5038:	f7ff f956 	bl	42e8 <__aeabi_d2iz>
    503c:	0004      	movs	r4, r0
    503e:	f7ff f987 	bl	4350 <__aeabi_i2d>
    5042:	0002      	movs	r2, r0
    5044:	000b      	movs	r3, r1
    5046:	0030      	movs	r0, r6
    5048:	0039      	movs	r1, r7
    504a:	f7fe fe37 	bl	3cbc <__aeabi_dsub>
    504e:	0005      	movs	r5, r0
    5050:	000e      	movs	r6, r1
    5052:	9a0a      	ldr	r2, [sp, #40]	; 0x28
    5054:	3430      	adds	r4, #48	; 0x30
    5056:	1c51      	adds	r1, r2, #1
    5058:	b2e7      	uxtb	r7, r4
    505a:	9114      	str	r1, [sp, #80]	; 0x50
    505c:	7017      	strb	r7, [r2, #0]
    505e:	0033      	movs	r3, r6
    5060:	9808      	ldr	r0, [sp, #32]
    5062:	9909      	ldr	r1, [sp, #36]	; 0x24
    5064:	002a      	movs	r2, r5
    5066:	f7ff faf3 	bl	4650 <__aeabi_dcmpgt>
    506a:	2800      	cmp	r0, #0
    506c:	d001      	beq.n	5072 <_dtoa_r+0x35a>
    506e:	f000 fdfe 	bl	5c6e <_dtoa_r+0xf56>
    5072:	002a      	movs	r2, r5
    5074:	0033      	movs	r3, r6
    5076:	2000      	movs	r0, #0
    5078:	4912      	ldr	r1, [pc, #72]	; (50c4 <_dtoa_r+0x3ac>)
    507a:	f7fe fe1f 	bl	3cbc <__aeabi_dsub>
    507e:	0002      	movs	r2, r0
    5080:	000b      	movs	r3, r1
    5082:	9808      	ldr	r0, [sp, #32]
    5084:	9909      	ldr	r1, [sp, #36]	; 0x24
    5086:	f7ff fae3 	bl	4650 <__aeabi_dcmpgt>
    508a:	2800      	cmp	r0, #0
    508c:	d001      	beq.n	5092 <_dtoa_r+0x37a>
    508e:	f000 fde7 	bl	5c60 <_dtoa_r+0xf48>
    5092:	9b12      	ldr	r3, [sp, #72]	; 0x48
    5094:	2b01      	cmp	r3, #1
    5096:	d101      	bne.n	509c <_dtoa_r+0x384>
    5098:	f000 fc78 	bl	598c <_dtoa_r+0xc74>
    509c:	9a0a      	ldr	r2, [sp, #40]	; 0x28
    509e:	9b12      	ldr	r3, [sp, #72]	; 0x48
    50a0:	4694      	mov	ip, r2
    50a2:	4463      	add	r3, ip
    50a4:	4698      	mov	r8, r3
    50a6:	464b      	mov	r3, r9
    50a8:	9312      	str	r3, [sp, #72]	; 0x48
    50aa:	9b14      	ldr	r3, [sp, #80]	; 0x50
    50ac:	4699      	mov	r9, r3
    50ae:	e038      	b.n	5122 <_dtoa_r+0x40a>
    50b0:	7ff00000 	.word	0x7ff00000
    50b4:	00008e79 	.word	0x00008e79
    50b8:	0000270f 	.word	0x0000270f
    50bc:	0000906c 	.word	0x0000906c
    50c0:	00009078 	.word	0x00009078
    50c4:	3ff00000 	.word	0x3ff00000
    50c8:	fffffc01 	.word	0xfffffc01
    50cc:	3ff80000 	.word	0x3ff80000
    50d0:	636f4361 	.word	0x636f4361
    50d4:	3fd287a7 	.word	0x3fd287a7
    50d8:	8b60c8b3 	.word	0x8b60c8b3
    50dc:	3fc68a28 	.word	0x3fc68a28
    50e0:	509f79fb 	.word	0x509f79fb
    50e4:	3fd34413 	.word	0x3fd34413
    50e8:	000090a8 	.word	0x000090a8
    50ec:	00009080 	.word	0x00009080
    50f0:	401c0000 	.word	0x401c0000
    50f4:	fcc00000 	.word	0xfcc00000
    50f8:	3fe00000 	.word	0x3fe00000
    50fc:	002a      	movs	r2, r5
    50fe:	0033      	movs	r3, r6
    5100:	2000      	movs	r0, #0
    5102:	49b9      	ldr	r1, [pc, #740]	; (53e8 <_dtoa_r+0x6d0>)
    5104:	f7fe fdda 	bl	3cbc <__aeabi_dsub>
    5108:	9a08      	ldr	r2, [sp, #32]
    510a:	9b09      	ldr	r3, [sp, #36]	; 0x24
    510c:	f7ff fa8c 	bl	4628 <__aeabi_dcmplt>
    5110:	2800      	cmp	r0, #0
    5112:	d001      	beq.n	5118 <_dtoa_r+0x400>
    5114:	f000 fd74 	bl	5c00 <_dtoa_r+0xee8>
    5118:	46a1      	mov	r9, r4
    511a:	4544      	cmp	r4, r8
    511c:	d101      	bne.n	5122 <_dtoa_r+0x40a>
    511e:	f000 fc33 	bl	5988 <_dtoa_r+0xc70>
    5122:	9808      	ldr	r0, [sp, #32]
    5124:	9909      	ldr	r1, [sp, #36]	; 0x24
    5126:	2200      	movs	r2, #0
    5128:	4bb0      	ldr	r3, [pc, #704]	; (53ec <_dtoa_r+0x6d4>)
    512a:	f7fe fb47 	bl	37bc <__aeabi_dmul>
    512e:	2200      	movs	r2, #0
    5130:	4bae      	ldr	r3, [pc, #696]	; (53ec <_dtoa_r+0x6d4>)
    5132:	9008      	str	r0, [sp, #32]
    5134:	9109      	str	r1, [sp, #36]	; 0x24
    5136:	0028      	movs	r0, r5
    5138:	0031      	movs	r1, r6
    513a:	f7fe fb3f 	bl	37bc <__aeabi_dmul>
    513e:	000d      	movs	r5, r1
    5140:	0004      	movs	r4, r0
    5142:	f7ff f8d1 	bl	42e8 <__aeabi_d2iz>
    5146:	0007      	movs	r7, r0
    5148:	f7ff f902 	bl	4350 <__aeabi_i2d>
    514c:	0002      	movs	r2, r0
    514e:	000b      	movs	r3, r1
    5150:	0020      	movs	r0, r4
    5152:	0029      	movs	r1, r5
    5154:	f7fe fdb2 	bl	3cbc <__aeabi_dsub>
    5158:	464b      	mov	r3, r9
    515a:	3730      	adds	r7, #48	; 0x30
    515c:	b2ff      	uxtb	r7, r7
    515e:	1c5c      	adds	r4, r3, #1
    5160:	701f      	strb	r7, [r3, #0]
    5162:	9a08      	ldr	r2, [sp, #32]
    5164:	9b09      	ldr	r3, [sp, #36]	; 0x24
    5166:	0005      	movs	r5, r0
    5168:	000e      	movs	r6, r1
    516a:	f7ff fa5d 	bl	4628 <__aeabi_dcmplt>
    516e:	2800      	cmp	r0, #0
    5170:	d0c4      	beq.n	50fc <_dtoa_r+0x3e4>
    5172:	9b13      	ldr	r3, [sp, #76]	; 0x4c
    5174:	9303      	str	r3, [sp, #12]
    5176:	4659      	mov	r1, fp
    5178:	4650      	mov	r0, sl
    517a:	f001 fa17 	bl	65ac <_Bfree>
    517e:	2300      	movs	r3, #0
    5180:	7023      	strb	r3, [r4, #0]
    5182:	9b03      	ldr	r3, [sp, #12]
    5184:	9a24      	ldr	r2, [sp, #144]	; 0x90
    5186:	3301      	adds	r3, #1
    5188:	6013      	str	r3, [r2, #0]
    518a:	9b26      	ldr	r3, [sp, #152]	; 0x98
    518c:	2b00      	cmp	r3, #0
    518e:	d100      	bne.n	5192 <_dtoa_r+0x47a>
    5190:	e3a8      	b.n	58e4 <_dtoa_r+0xbcc>
    5192:	601c      	str	r4, [r3, #0]
    5194:	980a      	ldr	r0, [sp, #40]	; 0x28
    5196:	e5f4      	b.n	4d82 <_dtoa_r+0x6a>
    5198:	9b16      	ldr	r3, [sp, #88]	; 0x58
    519a:	4699      	mov	r9, r3
    519c:	9b17      	ldr	r3, [sp, #92]	; 0x5c
    519e:	444b      	add	r3, r9
    51a0:	001c      	movs	r4, r3
    51a2:	4b93      	ldr	r3, [pc, #588]	; (53f0 <_dtoa_r+0x6d8>)
    51a4:	18e3      	adds	r3, r4, r3
    51a6:	2b20      	cmp	r3, #32
    51a8:	dc00      	bgt.n	51ac <_dtoa_r+0x494>
    51aa:	e17e      	b.n	54aa <_dtoa_r+0x792>
    51ac:	0031      	movs	r1, r6
    51ae:	4a91      	ldr	r2, [pc, #580]	; (53f4 <_dtoa_r+0x6dc>)
    51b0:	4640      	mov	r0, r8
    51b2:	18a2      	adds	r2, r4, r2
    51b4:	40d1      	lsrs	r1, r2
    51b6:	000a      	movs	r2, r1
    51b8:	2140      	movs	r1, #64	; 0x40
    51ba:	1acb      	subs	r3, r1, r3
    51bc:	4098      	lsls	r0, r3
    51be:	4310      	orrs	r0, r2
    51c0:	f7ff f908 	bl	43d4 <__aeabi_ui2d>
    51c4:	1e63      	subs	r3, r4, #1
    51c6:	4698      	mov	r8, r3
    51c8:	2301      	movs	r3, #1
    51ca:	4d8b      	ldr	r5, [pc, #556]	; (53f8 <_dtoa_r+0x6e0>)
    51cc:	930f      	str	r3, [sp, #60]	; 0x3c
    51ce:	1949      	adds	r1, r1, r5
    51d0:	e618      	b.n	4e04 <_dtoa_r+0xec>
    51d2:	488a      	ldr	r0, [pc, #552]	; (53fc <_dtoa_r+0x6e4>)
    51d4:	e5d5      	b.n	4d82 <_dtoa_r+0x6a>
    51d6:	2300      	movs	r3, #0
    51d8:	4652      	mov	r2, sl
    51da:	2100      	movs	r1, #0
    51dc:	6453      	str	r3, [r2, #68]	; 0x44
    51de:	4650      	mov	r0, sl
    51e0:	f001 f9bc 	bl	655c <_Balloc>
    51e4:	4653      	mov	r3, sl
    51e6:	6418      	str	r0, [r3, #64]	; 0x40
    51e8:	2301      	movs	r3, #1
    51ea:	425b      	negs	r3, r3
    51ec:	9307      	str	r3, [sp, #28]
    51ee:	930e      	str	r3, [sp, #56]	; 0x38
    51f0:	3302      	adds	r3, #2
    51f2:	2200      	movs	r2, #0
    51f4:	930b      	str	r3, [sp, #44]	; 0x2c
    51f6:	2300      	movs	r3, #0
    51f8:	900a      	str	r0, [sp, #40]	; 0x28
    51fa:	9223      	str	r2, [sp, #140]	; 0x8c
    51fc:	9322      	str	r3, [sp, #136]	; 0x88
    51fe:	9b17      	ldr	r3, [sp, #92]	; 0x5c
    5200:	2b00      	cmp	r3, #0
    5202:	da00      	bge.n	5206 <_dtoa_r+0x4ee>
    5204:	e0ab      	b.n	535e <_dtoa_r+0x646>
    5206:	9a03      	ldr	r2, [sp, #12]
    5208:	2a0e      	cmp	r2, #14
    520a:	dd00      	ble.n	520e <_dtoa_r+0x4f6>
    520c:	e0a7      	b.n	535e <_dtoa_r+0x646>
    520e:	4b7c      	ldr	r3, [pc, #496]	; (5400 <_dtoa_r+0x6e8>)
    5210:	00d2      	lsls	r2, r2, #3
    5212:	189b      	adds	r3, r3, r2
    5214:	685c      	ldr	r4, [r3, #4]
    5216:	681b      	ldr	r3, [r3, #0]
    5218:	9304      	str	r3, [sp, #16]
    521a:	9405      	str	r4, [sp, #20]
    521c:	9b23      	ldr	r3, [sp, #140]	; 0x8c
    521e:	2b00      	cmp	r3, #0
    5220:	da00      	bge.n	5224 <_dtoa_r+0x50c>
    5222:	e2a7      	b.n	5774 <_dtoa_r+0xa5c>
    5224:	9c04      	ldr	r4, [sp, #16]
    5226:	9d05      	ldr	r5, [sp, #20]
    5228:	0030      	movs	r0, r6
    522a:	0022      	movs	r2, r4
    522c:	002b      	movs	r3, r5
    522e:	0039      	movs	r1, r7
    5230:	f7fd ff90 	bl	3154 <__aeabi_ddiv>
    5234:	f7ff f858 	bl	42e8 <__aeabi_d2iz>
    5238:	4680      	mov	r8, r0
    523a:	f7ff f889 	bl	4350 <__aeabi_i2d>
    523e:	0022      	movs	r2, r4
    5240:	002b      	movs	r3, r5
    5242:	f7fe fabb 	bl	37bc <__aeabi_dmul>
    5246:	0002      	movs	r2, r0
    5248:	000b      	movs	r3, r1
    524a:	0030      	movs	r0, r6
    524c:	0039      	movs	r1, r7
    524e:	f7fe fd35 	bl	3cbc <__aeabi_dsub>
    5252:	4643      	mov	r3, r8
    5254:	9a0a      	ldr	r2, [sp, #40]	; 0x28
    5256:	3330      	adds	r3, #48	; 0x30
    5258:	7013      	strb	r3, [r2, #0]
    525a:	9b07      	ldr	r3, [sp, #28]
    525c:	0006      	movs	r6, r0
    525e:	000f      	movs	r7, r1
    5260:	1c54      	adds	r4, r2, #1
    5262:	2b01      	cmp	r3, #1
    5264:	d04e      	beq.n	5304 <_dtoa_r+0x5ec>
    5266:	2200      	movs	r2, #0
    5268:	4b60      	ldr	r3, [pc, #384]	; (53ec <_dtoa_r+0x6d4>)
    526a:	f7fe faa7 	bl	37bc <__aeabi_dmul>
    526e:	2200      	movs	r2, #0
    5270:	2300      	movs	r3, #0
    5272:	0006      	movs	r6, r0
    5274:	000f      	movs	r7, r1
    5276:	f7ff f9d1 	bl	461c <__aeabi_dcmpeq>
    527a:	2800      	cmp	r0, #0
    527c:	d000      	beq.n	5280 <_dtoa_r+0x568>
    527e:	e77a      	b.n	5176 <_dtoa_r+0x45e>
    5280:	9b0a      	ldr	r3, [sp, #40]	; 0x28
    5282:	9a07      	ldr	r2, [sp, #28]
    5284:	1c9d      	adds	r5, r3, #2
    5286:	469c      	mov	ip, r3
    5288:	465b      	mov	r3, fp
    528a:	9306      	str	r3, [sp, #24]
    528c:	4653      	mov	r3, sl
    528e:	4462      	add	r2, ip
    5290:	46aa      	mov	sl, r5
    5292:	9c04      	ldr	r4, [sp, #16]
    5294:	9d05      	ldr	r5, [sp, #20]
    5296:	4691      	mov	r9, r2
    5298:	9307      	str	r3, [sp, #28]
    529a:	e00f      	b.n	52bc <_dtoa_r+0x5a4>
    529c:	2200      	movs	r2, #0
    529e:	4b53      	ldr	r3, [pc, #332]	; (53ec <_dtoa_r+0x6d4>)
    52a0:	f7fe fa8c 	bl	37bc <__aeabi_dmul>
    52a4:	2301      	movs	r3, #1
    52a6:	469c      	mov	ip, r3
    52a8:	2200      	movs	r2, #0
    52aa:	2300      	movs	r3, #0
    52ac:	0006      	movs	r6, r0
    52ae:	000f      	movs	r7, r1
    52b0:	44e2      	add	sl, ip
    52b2:	f7ff f9b3 	bl	461c <__aeabi_dcmpeq>
    52b6:	2800      	cmp	r0, #0
    52b8:	d000      	beq.n	52bc <_dtoa_r+0x5a4>
    52ba:	e2d9      	b.n	5870 <_dtoa_r+0xb58>
    52bc:	0022      	movs	r2, r4
    52be:	002b      	movs	r3, r5
    52c0:	0030      	movs	r0, r6
    52c2:	0039      	movs	r1, r7
    52c4:	f7fd ff46 	bl	3154 <__aeabi_ddiv>
    52c8:	f7ff f80e 	bl	42e8 <__aeabi_d2iz>
    52cc:	4680      	mov	r8, r0
    52ce:	f7ff f83f 	bl	4350 <__aeabi_i2d>
    52d2:	0022      	movs	r2, r4
    52d4:	002b      	movs	r3, r5
    52d6:	f7fe fa71 	bl	37bc <__aeabi_dmul>
    52da:	0002      	movs	r2, r0
    52dc:	000b      	movs	r3, r1
    52de:	0030      	movs	r0, r6
    52e0:	0039      	movs	r1, r7
    52e2:	f7fe fceb 	bl	3cbc <__aeabi_dsub>
    52e6:	4653      	mov	r3, sl
    52e8:	4642      	mov	r2, r8
    52ea:	3b01      	subs	r3, #1
    52ec:	3230      	adds	r2, #48	; 0x30
    52ee:	0006      	movs	r6, r0
    52f0:	000f      	movs	r7, r1
    52f2:	46d3      	mov	fp, sl
    52f4:	701a      	strb	r2, [r3, #0]
    52f6:	45d1      	cmp	r9, sl
    52f8:	d1d0      	bne.n	529c <_dtoa_r+0x584>
    52fa:	9b06      	ldr	r3, [sp, #24]
    52fc:	4654      	mov	r4, sl
    52fe:	469b      	mov	fp, r3
    5300:	9b07      	ldr	r3, [sp, #28]
    5302:	469a      	mov	sl, r3
    5304:	0032      	movs	r2, r6
    5306:	003b      	movs	r3, r7
    5308:	0030      	movs	r0, r6
    530a:	0039      	movs	r1, r7
    530c:	f7fd fc12 	bl	2b34 <__aeabi_dadd>
    5310:	0006      	movs	r6, r0
    5312:	000f      	movs	r7, r1
    5314:	0002      	movs	r2, r0
    5316:	000b      	movs	r3, r1
    5318:	9804      	ldr	r0, [sp, #16]
    531a:	9905      	ldr	r1, [sp, #20]
    531c:	f7ff f984 	bl	4628 <__aeabi_dcmplt>
    5320:	2800      	cmp	r0, #0
    5322:	d10c      	bne.n	533e <_dtoa_r+0x626>
    5324:	9804      	ldr	r0, [sp, #16]
    5326:	9905      	ldr	r1, [sp, #20]
    5328:	0032      	movs	r2, r6
    532a:	003b      	movs	r3, r7
    532c:	f7ff f976 	bl	461c <__aeabi_dcmpeq>
    5330:	2800      	cmp	r0, #0
    5332:	d100      	bne.n	5336 <_dtoa_r+0x61e>
    5334:	e71f      	b.n	5176 <_dtoa_r+0x45e>
    5336:	4643      	mov	r3, r8
    5338:	07db      	lsls	r3, r3, #31
    533a:	d400      	bmi.n	533e <_dtoa_r+0x626>
    533c:	e71b      	b.n	5176 <_dtoa_r+0x45e>
    533e:	1e65      	subs	r5, r4, #1
    5340:	782f      	ldrb	r7, [r5, #0]
    5342:	9b0a      	ldr	r3, [sp, #40]	; 0x28
    5344:	e006      	b.n	5354 <_dtoa_r+0x63c>
    5346:	429d      	cmp	r5, r3
    5348:	d100      	bne.n	534c <_dtoa_r+0x634>
    534a:	e351      	b.n	59f0 <_dtoa_r+0xcd8>
    534c:	3c02      	subs	r4, #2
    534e:	7827      	ldrb	r7, [r4, #0]
    5350:	002c      	movs	r4, r5
    5352:	3d01      	subs	r5, #1
    5354:	2f39      	cmp	r7, #57	; 0x39
    5356:	d0f6      	beq.n	5346 <_dtoa_r+0x62e>
    5358:	3701      	adds	r7, #1
    535a:	702f      	strb	r7, [r5, #0]
    535c:	e70b      	b.n	5176 <_dtoa_r+0x45e>
    535e:	9a0b      	ldr	r2, [sp, #44]	; 0x2c
    5360:	2a00      	cmp	r2, #0
    5362:	d04f      	beq.n	5404 <_dtoa_r+0x6ec>
    5364:	9a22      	ldr	r2, [sp, #136]	; 0x88
    5366:	2a01      	cmp	r2, #1
    5368:	dc00      	bgt.n	536c <_dtoa_r+0x654>
    536a:	e22c      	b.n	57c6 <_dtoa_r+0xaae>
    536c:	9b07      	ldr	r3, [sp, #28]
    536e:	1e5c      	subs	r4, r3, #1
    5370:	464b      	mov	r3, r9
    5372:	45a1      	cmp	r9, r4
    5374:	da00      	bge.n	5378 <_dtoa_r+0x660>
    5376:	e2b8      	b.n	58ea <_dtoa_r+0xbd2>
    5378:	1b1c      	subs	r4, r3, r4
    537a:	9b07      	ldr	r3, [sp, #28]
    537c:	2b00      	cmp	r3, #0
    537e:	da00      	bge.n	5382 <_dtoa_r+0x66a>
    5380:	e3d4      	b.n	5b2c <_dtoa_r+0xe14>
    5382:	9b06      	ldr	r3, [sp, #24]
    5384:	9308      	str	r3, [sp, #32]
    5386:	9b07      	ldr	r3, [sp, #28]
    5388:	9a06      	ldr	r2, [sp, #24]
    538a:	2101      	movs	r1, #1
    538c:	4694      	mov	ip, r2
    538e:	449c      	add	ip, r3
    5390:	4662      	mov	r2, ip
    5392:	9206      	str	r2, [sp, #24]
    5394:	9a04      	ldr	r2, [sp, #16]
    5396:	4650      	mov	r0, sl
    5398:	4694      	mov	ip, r2
    539a:	449c      	add	ip, r3
    539c:	4663      	mov	r3, ip
    539e:	9304      	str	r3, [sp, #16]
    53a0:	f001 f99c 	bl	66dc <__i2b>
    53a4:	4680      	mov	r8, r0
    53a6:	e032      	b.n	540e <_dtoa_r+0x6f6>
    53a8:	9a06      	ldr	r2, [sp, #24]
    53aa:	9b03      	ldr	r3, [sp, #12]
    53ac:	1ad2      	subs	r2, r2, r3
    53ae:	425b      	negs	r3, r3
    53b0:	4699      	mov	r9, r3
    53b2:	2300      	movs	r3, #0
    53b4:	9206      	str	r2, [sp, #24]
    53b6:	930d      	str	r3, [sp, #52]	; 0x34
    53b8:	e579      	b.n	4eae <_dtoa_r+0x196>
    53ba:	9803      	ldr	r0, [sp, #12]
    53bc:	f7fe ffc8 	bl	4350 <__aeabi_i2d>
    53c0:	000b      	movs	r3, r1
    53c2:	0002      	movs	r2, r0
    53c4:	0029      	movs	r1, r5
    53c6:	0020      	movs	r0, r4
    53c8:	f7ff f928 	bl	461c <__aeabi_dcmpeq>
    53cc:	0002      	movs	r2, r0
    53ce:	4250      	negs	r0, r2
    53d0:	4150      	adcs	r0, r2
    53d2:	9b03      	ldr	r3, [sp, #12]
    53d4:	1a1b      	subs	r3, r3, r0
    53d6:	9303      	str	r3, [sp, #12]
    53d8:	e53d      	b.n	4e56 <_dtoa_r+0x13e>
    53da:	2301      	movs	r3, #1
    53dc:	1a9b      	subs	r3, r3, r2
    53de:	9306      	str	r3, [sp, #24]
    53e0:	2300      	movs	r3, #0
    53e2:	9304      	str	r3, [sp, #16]
    53e4:	e557      	b.n	4e96 <_dtoa_r+0x17e>
    53e6:	46c0      	nop			; (mov r8, r8)
    53e8:	3ff00000 	.word	0x3ff00000
    53ec:	40240000 	.word	0x40240000
    53f0:	00000432 	.word	0x00000432
    53f4:	00000412 	.word	0x00000412
    53f8:	fe100000 	.word	0xfe100000
    53fc:	00008e78 	.word	0x00008e78
    5400:	000090a8 	.word	0x000090a8
    5404:	9b06      	ldr	r3, [sp, #24]
    5406:	464c      	mov	r4, r9
    5408:	9308      	str	r3, [sp, #32]
    540a:	2300      	movs	r3, #0
    540c:	4698      	mov	r8, r3
    540e:	9908      	ldr	r1, [sp, #32]
    5410:	1e0b      	subs	r3, r1, #0
    5412:	dd0e      	ble.n	5432 <_dtoa_r+0x71a>
    5414:	9a04      	ldr	r2, [sp, #16]
    5416:	2a00      	cmp	r2, #0
    5418:	dd0b      	ble.n	5432 <_dtoa_r+0x71a>
    541a:	4293      	cmp	r3, r2
    541c:	dd00      	ble.n	5420 <_dtoa_r+0x708>
    541e:	e187      	b.n	5730 <_dtoa_r+0xa18>
    5420:	9a06      	ldr	r2, [sp, #24]
    5422:	1ad2      	subs	r2, r2, r3
    5424:	9206      	str	r2, [sp, #24]
    5426:	9a08      	ldr	r2, [sp, #32]
    5428:	1ad2      	subs	r2, r2, r3
    542a:	9208      	str	r2, [sp, #32]
    542c:	9a04      	ldr	r2, [sp, #16]
    542e:	1ad3      	subs	r3, r2, r3
    5430:	9304      	str	r3, [sp, #16]
    5432:	464b      	mov	r3, r9
    5434:	2b00      	cmp	r3, #0
    5436:	d01a      	beq.n	546e <_dtoa_r+0x756>
    5438:	9b0b      	ldr	r3, [sp, #44]	; 0x2c
    543a:	2b00      	cmp	r3, #0
    543c:	d100      	bne.n	5440 <_dtoa_r+0x728>
    543e:	e1bb      	b.n	57b8 <_dtoa_r+0xaa0>
    5440:	2c00      	cmp	r4, #0
    5442:	dd10      	ble.n	5466 <_dtoa_r+0x74e>
    5444:	4641      	mov	r1, r8
    5446:	0022      	movs	r2, r4
    5448:	4650      	mov	r0, sl
    544a:	f001 f9fb 	bl	6844 <__pow5mult>
    544e:	465a      	mov	r2, fp
    5450:	0001      	movs	r1, r0
    5452:	4680      	mov	r8, r0
    5454:	4650      	mov	r0, sl
    5456:	f001 f94b 	bl	66f0 <__multiply>
    545a:	0005      	movs	r5, r0
    545c:	4659      	mov	r1, fp
    545e:	4650      	mov	r0, sl
    5460:	f001 f8a4 	bl	65ac <_Bfree>
    5464:	46ab      	mov	fp, r5
    5466:	464b      	mov	r3, r9
    5468:	1b1a      	subs	r2, r3, r4
    546a:	d000      	beq.n	546e <_dtoa_r+0x756>
    546c:	e1a5      	b.n	57ba <_dtoa_r+0xaa2>
    546e:	2101      	movs	r1, #1
    5470:	4650      	mov	r0, sl
    5472:	f001 f933 	bl	66dc <__i2b>
    5476:	9b0d      	ldr	r3, [sp, #52]	; 0x34
    5478:	4681      	mov	r9, r0
    547a:	2b00      	cmp	r3, #0
    547c:	dd1d      	ble.n	54ba <_dtoa_r+0x7a2>
    547e:	001a      	movs	r2, r3
    5480:	0001      	movs	r1, r0
    5482:	4650      	mov	r0, sl
    5484:	f001 f9de 	bl	6844 <__pow5mult>
    5488:	9b22      	ldr	r3, [sp, #136]	; 0x88
    548a:	4681      	mov	r9, r0
    548c:	2b01      	cmp	r3, #1
    548e:	dc00      	bgt.n	5492 <_dtoa_r+0x77a>
    5490:	e150      	b.n	5734 <_dtoa_r+0xa1c>
    5492:	2400      	movs	r4, #0
    5494:	464b      	mov	r3, r9
    5496:	691b      	ldr	r3, [r3, #16]
    5498:	3303      	adds	r3, #3
    549a:	009b      	lsls	r3, r3, #2
    549c:	444b      	add	r3, r9
    549e:	6858      	ldr	r0, [r3, #4]
    54a0:	f001 f8d4 	bl	664c <__hi0bits>
    54a4:	2320      	movs	r3, #32
    54a6:	1a1b      	subs	r3, r3, r0
    54a8:	e010      	b.n	54cc <_dtoa_r+0x7b4>
    54aa:	2220      	movs	r2, #32
    54ac:	0030      	movs	r0, r6
    54ae:	1ad3      	subs	r3, r2, r3
    54b0:	4098      	lsls	r0, r3
    54b2:	e685      	b.n	51c0 <_dtoa_r+0x4a8>
    54b4:	2300      	movs	r3, #0
    54b6:	930c      	str	r3, [sp, #48]	; 0x30
    54b8:	e4e3      	b.n	4e82 <_dtoa_r+0x16a>
    54ba:	9b22      	ldr	r3, [sp, #136]	; 0x88
    54bc:	2400      	movs	r4, #0
    54be:	2b01      	cmp	r3, #1
    54c0:	dc00      	bgt.n	54c4 <_dtoa_r+0x7ac>
    54c2:	e18b      	b.n	57dc <_dtoa_r+0xac4>
    54c4:	9a0d      	ldr	r2, [sp, #52]	; 0x34
    54c6:	2301      	movs	r3, #1
    54c8:	2a00      	cmp	r2, #0
    54ca:	d1e3      	bne.n	5494 <_dtoa_r+0x77c>
    54cc:	9904      	ldr	r1, [sp, #16]
    54ce:	201f      	movs	r0, #31
    54d0:	468c      	mov	ip, r1
    54d2:	4463      	add	r3, ip
    54d4:	4018      	ands	r0, r3
    54d6:	d100      	bne.n	54da <_dtoa_r+0x7c2>
    54d8:	e0ae      	b.n	5638 <_dtoa_r+0x920>
    54da:	2320      	movs	r3, #32
    54dc:	1a1b      	subs	r3, r3, r0
    54de:	2b04      	cmp	r3, #4
    54e0:	dc00      	bgt.n	54e4 <_dtoa_r+0x7cc>
    54e2:	e3cc      	b.n	5c7e <_dtoa_r+0xf66>
    54e4:	231c      	movs	r3, #28
    54e6:	1a18      	subs	r0, r3, r0
    54e8:	9b06      	ldr	r3, [sp, #24]
    54ea:	469c      	mov	ip, r3
    54ec:	4484      	add	ip, r0
    54ee:	4663      	mov	r3, ip
    54f0:	9306      	str	r3, [sp, #24]
    54f2:	9b08      	ldr	r3, [sp, #32]
    54f4:	469c      	mov	ip, r3
    54f6:	4484      	add	ip, r0
    54f8:	4663      	mov	r3, ip
    54fa:	468c      	mov	ip, r1
    54fc:	4484      	add	ip, r0
    54fe:	9308      	str	r3, [sp, #32]
    5500:	4663      	mov	r3, ip
    5502:	9304      	str	r3, [sp, #16]
    5504:	9b06      	ldr	r3, [sp, #24]
    5506:	2b00      	cmp	r3, #0
    5508:	dd05      	ble.n	5516 <_dtoa_r+0x7fe>
    550a:	4659      	mov	r1, fp
    550c:	001a      	movs	r2, r3
    550e:	4650      	mov	r0, sl
    5510:	f001 f9f8 	bl	6904 <__lshift>
    5514:	4683      	mov	fp, r0
    5516:	9b04      	ldr	r3, [sp, #16]
    5518:	2b00      	cmp	r3, #0
    551a:	dd05      	ble.n	5528 <_dtoa_r+0x810>
    551c:	4649      	mov	r1, r9
    551e:	001a      	movs	r2, r3
    5520:	4650      	mov	r0, sl
    5522:	f001 f9ef 	bl	6904 <__lshift>
    5526:	4681      	mov	r9, r0
    5528:	9b0c      	ldr	r3, [sp, #48]	; 0x30
    552a:	2b00      	cmp	r3, #0
    552c:	d000      	beq.n	5530 <_dtoa_r+0x818>
    552e:	e094      	b.n	565a <_dtoa_r+0x942>
    5530:	9b07      	ldr	r3, [sp, #28]
    5532:	2b00      	cmp	r3, #0
    5534:	dc00      	bgt.n	5538 <_dtoa_r+0x820>
    5536:	e175      	b.n	5824 <_dtoa_r+0xb0c>
    5538:	9b0b      	ldr	r3, [sp, #44]	; 0x2c
    553a:	2b00      	cmp	r3, #0
    553c:	d100      	bne.n	5540 <_dtoa_r+0x828>
    553e:	e0a6      	b.n	568e <_dtoa_r+0x976>
    5540:	9b08      	ldr	r3, [sp, #32]
    5542:	2b00      	cmp	r3, #0
    5544:	dd05      	ble.n	5552 <_dtoa_r+0x83a>
    5546:	4641      	mov	r1, r8
    5548:	001a      	movs	r2, r3
    554a:	4650      	mov	r0, sl
    554c:	f001 f9da 	bl	6904 <__lshift>
    5550:	4680      	mov	r8, r0
    5552:	4643      	mov	r3, r8
    5554:	930c      	str	r3, [sp, #48]	; 0x30
    5556:	2c00      	cmp	r4, #0
    5558:	d000      	beq.n	555c <_dtoa_r+0x844>
    555a:	e250      	b.n	59fe <_dtoa_r+0xce6>
    555c:	9c07      	ldr	r4, [sp, #28]
    555e:	9a0a      	ldr	r2, [sp, #40]	; 0x28
    5560:	3c01      	subs	r4, #1
    5562:	0023      	movs	r3, r4
    5564:	4694      	mov	ip, r2
    5566:	4463      	add	r3, ip
    5568:	9308      	str	r3, [sp, #32]
    556a:	2301      	movs	r3, #1
    556c:	4033      	ands	r3, r6
    556e:	9307      	str	r3, [sp, #28]
    5570:	464b      	mov	r3, r9
    5572:	9306      	str	r3, [sp, #24]
    5574:	9b0c      	ldr	r3, [sp, #48]	; 0x30
    5576:	4657      	mov	r7, sl
    5578:	4645      	mov	r5, r8
    557a:	465e      	mov	r6, fp
    557c:	4692      	mov	sl, r2
    557e:	4698      	mov	r8, r3
    5580:	9b06      	ldr	r3, [sp, #24]
    5582:	0030      	movs	r0, r6
    5584:	0019      	movs	r1, r3
    5586:	4699      	mov	r9, r3
    5588:	f7ff fb1c 	bl	4bc4 <quorem>
    558c:	0003      	movs	r3, r0
    558e:	900b      	str	r0, [sp, #44]	; 0x2c
    5590:	3330      	adds	r3, #48	; 0x30
    5592:	0029      	movs	r1, r5
    5594:	0030      	movs	r0, r6
    5596:	9304      	str	r3, [sp, #16]
    5598:	f001 fa14 	bl	69c4 <__mcmp>
    559c:	4649      	mov	r1, r9
    559e:	0004      	movs	r4, r0
    55a0:	4642      	mov	r2, r8
    55a2:	0038      	movs	r0, r7
    55a4:	f001 fa28 	bl	69f8 <__mdiff>
    55a8:	68c3      	ldr	r3, [r0, #12]
    55aa:	4681      	mov	r9, r0
    55ac:	2b00      	cmp	r3, #0
    55ae:	d000      	beq.n	55b2 <_dtoa_r+0x89a>
    55b0:	e11e      	b.n	57f0 <_dtoa_r+0xad8>
    55b2:	0001      	movs	r1, r0
    55b4:	0030      	movs	r0, r6
    55b6:	f001 fa05 	bl	69c4 <__mcmp>
    55ba:	4683      	mov	fp, r0
    55bc:	4649      	mov	r1, r9
    55be:	0038      	movs	r0, r7
    55c0:	f000 fff4 	bl	65ac <_Bfree>
    55c4:	465b      	mov	r3, fp
    55c6:	9a22      	ldr	r2, [sp, #136]	; 0x88
    55c8:	4313      	orrs	r3, r2
    55ca:	d103      	bne.n	55d4 <_dtoa_r+0x8bc>
    55cc:	9b07      	ldr	r3, [sp, #28]
    55ce:	2b00      	cmp	r3, #0
    55d0:	d100      	bne.n	55d4 <_dtoa_r+0x8bc>
    55d2:	e306      	b.n	5be2 <_dtoa_r+0xeca>
    55d4:	2c00      	cmp	r4, #0
    55d6:	da00      	bge.n	55da <_dtoa_r+0x8c2>
    55d8:	e1a8      	b.n	592c <_dtoa_r+0xc14>
    55da:	9b22      	ldr	r3, [sp, #136]	; 0x88
    55dc:	431c      	orrs	r4, r3
    55de:	d103      	bne.n	55e8 <_dtoa_r+0x8d0>
    55e0:	9b07      	ldr	r3, [sp, #28]
    55e2:	2b00      	cmp	r3, #0
    55e4:	d100      	bne.n	55e8 <_dtoa_r+0x8d0>
    55e6:	e1a1      	b.n	592c <_dtoa_r+0xc14>
    55e8:	465b      	mov	r3, fp
    55ea:	2b00      	cmp	r3, #0
    55ec:	dd00      	ble.n	55f0 <_dtoa_r+0x8d8>
    55ee:	e282      	b.n	5af6 <_dtoa_r+0xdde>
    55f0:	4669      	mov	r1, sp
    55f2:	4652      	mov	r2, sl
    55f4:	4653      	mov	r3, sl
    55f6:	7c09      	ldrb	r1, [r1, #16]
    55f8:	1c5c      	adds	r4, r3, #1
    55fa:	7011      	strb	r1, [r2, #0]
    55fc:	9a08      	ldr	r2, [sp, #32]
    55fe:	4552      	cmp	r2, sl
    5600:	d100      	bne.n	5604 <_dtoa_r+0x8ec>
    5602:	e28a      	b.n	5b1a <_dtoa_r+0xe02>
    5604:	0031      	movs	r1, r6
    5606:	2300      	movs	r3, #0
    5608:	220a      	movs	r2, #10
    560a:	0038      	movs	r0, r7
    560c:	f000 ffd8 	bl	65c0 <__multadd>
    5610:	2300      	movs	r3, #0
    5612:	0006      	movs	r6, r0
    5614:	220a      	movs	r2, #10
    5616:	0029      	movs	r1, r5
    5618:	0038      	movs	r0, r7
    561a:	4545      	cmp	r5, r8
    561c:	d100      	bne.n	5620 <_dtoa_r+0x908>
    561e:	e0e1      	b.n	57e4 <_dtoa_r+0xacc>
    5620:	f000 ffce 	bl	65c0 <__multadd>
    5624:	4641      	mov	r1, r8
    5626:	0005      	movs	r5, r0
    5628:	2300      	movs	r3, #0
    562a:	220a      	movs	r2, #10
    562c:	0038      	movs	r0, r7
    562e:	f000 ffc7 	bl	65c0 <__multadd>
    5632:	46a2      	mov	sl, r4
    5634:	4680      	mov	r8, r0
    5636:	e7a3      	b.n	5580 <_dtoa_r+0x868>
    5638:	201c      	movs	r0, #28
    563a:	9b06      	ldr	r3, [sp, #24]
    563c:	469c      	mov	ip, r3
    563e:	4484      	add	ip, r0
    5640:	4663      	mov	r3, ip
    5642:	9306      	str	r3, [sp, #24]
    5644:	9b08      	ldr	r3, [sp, #32]
    5646:	469c      	mov	ip, r3
    5648:	4484      	add	ip, r0
    564a:	4663      	mov	r3, ip
    564c:	9308      	str	r3, [sp, #32]
    564e:	9b04      	ldr	r3, [sp, #16]
    5650:	469c      	mov	ip, r3
    5652:	4484      	add	ip, r0
    5654:	4663      	mov	r3, ip
    5656:	9304      	str	r3, [sp, #16]
    5658:	e754      	b.n	5504 <_dtoa_r+0x7ec>
    565a:	4649      	mov	r1, r9
    565c:	4658      	mov	r0, fp
    565e:	f001 f9b1 	bl	69c4 <__mcmp>
    5662:	2800      	cmp	r0, #0
    5664:	db00      	blt.n	5668 <_dtoa_r+0x950>
    5666:	e763      	b.n	5530 <_dtoa_r+0x818>
    5668:	9b03      	ldr	r3, [sp, #12]
    566a:	4659      	mov	r1, fp
    566c:	3b01      	subs	r3, #1
    566e:	9303      	str	r3, [sp, #12]
    5670:	220a      	movs	r2, #10
    5672:	2300      	movs	r3, #0
    5674:	4650      	mov	r0, sl
    5676:	f000 ffa3 	bl	65c0 <__multadd>
    567a:	9b0b      	ldr	r3, [sp, #44]	; 0x2c
    567c:	4683      	mov	fp, r0
    567e:	2b00      	cmp	r3, #0
    5680:	d000      	beq.n	5684 <_dtoa_r+0x96c>
    5682:	e2ca      	b.n	5c1a <_dtoa_r+0xf02>
    5684:	9b0e      	ldr	r3, [sp, #56]	; 0x38
    5686:	2b00      	cmp	r3, #0
    5688:	dc00      	bgt.n	568c <_dtoa_r+0x974>
    568a:	e2d8      	b.n	5c3e <_dtoa_r+0xf26>
    568c:	9307      	str	r3, [sp, #28]
    568e:	9b0a      	ldr	r3, [sp, #40]	; 0x28
    5690:	465d      	mov	r5, fp
    5692:	2400      	movs	r4, #0
    5694:	9f07      	ldr	r7, [sp, #28]
    5696:	469b      	mov	fp, r3
    5698:	e006      	b.n	56a8 <_dtoa_r+0x990>
    569a:	0029      	movs	r1, r5
    569c:	2300      	movs	r3, #0
    569e:	220a      	movs	r2, #10
    56a0:	4650      	mov	r0, sl
    56a2:	f000 ff8d 	bl	65c0 <__multadd>
    56a6:	0005      	movs	r5, r0
    56a8:	4649      	mov	r1, r9
    56aa:	0028      	movs	r0, r5
    56ac:	f7ff fa8a 	bl	4bc4 <quorem>
    56b0:	465b      	mov	r3, fp
    56b2:	3030      	adds	r0, #48	; 0x30
    56b4:	5518      	strb	r0, [r3, r4]
    56b6:	3401      	adds	r4, #1
    56b8:	42bc      	cmp	r4, r7
    56ba:	dbee      	blt.n	569a <_dtoa_r+0x982>
    56bc:	46ab      	mov	fp, r5
    56be:	0006      	movs	r6, r0
    56c0:	9c07      	ldr	r4, [sp, #28]
    56c2:	2c00      	cmp	r4, #0
    56c4:	dc00      	bgt.n	56c8 <_dtoa_r+0x9b0>
    56c6:	e237      	b.n	5b38 <_dtoa_r+0xe20>
    56c8:	9b0a      	ldr	r3, [sp, #40]	; 0x28
    56ca:	2700      	movs	r7, #0
    56cc:	469c      	mov	ip, r3
    56ce:	4464      	add	r4, ip
    56d0:	4659      	mov	r1, fp
    56d2:	2201      	movs	r2, #1
    56d4:	4650      	mov	r0, sl
    56d6:	f001 f915 	bl	6904 <__lshift>
    56da:	4649      	mov	r1, r9
    56dc:	4683      	mov	fp, r0
    56de:	f001 f971 	bl	69c4 <__mcmp>
    56e2:	2800      	cmp	r0, #0
    56e4:	dc00      	bgt.n	56e8 <_dtoa_r+0x9d0>
    56e6:	e144      	b.n	5972 <_dtoa_r+0xc5a>
    56e8:	1e65      	subs	r5, r4, #1
    56ea:	782b      	ldrb	r3, [r5, #0]
    56ec:	9a0a      	ldr	r2, [sp, #40]	; 0x28
    56ee:	e006      	b.n	56fe <_dtoa_r+0x9e6>
    56f0:	4295      	cmp	r5, r2
    56f2:	d100      	bne.n	56f6 <_dtoa_r+0x9de>
    56f4:	e0b1      	b.n	585a <_dtoa_r+0xb42>
    56f6:	3c02      	subs	r4, #2
    56f8:	7823      	ldrb	r3, [r4, #0]
    56fa:	002c      	movs	r4, r5
    56fc:	3d01      	subs	r5, #1
    56fe:	2b39      	cmp	r3, #57	; 0x39
    5700:	d0f6      	beq.n	56f0 <_dtoa_r+0x9d8>
    5702:	3301      	adds	r3, #1
    5704:	702b      	strb	r3, [r5, #0]
    5706:	4649      	mov	r1, r9
    5708:	4650      	mov	r0, sl
    570a:	f000 ff4f 	bl	65ac <_Bfree>
    570e:	4643      	mov	r3, r8
    5710:	2b00      	cmp	r3, #0
    5712:	d100      	bne.n	5716 <_dtoa_r+0x9fe>
    5714:	e52f      	b.n	5176 <_dtoa_r+0x45e>
    5716:	2f00      	cmp	r7, #0
    5718:	d005      	beq.n	5726 <_dtoa_r+0xa0e>
    571a:	4547      	cmp	r7, r8
    571c:	d003      	beq.n	5726 <_dtoa_r+0xa0e>
    571e:	0039      	movs	r1, r7
    5720:	4650      	mov	r0, sl
    5722:	f000 ff43 	bl	65ac <_Bfree>
    5726:	4641      	mov	r1, r8
    5728:	4650      	mov	r0, sl
    572a:	f000 ff3f 	bl	65ac <_Bfree>
    572e:	e522      	b.n	5176 <_dtoa_r+0x45e>
    5730:	0013      	movs	r3, r2
    5732:	e675      	b.n	5420 <_dtoa_r+0x708>
    5734:	2e00      	cmp	r6, #0
    5736:	d000      	beq.n	573a <_dtoa_r+0xa22>
    5738:	e6ab      	b.n	5492 <_dtoa_r+0x77a>
    573a:	033b      	lsls	r3, r7, #12
    573c:	2400      	movs	r4, #0
    573e:	2b00      	cmp	r3, #0
    5740:	d000      	beq.n	5744 <_dtoa_r+0xa2c>
    5742:	e6bf      	b.n	54c4 <_dtoa_r+0x7ac>
    5744:	4bba      	ldr	r3, [pc, #744]	; (5a30 <_dtoa_r+0xd18>)
    5746:	423b      	tst	r3, r7
    5748:	d100      	bne.n	574c <_dtoa_r+0xa34>
    574a:	e6bb      	b.n	54c4 <_dtoa_r+0x7ac>
    574c:	9b06      	ldr	r3, [sp, #24]
    574e:	3401      	adds	r4, #1
    5750:	3301      	adds	r3, #1
    5752:	9306      	str	r3, [sp, #24]
    5754:	9b04      	ldr	r3, [sp, #16]
    5756:	3301      	adds	r3, #1
    5758:	9304      	str	r3, [sp, #16]
    575a:	e6b3      	b.n	54c4 <_dtoa_r+0x7ac>
    575c:	2301      	movs	r3, #1
    575e:	930b      	str	r3, [sp, #44]	; 0x2c
    5760:	9b23      	ldr	r3, [sp, #140]	; 0x8c
    5762:	2b00      	cmp	r3, #0
    5764:	dc00      	bgt.n	5768 <_dtoa_r+0xa50>
    5766:	e0d1      	b.n	590c <_dtoa_r+0xbf4>
    5768:	001d      	movs	r5, r3
    576a:	4698      	mov	r8, r3
    576c:	930e      	str	r3, [sp, #56]	; 0x38
    576e:	9307      	str	r3, [sp, #28]
    5770:	f7ff fbc8 	bl	4f04 <_dtoa_r+0x1ec>
    5774:	9b07      	ldr	r3, [sp, #28]
    5776:	2b00      	cmp	r3, #0
    5778:	dd00      	ble.n	577c <_dtoa_r+0xa64>
    577a:	e553      	b.n	5224 <_dtoa_r+0x50c>
    577c:	d000      	beq.n	5780 <_dtoa_r+0xa68>
    577e:	e0ad      	b.n	58dc <_dtoa_r+0xbc4>
    5780:	9804      	ldr	r0, [sp, #16]
    5782:	9905      	ldr	r1, [sp, #20]
    5784:	2200      	movs	r2, #0
    5786:	4bab      	ldr	r3, [pc, #684]	; (5a34 <_dtoa_r+0xd1c>)
    5788:	f7fe f818 	bl	37bc <__aeabi_dmul>
    578c:	003b      	movs	r3, r7
    578e:	0032      	movs	r2, r6
    5790:	f7fe ff68 	bl	4664 <__aeabi_dcmpge>
    5794:	2300      	movs	r3, #0
    5796:	4699      	mov	r9, r3
    5798:	4698      	mov	r8, r3
    579a:	2800      	cmp	r0, #0
    579c:	d055      	beq.n	584a <_dtoa_r+0xb32>
    579e:	9b23      	ldr	r3, [sp, #140]	; 0x8c
    57a0:	9c0a      	ldr	r4, [sp, #40]	; 0x28
    57a2:	43db      	mvns	r3, r3
    57a4:	9303      	str	r3, [sp, #12]
    57a6:	4649      	mov	r1, r9
    57a8:	4650      	mov	r0, sl
    57aa:	f000 feff 	bl	65ac <_Bfree>
    57ae:	4643      	mov	r3, r8
    57b0:	2b00      	cmp	r3, #0
    57b2:	d100      	bne.n	57b6 <_dtoa_r+0xa9e>
    57b4:	e4df      	b.n	5176 <_dtoa_r+0x45e>
    57b6:	e7b6      	b.n	5726 <_dtoa_r+0xa0e>
    57b8:	464a      	mov	r2, r9
    57ba:	4659      	mov	r1, fp
    57bc:	4650      	mov	r0, sl
    57be:	f001 f841 	bl	6844 <__pow5mult>
    57c2:	4683      	mov	fp, r0
    57c4:	e653      	b.n	546e <_dtoa_r+0x756>
    57c6:	9a0f      	ldr	r2, [sp, #60]	; 0x3c
    57c8:	2a00      	cmp	r2, #0
    57ca:	d100      	bne.n	57ce <_dtoa_r+0xab6>
    57cc:	e1b6      	b.n	5b3c <_dtoa_r+0xe24>
    57ce:	4a9a      	ldr	r2, [pc, #616]	; (5a38 <_dtoa_r+0xd20>)
    57d0:	464c      	mov	r4, r9
    57d2:	4694      	mov	ip, r2
    57d4:	9a06      	ldr	r2, [sp, #24]
    57d6:	4463      	add	r3, ip
    57d8:	9208      	str	r2, [sp, #32]
    57da:	e5d5      	b.n	5388 <_dtoa_r+0x670>
    57dc:	2e00      	cmp	r6, #0
    57de:	d000      	beq.n	57e2 <_dtoa_r+0xaca>
    57e0:	e670      	b.n	54c4 <_dtoa_r+0x7ac>
    57e2:	e7aa      	b.n	573a <_dtoa_r+0xa22>
    57e4:	f000 feec 	bl	65c0 <__multadd>
    57e8:	46a2      	mov	sl, r4
    57ea:	0005      	movs	r5, r0
    57ec:	4680      	mov	r8, r0
    57ee:	e6c7      	b.n	5580 <_dtoa_r+0x868>
    57f0:	2301      	movs	r3, #1
    57f2:	469b      	mov	fp, r3
    57f4:	e6e2      	b.n	55bc <_dtoa_r+0x8a4>
    57f6:	2300      	movs	r3, #0
    57f8:	930b      	str	r3, [sp, #44]	; 0x2c
    57fa:	9b22      	ldr	r3, [sp, #136]	; 0x88
    57fc:	2b02      	cmp	r3, #2
    57fe:	d0af      	beq.n	5760 <_dtoa_r+0xa48>
    5800:	2400      	movs	r4, #0
    5802:	4653      	mov	r3, sl
    5804:	0021      	movs	r1, r4
    5806:	645c      	str	r4, [r3, #68]	; 0x44
    5808:	4650      	mov	r0, sl
    580a:	f000 fea7 	bl	655c <_Balloc>
    580e:	4653      	mov	r3, sl
    5810:	6418      	str	r0, [r3, #64]	; 0x40
    5812:	2301      	movs	r3, #1
    5814:	425b      	negs	r3, r3
    5816:	9307      	str	r3, [sp, #28]
    5818:	930e      	str	r3, [sp, #56]	; 0x38
    581a:	3302      	adds	r3, #2
    581c:	900a      	str	r0, [sp, #40]	; 0x28
    581e:	9423      	str	r4, [sp, #140]	; 0x8c
    5820:	930b      	str	r3, [sp, #44]	; 0x2c
    5822:	e4ec      	b.n	51fe <_dtoa_r+0x4e6>
    5824:	9b22      	ldr	r3, [sp, #136]	; 0x88
    5826:	2b02      	cmp	r3, #2
    5828:	dc00      	bgt.n	582c <_dtoa_r+0xb14>
    582a:	e685      	b.n	5538 <_dtoa_r+0x820>
    582c:	9b07      	ldr	r3, [sp, #28]
    582e:	2b00      	cmp	r3, #0
    5830:	d1b5      	bne.n	579e <_dtoa_r+0xa86>
    5832:	4649      	mov	r1, r9
    5834:	2205      	movs	r2, #5
    5836:	4650      	mov	r0, sl
    5838:	f000 fec2 	bl	65c0 <__multadd>
    583c:	4681      	mov	r9, r0
    583e:	0001      	movs	r1, r0
    5840:	4658      	mov	r0, fp
    5842:	f001 f8bf 	bl	69c4 <__mcmp>
    5846:	2800      	cmp	r0, #0
    5848:	dda9      	ble.n	579e <_dtoa_r+0xa86>
    584a:	2331      	movs	r3, #49	; 0x31
    584c:	9a0a      	ldr	r2, [sp, #40]	; 0x28
    584e:	7013      	strb	r3, [r2, #0]
    5850:	9b03      	ldr	r3, [sp, #12]
    5852:	1c54      	adds	r4, r2, #1
    5854:	3301      	adds	r3, #1
    5856:	9303      	str	r3, [sp, #12]
    5858:	e7a5      	b.n	57a6 <_dtoa_r+0xa8e>
    585a:	9b03      	ldr	r3, [sp, #12]
    585c:	9a0a      	ldr	r2, [sp, #40]	; 0x28
    585e:	3301      	adds	r3, #1
    5860:	9303      	str	r3, [sp, #12]
    5862:	2331      	movs	r3, #49	; 0x31
    5864:	7013      	strb	r3, [r2, #0]
    5866:	e74e      	b.n	5706 <_dtoa_r+0x9ee>
    5868:	2300      	movs	r3, #0
    586a:	930b      	str	r3, [sp, #44]	; 0x2c
    586c:	f7ff fb3d 	bl	4eea <_dtoa_r+0x1d2>
    5870:	9b06      	ldr	r3, [sp, #24]
    5872:	465c      	mov	r4, fp
    5874:	469b      	mov	fp, r3
    5876:	9b07      	ldr	r3, [sp, #28]
    5878:	469a      	mov	sl, r3
    587a:	e47c      	b.n	5176 <_dtoa_r+0x45e>
    587c:	4640      	mov	r0, r8
    587e:	f7fe fd67 	bl	4350 <__aeabi_i2d>
    5882:	0032      	movs	r2, r6
    5884:	003b      	movs	r3, r7
    5886:	f7fd ff99 	bl	37bc <__aeabi_dmul>
    588a:	2200      	movs	r2, #0
    588c:	4b6b      	ldr	r3, [pc, #428]	; (5a3c <_dtoa_r+0xd24>)
    588e:	f7fd f951 	bl	2b34 <__aeabi_dadd>
    5892:	4a6b      	ldr	r2, [pc, #428]	; (5a40 <_dtoa_r+0xd28>)
    5894:	000b      	movs	r3, r1
    5896:	4694      	mov	ip, r2
    5898:	4463      	add	r3, ip
    589a:	9008      	str	r0, [sp, #32]
    589c:	9109      	str	r1, [sp, #36]	; 0x24
    589e:	9309      	str	r3, [sp, #36]	; 0x24
    58a0:	2200      	movs	r2, #0
    58a2:	4b64      	ldr	r3, [pc, #400]	; (5a34 <_dtoa_r+0xd1c>)
    58a4:	0030      	movs	r0, r6
    58a6:	0039      	movs	r1, r7
    58a8:	f7fe fa08 	bl	3cbc <__aeabi_dsub>
    58ac:	9e08      	ldr	r6, [sp, #32]
    58ae:	9f09      	ldr	r7, [sp, #36]	; 0x24
    58b0:	0032      	movs	r2, r6
    58b2:	003b      	movs	r3, r7
    58b4:	0004      	movs	r4, r0
    58b6:	000d      	movs	r5, r1
    58b8:	f7fe feca 	bl	4650 <__aeabi_dcmpgt>
    58bc:	2800      	cmp	r0, #0
    58be:	d000      	beq.n	58c2 <_dtoa_r+0xbaa>
    58c0:	e0b2      	b.n	5a28 <_dtoa_r+0xd10>
    58c2:	2080      	movs	r0, #128	; 0x80
    58c4:	0600      	lsls	r0, r0, #24
    58c6:	4684      	mov	ip, r0
    58c8:	0039      	movs	r1, r7
    58ca:	4461      	add	r1, ip
    58cc:	000b      	movs	r3, r1
    58ce:	0032      	movs	r2, r6
    58d0:	0020      	movs	r0, r4
    58d2:	0029      	movs	r1, r5
    58d4:	f7fe fea8 	bl	4628 <__aeabi_dcmplt>
    58d8:	2800      	cmp	r0, #0
    58da:	d057      	beq.n	598c <_dtoa_r+0xc74>
    58dc:	2300      	movs	r3, #0
    58de:	4699      	mov	r9, r3
    58e0:	4698      	mov	r8, r3
    58e2:	e75c      	b.n	579e <_dtoa_r+0xa86>
    58e4:	980a      	ldr	r0, [sp, #40]	; 0x28
    58e6:	f7ff fa4c 	bl	4d82 <_dtoa_r+0x6a>
    58ea:	1ae2      	subs	r2, r4, r3
    58ec:	9b0d      	ldr	r3, [sp, #52]	; 0x34
    58ee:	46a1      	mov	r9, r4
    58f0:	469c      	mov	ip, r3
    58f2:	4494      	add	ip, r2
    58f4:	4663      	mov	r3, ip
    58f6:	2400      	movs	r4, #0
    58f8:	930d      	str	r3, [sp, #52]	; 0x34
    58fa:	e53e      	b.n	537a <_dtoa_r+0x662>
    58fc:	9a10      	ldr	r2, [sp, #64]	; 0x40
    58fe:	9b11      	ldr	r3, [sp, #68]	; 0x44
    5900:	9208      	str	r2, [sp, #32]
    5902:	9309      	str	r3, [sp, #36]	; 0x24
    5904:	2302      	movs	r3, #2
    5906:	4698      	mov	r8, r3
    5908:	f7ff fb3a 	bl	4f80 <_dtoa_r+0x268>
    590c:	2300      	movs	r3, #0
    590e:	4652      	mov	r2, sl
    5910:	2100      	movs	r1, #0
    5912:	6453      	str	r3, [r2, #68]	; 0x44
    5914:	4650      	mov	r0, sl
    5916:	f000 fe21 	bl	655c <_Balloc>
    591a:	4653      	mov	r3, sl
    591c:	6418      	str	r0, [r3, #64]	; 0x40
    591e:	2301      	movs	r3, #1
    5920:	900a      	str	r0, [sp, #40]	; 0x28
    5922:	9307      	str	r3, [sp, #28]
    5924:	9323      	str	r3, [sp, #140]	; 0x8c
    5926:	930e      	str	r3, [sp, #56]	; 0x38
    5928:	f7ff fb07 	bl	4f3a <_dtoa_r+0x222>
    592c:	4643      	mov	r3, r8
    592e:	930c      	str	r3, [sp, #48]	; 0x30
    5930:	465b      	mov	r3, fp
    5932:	9a06      	ldr	r2, [sp, #24]
    5934:	46a8      	mov	r8, r5
    5936:	46b3      	mov	fp, r6
    5938:	4655      	mov	r5, sl
    593a:	9e04      	ldr	r6, [sp, #16]
    593c:	4691      	mov	r9, r2
    593e:	46ba      	mov	sl, r7
    5940:	2b00      	cmp	r3, #0
    5942:	dd10      	ble.n	5966 <_dtoa_r+0xc4e>
    5944:	4659      	mov	r1, fp
    5946:	2201      	movs	r2, #1
    5948:	0038      	movs	r0, r7
    594a:	f000 ffdb 	bl	6904 <__lshift>
    594e:	4649      	mov	r1, r9
    5950:	4683      	mov	fp, r0
    5952:	f001 f837 	bl	69c4 <__mcmp>
    5956:	2800      	cmp	r0, #0
    5958:	dc00      	bgt.n	595c <_dtoa_r+0xc44>
    595a:	e157      	b.n	5c0c <_dtoa_r+0xef4>
    595c:	2e39      	cmp	r6, #57	; 0x39
    595e:	d100      	bne.n	5962 <_dtoa_r+0xc4a>
    5960:	e122      	b.n	5ba8 <_dtoa_r+0xe90>
    5962:	9e0b      	ldr	r6, [sp, #44]	; 0x2c
    5964:	3631      	adds	r6, #49	; 0x31
    5966:	9b0c      	ldr	r3, [sp, #48]	; 0x30
    5968:	4647      	mov	r7, r8
    596a:	1c6c      	adds	r4, r5, #1
    596c:	702e      	strb	r6, [r5, #0]
    596e:	4698      	mov	r8, r3
    5970:	e6c9      	b.n	5706 <_dtoa_r+0x9ee>
    5972:	2800      	cmp	r0, #0
    5974:	d103      	bne.n	597e <_dtoa_r+0xc66>
    5976:	07f3      	lsls	r3, r6, #31
    5978:	d501      	bpl.n	597e <_dtoa_r+0xc66>
    597a:	e6b5      	b.n	56e8 <_dtoa_r+0x9d0>
    597c:	001c      	movs	r4, r3
    597e:	1e63      	subs	r3, r4, #1
    5980:	781a      	ldrb	r2, [r3, #0]
    5982:	2a30      	cmp	r2, #48	; 0x30
    5984:	d0fa      	beq.n	597c <_dtoa_r+0xc64>
    5986:	e6be      	b.n	5706 <_dtoa_r+0x9ee>
    5988:	9b12      	ldr	r3, [sp, #72]	; 0x48
    598a:	4699      	mov	r9, r3
    598c:	9e10      	ldr	r6, [sp, #64]	; 0x40
    598e:	9f11      	ldr	r7, [sp, #68]	; 0x44
    5990:	e435      	b.n	51fe <_dtoa_r+0x4e6>
    5992:	2501      	movs	r5, #1
    5994:	f7ff fab4 	bl	4f00 <_dtoa_r+0x1e8>
    5998:	9b03      	ldr	r3, [sp, #12]
    599a:	2b00      	cmp	r3, #0
    599c:	d100      	bne.n	59a0 <_dtoa_r+0xc88>
    599e:	e0d4      	b.n	5b4a <_dtoa_r+0xe32>
    59a0:	9810      	ldr	r0, [sp, #64]	; 0x40
    59a2:	9911      	ldr	r1, [sp, #68]	; 0x44
    59a4:	425c      	negs	r4, r3
    59a6:	230f      	movs	r3, #15
    59a8:	4a26      	ldr	r2, [pc, #152]	; (5a44 <_dtoa_r+0xd2c>)
    59aa:	4023      	ands	r3, r4
    59ac:	00db      	lsls	r3, r3, #3
    59ae:	18d3      	adds	r3, r2, r3
    59b0:	681a      	ldr	r2, [r3, #0]
    59b2:	685b      	ldr	r3, [r3, #4]
    59b4:	f7fd ff02 	bl	37bc <__aeabi_dmul>
    59b8:	1124      	asrs	r4, r4, #4
    59ba:	0006      	movs	r6, r0
    59bc:	000f      	movs	r7, r1
    59be:	2c00      	cmp	r4, #0
    59c0:	d100      	bne.n	59c4 <_dtoa_r+0xcac>
    59c2:	e149      	b.n	5c58 <_dtoa_r+0xf40>
    59c4:	2302      	movs	r3, #2
    59c6:	4698      	mov	r8, r3
    59c8:	4d1f      	ldr	r5, [pc, #124]	; (5a48 <_dtoa_r+0xd30>)
    59ca:	2301      	movs	r3, #1
    59cc:	4223      	tst	r3, r4
    59ce:	d009      	beq.n	59e4 <_dtoa_r+0xccc>
    59d0:	469c      	mov	ip, r3
    59d2:	682a      	ldr	r2, [r5, #0]
    59d4:	686b      	ldr	r3, [r5, #4]
    59d6:	0030      	movs	r0, r6
    59d8:	0039      	movs	r1, r7
    59da:	44e0      	add	r8, ip
    59dc:	f7fd feee 	bl	37bc <__aeabi_dmul>
    59e0:	0006      	movs	r6, r0
    59e2:	000f      	movs	r7, r1
    59e4:	1064      	asrs	r4, r4, #1
    59e6:	3508      	adds	r5, #8
    59e8:	2c00      	cmp	r4, #0
    59ea:	d1ee      	bne.n	59ca <_dtoa_r+0xcb2>
    59ec:	f7ff fae4 	bl	4fb8 <_dtoa_r+0x2a0>
    59f0:	9b03      	ldr	r3, [sp, #12]
    59f2:	2730      	movs	r7, #48	; 0x30
    59f4:	3301      	adds	r3, #1
    59f6:	9303      	str	r3, [sp, #12]
    59f8:	2330      	movs	r3, #48	; 0x30
    59fa:	702b      	strb	r3, [r5, #0]
    59fc:	e4ac      	b.n	5358 <_dtoa_r+0x640>
    59fe:	6859      	ldr	r1, [r3, #4]
    5a00:	4650      	mov	r0, sl
    5a02:	f000 fdab 	bl	655c <_Balloc>
    5a06:	4643      	mov	r3, r8
    5a08:	4641      	mov	r1, r8
    5a0a:	0004      	movs	r4, r0
    5a0c:	691b      	ldr	r3, [r3, #16]
    5a0e:	310c      	adds	r1, #12
    5a10:	1c9a      	adds	r2, r3, #2
    5a12:	0092      	lsls	r2, r2, #2
    5a14:	300c      	adds	r0, #12
    5a16:	f7fe ff7d 	bl	4914 <memcpy>
    5a1a:	2201      	movs	r2, #1
    5a1c:	0021      	movs	r1, r4
    5a1e:	4650      	mov	r0, sl
    5a20:	f000 ff70 	bl	6904 <__lshift>
    5a24:	900c      	str	r0, [sp, #48]	; 0x30
    5a26:	e599      	b.n	555c <_dtoa_r+0x844>
    5a28:	2300      	movs	r3, #0
    5a2a:	4699      	mov	r9, r3
    5a2c:	4698      	mov	r8, r3
    5a2e:	e70c      	b.n	584a <_dtoa_r+0xb32>
    5a30:	7ff00000 	.word	0x7ff00000
    5a34:	40140000 	.word	0x40140000
    5a38:	00000433 	.word	0x00000433
    5a3c:	401c0000 	.word	0x401c0000
    5a40:	fcc00000 	.word	0xfcc00000
    5a44:	000090a8 	.word	0x000090a8
    5a48:	00009080 	.word	0x00009080
    5a4c:	9b12      	ldr	r3, [sp, #72]	; 0x48
    5a4e:	498f      	ldr	r1, [pc, #572]	; (5c8c <_dtoa_r+0xf74>)
    5a50:	3b01      	subs	r3, #1
    5a52:	00db      	lsls	r3, r3, #3
    5a54:	18c9      	adds	r1, r1, r3
    5a56:	6808      	ldr	r0, [r1, #0]
    5a58:	6849      	ldr	r1, [r1, #4]
    5a5a:	9a08      	ldr	r2, [sp, #32]
    5a5c:	9b09      	ldr	r3, [sp, #36]	; 0x24
    5a5e:	f7fd fead 	bl	37bc <__aeabi_dmul>
    5a62:	9014      	str	r0, [sp, #80]	; 0x50
    5a64:	9115      	str	r1, [sp, #84]	; 0x54
    5a66:	0039      	movs	r1, r7
    5a68:	0030      	movs	r0, r6
    5a6a:	f7fe fc3d 	bl	42e8 <__aeabi_d2iz>
    5a6e:	0005      	movs	r5, r0
    5a70:	f7fe fc6e 	bl	4350 <__aeabi_i2d>
    5a74:	0002      	movs	r2, r0
    5a76:	000b      	movs	r3, r1
    5a78:	0030      	movs	r0, r6
    5a7a:	0039      	movs	r1, r7
    5a7c:	f7fe f91e 	bl	3cbc <__aeabi_dsub>
    5a80:	9b12      	ldr	r3, [sp, #72]	; 0x48
    5a82:	9008      	str	r0, [sp, #32]
    5a84:	9109      	str	r1, [sp, #36]	; 0x24
    5a86:	990a      	ldr	r1, [sp, #40]	; 0x28
    5a88:	001a      	movs	r2, r3
    5a8a:	468c      	mov	ip, r1
    5a8c:	3530      	adds	r5, #48	; 0x30
    5a8e:	4462      	add	r2, ip
    5a90:	1c4c      	adds	r4, r1, #1
    5a92:	700d      	strb	r5, [r1, #0]
    5a94:	4690      	mov	r8, r2
    5a96:	2b01      	cmp	r3, #1
    5a98:	d01b      	beq.n	5ad2 <_dtoa_r+0xdba>
    5a9a:	9808      	ldr	r0, [sp, #32]
    5a9c:	9909      	ldr	r1, [sp, #36]	; 0x24
    5a9e:	0025      	movs	r5, r4
    5aa0:	2200      	movs	r2, #0
    5aa2:	4b7b      	ldr	r3, [pc, #492]	; (5c90 <_dtoa_r+0xf78>)
    5aa4:	f7fd fe8a 	bl	37bc <__aeabi_dmul>
    5aa8:	000f      	movs	r7, r1
    5aaa:	0006      	movs	r6, r0
    5aac:	f7fe fc1c 	bl	42e8 <__aeabi_d2iz>
    5ab0:	0004      	movs	r4, r0
    5ab2:	f7fe fc4d 	bl	4350 <__aeabi_i2d>
    5ab6:	3430      	adds	r4, #48	; 0x30
    5ab8:	0002      	movs	r2, r0
    5aba:	000b      	movs	r3, r1
    5abc:	0030      	movs	r0, r6
    5abe:	0039      	movs	r1, r7
    5ac0:	f7fe f8fc 	bl	3cbc <__aeabi_dsub>
    5ac4:	702c      	strb	r4, [r5, #0]
    5ac6:	3501      	adds	r5, #1
    5ac8:	45a8      	cmp	r8, r5
    5aca:	d1e9      	bne.n	5aa0 <_dtoa_r+0xd88>
    5acc:	4644      	mov	r4, r8
    5ace:	9008      	str	r0, [sp, #32]
    5ad0:	9109      	str	r1, [sp, #36]	; 0x24
    5ad2:	9814      	ldr	r0, [sp, #80]	; 0x50
    5ad4:	9915      	ldr	r1, [sp, #84]	; 0x54
    5ad6:	2200      	movs	r2, #0
    5ad8:	4b6e      	ldr	r3, [pc, #440]	; (5c94 <_dtoa_r+0xf7c>)
    5ada:	f7fd f82b 	bl	2b34 <__aeabi_dadd>
    5ade:	9a08      	ldr	r2, [sp, #32]
    5ae0:	9b09      	ldr	r3, [sp, #36]	; 0x24
    5ae2:	f7fe fda1 	bl	4628 <__aeabi_dcmplt>
    5ae6:	2800      	cmp	r0, #0
    5ae8:	d067      	beq.n	5bba <_dtoa_r+0xea2>
    5aea:	9b13      	ldr	r3, [sp, #76]	; 0x4c
    5aec:	1e65      	subs	r5, r4, #1
    5aee:	9303      	str	r3, [sp, #12]
    5af0:	782f      	ldrb	r7, [r5, #0]
    5af2:	9b0a      	ldr	r3, [sp, #40]	; 0x28
    5af4:	e42e      	b.n	5354 <_dtoa_r+0x63c>
    5af6:	4643      	mov	r3, r8
    5af8:	46b3      	mov	fp, r6
    5afa:	930c      	str	r3, [sp, #48]	; 0x30
    5afc:	9e04      	ldr	r6, [sp, #16]
    5afe:	9b06      	ldr	r3, [sp, #24]
    5b00:	46a8      	mov	r8, r5
    5b02:	4699      	mov	r9, r3
    5b04:	4655      	mov	r5, sl
    5b06:	46ba      	mov	sl, r7
    5b08:	2e39      	cmp	r6, #57	; 0x39
    5b0a:	d04d      	beq.n	5ba8 <_dtoa_r+0xe90>
    5b0c:	9b0c      	ldr	r3, [sp, #48]	; 0x30
    5b0e:	3601      	adds	r6, #1
    5b10:	4647      	mov	r7, r8
    5b12:	1c6c      	adds	r4, r5, #1
    5b14:	702e      	strb	r6, [r5, #0]
    5b16:	4698      	mov	r8, r3
    5b18:	e5f5      	b.n	5706 <_dtoa_r+0x9ee>
    5b1a:	4642      	mov	r2, r8
    5b1c:	9b06      	ldr	r3, [sp, #24]
    5b1e:	46b3      	mov	fp, r6
    5b20:	46ba      	mov	sl, r7
    5b22:	9e04      	ldr	r6, [sp, #16]
    5b24:	4699      	mov	r9, r3
    5b26:	002f      	movs	r7, r5
    5b28:	4690      	mov	r8, r2
    5b2a:	e5d1      	b.n	56d0 <_dtoa_r+0x9b8>
    5b2c:	9b06      	ldr	r3, [sp, #24]
    5b2e:	9a07      	ldr	r2, [sp, #28]
    5b30:	1a9b      	subs	r3, r3, r2
    5b32:	9308      	str	r3, [sp, #32]
    5b34:	2300      	movs	r3, #0
    5b36:	e427      	b.n	5388 <_dtoa_r+0x670>
    5b38:	2401      	movs	r4, #1
    5b3a:	e5c5      	b.n	56c8 <_dtoa_r+0x9b0>
    5b3c:	2336      	movs	r3, #54	; 0x36
    5b3e:	9a16      	ldr	r2, [sp, #88]	; 0x58
    5b40:	464c      	mov	r4, r9
    5b42:	1a9b      	subs	r3, r3, r2
    5b44:	9a06      	ldr	r2, [sp, #24]
    5b46:	9208      	str	r2, [sp, #32]
    5b48:	e41e      	b.n	5388 <_dtoa_r+0x670>
    5b4a:	2302      	movs	r3, #2
    5b4c:	9e10      	ldr	r6, [sp, #64]	; 0x40
    5b4e:	9f11      	ldr	r7, [sp, #68]	; 0x44
    5b50:	4698      	mov	r8, r3
    5b52:	f7ff fa31 	bl	4fb8 <_dtoa_r+0x2a0>
    5b56:	9b07      	ldr	r3, [sp, #28]
    5b58:	2b00      	cmp	r3, #0
    5b5a:	d100      	bne.n	5b5e <_dtoa_r+0xe46>
    5b5c:	e68e      	b.n	587c <_dtoa_r+0xb64>
    5b5e:	9c0e      	ldr	r4, [sp, #56]	; 0x38
    5b60:	2c00      	cmp	r4, #0
    5b62:	dc00      	bgt.n	5b66 <_dtoa_r+0xe4e>
    5b64:	e712      	b.n	598c <_dtoa_r+0xc74>
    5b66:	9b03      	ldr	r3, [sp, #12]
    5b68:	2200      	movs	r2, #0
    5b6a:	3b01      	subs	r3, #1
    5b6c:	9313      	str	r3, [sp, #76]	; 0x4c
    5b6e:	0030      	movs	r0, r6
    5b70:	4b47      	ldr	r3, [pc, #284]	; (5c90 <_dtoa_r+0xf78>)
    5b72:	0039      	movs	r1, r7
    5b74:	f7fd fe22 	bl	37bc <__aeabi_dmul>
    5b78:	0006      	movs	r6, r0
    5b7a:	4640      	mov	r0, r8
    5b7c:	000f      	movs	r7, r1
    5b7e:	3001      	adds	r0, #1
    5b80:	f7fe fbe6 	bl	4350 <__aeabi_i2d>
    5b84:	0032      	movs	r2, r6
    5b86:	003b      	movs	r3, r7
    5b88:	f7fd fe18 	bl	37bc <__aeabi_dmul>
    5b8c:	2200      	movs	r2, #0
    5b8e:	4b42      	ldr	r3, [pc, #264]	; (5c98 <_dtoa_r+0xf80>)
    5b90:	f7fc ffd0 	bl	2b34 <__aeabi_dadd>
    5b94:	4a41      	ldr	r2, [pc, #260]	; (5c9c <_dtoa_r+0xf84>)
    5b96:	000b      	movs	r3, r1
    5b98:	4694      	mov	ip, r2
    5b9a:	4463      	add	r3, ip
    5b9c:	9008      	str	r0, [sp, #32]
    5b9e:	9109      	str	r1, [sp, #36]	; 0x24
    5ba0:	9412      	str	r4, [sp, #72]	; 0x48
    5ba2:	9309      	str	r3, [sp, #36]	; 0x24
    5ba4:	f7ff fa30 	bl	5008 <_dtoa_r+0x2f0>
    5ba8:	2339      	movs	r3, #57	; 0x39
    5baa:	702b      	strb	r3, [r5, #0]
    5bac:	9b0c      	ldr	r3, [sp, #48]	; 0x30
    5bae:	4647      	mov	r7, r8
    5bb0:	1c6c      	adds	r4, r5, #1
    5bb2:	4698      	mov	r8, r3
    5bb4:	9a0a      	ldr	r2, [sp, #40]	; 0x28
    5bb6:	2339      	movs	r3, #57	; 0x39
    5bb8:	e5a1      	b.n	56fe <_dtoa_r+0x9e6>
    5bba:	9a14      	ldr	r2, [sp, #80]	; 0x50
    5bbc:	9b15      	ldr	r3, [sp, #84]	; 0x54
    5bbe:	2000      	movs	r0, #0
    5bc0:	4934      	ldr	r1, [pc, #208]	; (5c94 <_dtoa_r+0xf7c>)
    5bc2:	f7fe f87b 	bl	3cbc <__aeabi_dsub>
    5bc6:	9a08      	ldr	r2, [sp, #32]
    5bc8:	9b09      	ldr	r3, [sp, #36]	; 0x24
    5bca:	f7fe fd41 	bl	4650 <__aeabi_dcmpgt>
    5bce:	2800      	cmp	r0, #0
    5bd0:	d101      	bne.n	5bd6 <_dtoa_r+0xebe>
    5bd2:	e6db      	b.n	598c <_dtoa_r+0xc74>
    5bd4:	001c      	movs	r4, r3
    5bd6:	1e63      	subs	r3, r4, #1
    5bd8:	781a      	ldrb	r2, [r3, #0]
    5bda:	2a30      	cmp	r2, #48	; 0x30
    5bdc:	d0fa      	beq.n	5bd4 <_dtoa_r+0xebc>
    5bde:	f7ff fac8 	bl	5172 <_dtoa_r+0x45a>
    5be2:	4643      	mov	r3, r8
    5be4:	46b3      	mov	fp, r6
    5be6:	930c      	str	r3, [sp, #48]	; 0x30
    5be8:	9e04      	ldr	r6, [sp, #16]
    5bea:	9b06      	ldr	r3, [sp, #24]
    5bec:	46a8      	mov	r8, r5
    5bee:	4699      	mov	r9, r3
    5bf0:	4655      	mov	r5, sl
    5bf2:	46ba      	mov	sl, r7
    5bf4:	2e39      	cmp	r6, #57	; 0x39
    5bf6:	d0d7      	beq.n	5ba8 <_dtoa_r+0xe90>
    5bf8:	2c00      	cmp	r4, #0
    5bfa:	dd00      	ble.n	5bfe <_dtoa_r+0xee6>
    5bfc:	e6b1      	b.n	5962 <_dtoa_r+0xc4a>
    5bfe:	e6b2      	b.n	5966 <_dtoa_r+0xc4e>
    5c00:	9a13      	ldr	r2, [sp, #76]	; 0x4c
    5c02:	464d      	mov	r5, r9
    5c04:	9203      	str	r2, [sp, #12]
    5c06:	9b0a      	ldr	r3, [sp, #40]	; 0x28
    5c08:	f7ff fba4 	bl	5354 <_dtoa_r+0x63c>
    5c0c:	2800      	cmp	r0, #0
    5c0e:	d000      	beq.n	5c12 <_dtoa_r+0xefa>
    5c10:	e6a9      	b.n	5966 <_dtoa_r+0xc4e>
    5c12:	07f3      	lsls	r3, r6, #31
    5c14:	d400      	bmi.n	5c18 <_dtoa_r+0xf00>
    5c16:	e6a6      	b.n	5966 <_dtoa_r+0xc4e>
    5c18:	e6a0      	b.n	595c <_dtoa_r+0xc44>
    5c1a:	2300      	movs	r3, #0
    5c1c:	4641      	mov	r1, r8
    5c1e:	220a      	movs	r2, #10
    5c20:	4650      	mov	r0, sl
    5c22:	f000 fccd 	bl	65c0 <__multadd>
    5c26:	9b0e      	ldr	r3, [sp, #56]	; 0x38
    5c28:	4680      	mov	r8, r0
    5c2a:	2b00      	cmp	r3, #0
    5c2c:	dd01      	ble.n	5c32 <_dtoa_r+0xf1a>
    5c2e:	9307      	str	r3, [sp, #28]
    5c30:	e486      	b.n	5540 <_dtoa_r+0x828>
    5c32:	9b22      	ldr	r3, [sp, #136]	; 0x88
    5c34:	2b02      	cmp	r3, #2
    5c36:	dc1f      	bgt.n	5c78 <_dtoa_r+0xf60>
    5c38:	9b0e      	ldr	r3, [sp, #56]	; 0x38
    5c3a:	9307      	str	r3, [sp, #28]
    5c3c:	e480      	b.n	5540 <_dtoa_r+0x828>
    5c3e:	9b22      	ldr	r3, [sp, #136]	; 0x88
    5c40:	2b02      	cmp	r3, #2
    5c42:	dc19      	bgt.n	5c78 <_dtoa_r+0xf60>
    5c44:	4649      	mov	r1, r9
    5c46:	f7fe ffbd 	bl	4bc4 <quorem>
    5c4a:	9b0a      	ldr	r3, [sp, #40]	; 0x28
    5c4c:	3030      	adds	r0, #48	; 0x30
    5c4e:	7018      	strb	r0, [r3, #0]
    5c50:	9b0e      	ldr	r3, [sp, #56]	; 0x38
    5c52:	0006      	movs	r6, r0
    5c54:	9307      	str	r3, [sp, #28]
    5c56:	e533      	b.n	56c0 <_dtoa_r+0x9a8>
    5c58:	2302      	movs	r3, #2
    5c5a:	4698      	mov	r8, r3
    5c5c:	f7ff f9ac 	bl	4fb8 <_dtoa_r+0x2a0>
    5c60:	9b13      	ldr	r3, [sp, #76]	; 0x4c
    5c62:	9c14      	ldr	r4, [sp, #80]	; 0x50
    5c64:	9303      	str	r3, [sp, #12]
    5c66:	9b0a      	ldr	r3, [sp, #40]	; 0x28
    5c68:	001d      	movs	r5, r3
    5c6a:	f7ff fb73 	bl	5354 <_dtoa_r+0x63c>
    5c6e:	9b13      	ldr	r3, [sp, #76]	; 0x4c
    5c70:	9c14      	ldr	r4, [sp, #80]	; 0x50
    5c72:	9303      	str	r3, [sp, #12]
    5c74:	f7ff fa7f 	bl	5176 <_dtoa_r+0x45e>
    5c78:	9b0e      	ldr	r3, [sp, #56]	; 0x38
    5c7a:	9307      	str	r3, [sp, #28]
    5c7c:	e5d6      	b.n	582c <_dtoa_r+0xb14>
    5c7e:	2b04      	cmp	r3, #4
    5c80:	d100      	bne.n	5c84 <_dtoa_r+0xf6c>
    5c82:	e43f      	b.n	5504 <_dtoa_r+0x7ec>
    5c84:	233c      	movs	r3, #60	; 0x3c
    5c86:	1a18      	subs	r0, r3, r0
    5c88:	e4d7      	b.n	563a <_dtoa_r+0x922>
    5c8a:	46c0      	nop			; (mov r8, r8)
    5c8c:	000090a8 	.word	0x000090a8
    5c90:	40240000 	.word	0x40240000
    5c94:	3fe00000 	.word	0x3fe00000
    5c98:	401c0000 	.word	0x401c0000
    5c9c:	fcc00000 	.word	0xfcc00000

00005ca0 <__libc_fini_array>:
    5ca0:	b570      	push	{r4, r5, r6, lr}
    5ca2:	4b09      	ldr	r3, [pc, #36]	; (5cc8 <__libc_fini_array+0x28>)
    5ca4:	4c09      	ldr	r4, [pc, #36]	; (5ccc <__libc_fini_array+0x2c>)
    5ca6:	1ae4      	subs	r4, r4, r3
    5ca8:	10a4      	asrs	r4, r4, #2
    5caa:	d009      	beq.n	5cc0 <__libc_fini_array+0x20>
    5cac:	4a08      	ldr	r2, [pc, #32]	; (5cd0 <__libc_fini_array+0x30>)
    5cae:	18a5      	adds	r5, r4, r2
    5cb0:	00ad      	lsls	r5, r5, #2
    5cb2:	18ed      	adds	r5, r5, r3
    5cb4:	682b      	ldr	r3, [r5, #0]
    5cb6:	3c01      	subs	r4, #1
    5cb8:	4798      	blx	r3
    5cba:	3d04      	subs	r5, #4
    5cbc:	2c00      	cmp	r4, #0
    5cbe:	d1f9      	bne.n	5cb4 <__libc_fini_array+0x14>
    5cc0:	f003 fbd2 	bl	9468 <_fini>
    5cc4:	bd70      	pop	{r4, r5, r6, pc}
    5cc6:	46c0      	nop			; (mov r8, r8)
    5cc8:	00009474 	.word	0x00009474
    5ccc:	00009478 	.word	0x00009478
    5cd0:	3fffffff 	.word	0x3fffffff

00005cd4 <_malloc_trim_r>:
    5cd4:	b5f8      	push	{r3, r4, r5, r6, r7, lr}
    5cd6:	000c      	movs	r4, r1
    5cd8:	0006      	movs	r6, r0
    5cda:	f000 fc2f 	bl	653c <__malloc_lock>
    5cde:	4f20      	ldr	r7, [pc, #128]	; (5d60 <_malloc_trim_r+0x8c>)
    5ce0:	68bb      	ldr	r3, [r7, #8]
    5ce2:	685d      	ldr	r5, [r3, #4]
    5ce4:	2303      	movs	r3, #3
    5ce6:	439d      	bics	r5, r3
    5ce8:	4b1e      	ldr	r3, [pc, #120]	; (5d64 <_malloc_trim_r+0x90>)
    5cea:	1b2c      	subs	r4, r5, r4
    5cec:	469c      	mov	ip, r3
    5cee:	4464      	add	r4, ip
    5cf0:	0b24      	lsrs	r4, r4, #12
    5cf2:	4b1d      	ldr	r3, [pc, #116]	; (5d68 <_malloc_trim_r+0x94>)
    5cf4:	3c01      	subs	r4, #1
    5cf6:	0324      	lsls	r4, r4, #12
    5cf8:	429c      	cmp	r4, r3
    5cfa:	dd07      	ble.n	5d0c <_malloc_trim_r+0x38>
    5cfc:	2100      	movs	r1, #0
    5cfe:	0030      	movs	r0, r6
    5d00:	f000 ff74 	bl	6bec <_sbrk_r>
    5d04:	68bb      	ldr	r3, [r7, #8]
    5d06:	195b      	adds	r3, r3, r5
    5d08:	4298      	cmp	r0, r3
    5d0a:	d004      	beq.n	5d16 <_malloc_trim_r+0x42>
    5d0c:	0030      	movs	r0, r6
    5d0e:	f000 fc1d 	bl	654c <__malloc_unlock>
    5d12:	2000      	movs	r0, #0
    5d14:	bdf8      	pop	{r3, r4, r5, r6, r7, pc}
    5d16:	4261      	negs	r1, r4
    5d18:	0030      	movs	r0, r6
    5d1a:	f000 ff67 	bl	6bec <_sbrk_r>
    5d1e:	1c43      	adds	r3, r0, #1
    5d20:	d00d      	beq.n	5d3e <_malloc_trim_r+0x6a>
    5d22:	2201      	movs	r2, #1
    5d24:	68bb      	ldr	r3, [r7, #8]
    5d26:	1b2d      	subs	r5, r5, r4
    5d28:	4315      	orrs	r5, r2
    5d2a:	605d      	str	r5, [r3, #4]
    5d2c:	4b0f      	ldr	r3, [pc, #60]	; (5d6c <_malloc_trim_r+0x98>)
    5d2e:	0030      	movs	r0, r6
    5d30:	681a      	ldr	r2, [r3, #0]
    5d32:	1b14      	subs	r4, r2, r4
    5d34:	601c      	str	r4, [r3, #0]
    5d36:	f000 fc09 	bl	654c <__malloc_unlock>
    5d3a:	2001      	movs	r0, #1
    5d3c:	e7ea      	b.n	5d14 <_malloc_trim_r+0x40>
    5d3e:	2100      	movs	r1, #0
    5d40:	0030      	movs	r0, r6
    5d42:	f000 ff53 	bl	6bec <_sbrk_r>
    5d46:	68ba      	ldr	r2, [r7, #8]
    5d48:	1a83      	subs	r3, r0, r2
    5d4a:	2b0f      	cmp	r3, #15
    5d4c:	ddde      	ble.n	5d0c <_malloc_trim_r+0x38>
    5d4e:	4908      	ldr	r1, [pc, #32]	; (5d70 <_malloc_trim_r+0x9c>)
    5d50:	6809      	ldr	r1, [r1, #0]
    5d52:	1a40      	subs	r0, r0, r1
    5d54:	4905      	ldr	r1, [pc, #20]	; (5d6c <_malloc_trim_r+0x98>)
    5d56:	6008      	str	r0, [r1, #0]
    5d58:	2101      	movs	r1, #1
    5d5a:	430b      	orrs	r3, r1
    5d5c:	6053      	str	r3, [r2, #4]
    5d5e:	e7d5      	b.n	5d0c <_malloc_trim_r+0x38>
    5d60:	20000434 	.word	0x20000434
    5d64:	00000fef 	.word	0x00000fef
    5d68:	00000fff 	.word	0x00000fff
    5d6c:	20000a08 	.word	0x20000a08
    5d70:	2000083c 	.word	0x2000083c

00005d74 <_free_r>:
    5d74:	b5f8      	push	{r3, r4, r5, r6, r7, lr}
    5d76:	0004      	movs	r4, r0
    5d78:	1e0d      	subs	r5, r1, #0
    5d7a:	d03c      	beq.n	5df6 <_free_r+0x82>
    5d7c:	f000 fbde 	bl	653c <__malloc_lock>
    5d80:	0029      	movs	r1, r5
    5d82:	3908      	subs	r1, #8
    5d84:	6848      	ldr	r0, [r1, #4]
    5d86:	2301      	movs	r3, #1
    5d88:	0005      	movs	r5, r0
    5d8a:	2603      	movs	r6, #3
    5d8c:	439d      	bics	r5, r3
    5d8e:	194a      	adds	r2, r1, r5
    5d90:	469c      	mov	ip, r3
    5d92:	4f61      	ldr	r7, [pc, #388]	; (5f18 <_free_r+0x1a4>)
    5d94:	6853      	ldr	r3, [r2, #4]
    5d96:	43b3      	bics	r3, r6
    5d98:	68be      	ldr	r6, [r7, #8]
    5d9a:	42b2      	cmp	r2, r6
    5d9c:	d056      	beq.n	5e4c <_free_r+0xd8>
    5d9e:	4666      	mov	r6, ip
    5da0:	6053      	str	r3, [r2, #4]
    5da2:	4206      	tst	r6, r0
    5da4:	d10a      	bne.n	5dbc <_free_r+0x48>
    5da6:	003e      	movs	r6, r7
    5da8:	6808      	ldr	r0, [r1, #0]
    5daa:	3608      	adds	r6, #8
    5dac:	1a09      	subs	r1, r1, r0
    5dae:	182d      	adds	r5, r5, r0
    5db0:	6888      	ldr	r0, [r1, #8]
    5db2:	42b0      	cmp	r0, r6
    5db4:	d065      	beq.n	5e82 <_free_r+0x10e>
    5db6:	68ce      	ldr	r6, [r1, #12]
    5db8:	60c6      	str	r6, [r0, #12]
    5dba:	60b0      	str	r0, [r6, #8]
    5dbc:	2001      	movs	r0, #1
    5dbe:	18d6      	adds	r6, r2, r3
    5dc0:	6876      	ldr	r6, [r6, #4]
    5dc2:	4206      	tst	r6, r0
    5dc4:	d033      	beq.n	5e2e <_free_r+0xba>
    5dc6:	4b55      	ldr	r3, [pc, #340]	; (5f1c <_free_r+0x1a8>)
    5dc8:	4328      	orrs	r0, r5
    5dca:	6048      	str	r0, [r1, #4]
    5dcc:	514d      	str	r5, [r1, r5]
    5dce:	429d      	cmp	r5, r3
    5dd0:	d812      	bhi.n	5df8 <_free_r+0x84>
    5dd2:	08ed      	lsrs	r5, r5, #3
    5dd4:	3bff      	subs	r3, #255	; 0xff
    5dd6:	10aa      	asrs	r2, r5, #2
    5dd8:	3bff      	subs	r3, #255	; 0xff
    5dda:	4093      	lsls	r3, r2
    5ddc:	687a      	ldr	r2, [r7, #4]
    5dde:	00ed      	lsls	r5, r5, #3
    5de0:	4313      	orrs	r3, r2
    5de2:	607b      	str	r3, [r7, #4]
    5de4:	19ef      	adds	r7, r5, r7
    5de6:	68bb      	ldr	r3, [r7, #8]
    5de8:	60cf      	str	r7, [r1, #12]
    5dea:	608b      	str	r3, [r1, #8]
    5dec:	60b9      	str	r1, [r7, #8]
    5dee:	60d9      	str	r1, [r3, #12]
    5df0:	0020      	movs	r0, r4
    5df2:	f000 fbab 	bl	654c <__malloc_unlock>
    5df6:	bdf8      	pop	{r3, r4, r5, r6, r7, pc}
    5df8:	0a68      	lsrs	r0, r5, #9
    5dfa:	2804      	cmp	r0, #4
    5dfc:	d850      	bhi.n	5ea0 <_free_r+0x12c>
    5dfe:	09a8      	lsrs	r0, r5, #6
    5e00:	0002      	movs	r2, r0
    5e02:	3039      	adds	r0, #57	; 0x39
    5e04:	3238      	adds	r2, #56	; 0x38
    5e06:	00c0      	lsls	r0, r0, #3
    5e08:	1838      	adds	r0, r7, r0
    5e0a:	3808      	subs	r0, #8
    5e0c:	6883      	ldr	r3, [r0, #8]
    5e0e:	2603      	movs	r6, #3
    5e10:	4298      	cmp	r0, r3
    5e12:	d04c      	beq.n	5eae <_free_r+0x13a>
    5e14:	685a      	ldr	r2, [r3, #4]
    5e16:	43b2      	bics	r2, r6
    5e18:	4295      	cmp	r5, r2
    5e1a:	d230      	bcs.n	5e7e <_free_r+0x10a>
    5e1c:	689b      	ldr	r3, [r3, #8]
    5e1e:	4298      	cmp	r0, r3
    5e20:	d1f8      	bne.n	5e14 <_free_r+0xa0>
    5e22:	68c3      	ldr	r3, [r0, #12]
    5e24:	60cb      	str	r3, [r1, #12]
    5e26:	6088      	str	r0, [r1, #8]
    5e28:	6099      	str	r1, [r3, #8]
    5e2a:	60c1      	str	r1, [r0, #12]
    5e2c:	e7e0      	b.n	5df0 <_free_r+0x7c>
    5e2e:	18ed      	adds	r5, r5, r3
    5e30:	4e3b      	ldr	r6, [pc, #236]	; (5f20 <_free_r+0x1ac>)
    5e32:	6893      	ldr	r3, [r2, #8]
    5e34:	42b3      	cmp	r3, r6
    5e36:	d042      	beq.n	5ebe <_free_r+0x14a>
    5e38:	68d2      	ldr	r2, [r2, #12]
    5e3a:	4328      	orrs	r0, r5
    5e3c:	60da      	str	r2, [r3, #12]
    5e3e:	6093      	str	r3, [r2, #8]
    5e40:	4b36      	ldr	r3, [pc, #216]	; (5f1c <_free_r+0x1a8>)
    5e42:	6048      	str	r0, [r1, #4]
    5e44:	514d      	str	r5, [r1, r5]
    5e46:	429d      	cmp	r5, r3
    5e48:	d8d6      	bhi.n	5df8 <_free_r+0x84>
    5e4a:	e7c2      	b.n	5dd2 <_free_r+0x5e>
    5e4c:	4662      	mov	r2, ip
    5e4e:	18eb      	adds	r3, r5, r3
    5e50:	4202      	tst	r2, r0
    5e52:	d106      	bne.n	5e62 <_free_r+0xee>
    5e54:	680a      	ldr	r2, [r1, #0]
    5e56:	1a89      	subs	r1, r1, r2
    5e58:	6888      	ldr	r0, [r1, #8]
    5e5a:	189b      	adds	r3, r3, r2
    5e5c:	68ca      	ldr	r2, [r1, #12]
    5e5e:	60c2      	str	r2, [r0, #12]
    5e60:	6090      	str	r0, [r2, #8]
    5e62:	2201      	movs	r2, #1
    5e64:	431a      	orrs	r2, r3
    5e66:	604a      	str	r2, [r1, #4]
    5e68:	4a2e      	ldr	r2, [pc, #184]	; (5f24 <_free_r+0x1b0>)
    5e6a:	60b9      	str	r1, [r7, #8]
    5e6c:	6812      	ldr	r2, [r2, #0]
    5e6e:	4293      	cmp	r3, r2
    5e70:	d3be      	bcc.n	5df0 <_free_r+0x7c>
    5e72:	4b2d      	ldr	r3, [pc, #180]	; (5f28 <_free_r+0x1b4>)
    5e74:	0020      	movs	r0, r4
    5e76:	6819      	ldr	r1, [r3, #0]
    5e78:	f7ff ff2c 	bl	5cd4 <_malloc_trim_r>
    5e7c:	e7b8      	b.n	5df0 <_free_r+0x7c>
    5e7e:	0018      	movs	r0, r3
    5e80:	e7cf      	b.n	5e22 <_free_r+0xae>
    5e82:	4666      	mov	r6, ip
    5e84:	18d0      	adds	r0, r2, r3
    5e86:	6840      	ldr	r0, [r0, #4]
    5e88:	4230      	tst	r0, r6
    5e8a:	d13f      	bne.n	5f0c <_free_r+0x198>
    5e8c:	6890      	ldr	r0, [r2, #8]
    5e8e:	195d      	adds	r5, r3, r5
    5e90:	68d3      	ldr	r3, [r2, #12]
    5e92:	60c3      	str	r3, [r0, #12]
    5e94:	6098      	str	r0, [r3, #8]
    5e96:	4663      	mov	r3, ip
    5e98:	432b      	orrs	r3, r5
    5e9a:	604b      	str	r3, [r1, #4]
    5e9c:	514d      	str	r5, [r1, r5]
    5e9e:	e7a7      	b.n	5df0 <_free_r+0x7c>
    5ea0:	2814      	cmp	r0, #20
    5ea2:	d814      	bhi.n	5ece <_free_r+0x15a>
    5ea4:	0002      	movs	r2, r0
    5ea6:	305c      	adds	r0, #92	; 0x5c
    5ea8:	325b      	adds	r2, #91	; 0x5b
    5eaa:	00c0      	lsls	r0, r0, #3
    5eac:	e7ac      	b.n	5e08 <_free_r+0x94>
    5eae:	2301      	movs	r3, #1
    5eb0:	1092      	asrs	r2, r2, #2
    5eb2:	4093      	lsls	r3, r2
    5eb4:	687a      	ldr	r2, [r7, #4]
    5eb6:	4313      	orrs	r3, r2
    5eb8:	607b      	str	r3, [r7, #4]
    5eba:	0003      	movs	r3, r0
    5ebc:	e7b2      	b.n	5e24 <_free_r+0xb0>
    5ebe:	4328      	orrs	r0, r5
    5ec0:	60d9      	str	r1, [r3, #12]
    5ec2:	6099      	str	r1, [r3, #8]
    5ec4:	60cb      	str	r3, [r1, #12]
    5ec6:	608b      	str	r3, [r1, #8]
    5ec8:	6048      	str	r0, [r1, #4]
    5eca:	514d      	str	r5, [r1, r5]
    5ecc:	e790      	b.n	5df0 <_free_r+0x7c>
    5ece:	2854      	cmp	r0, #84	; 0x54
    5ed0:	d805      	bhi.n	5ede <_free_r+0x16a>
    5ed2:	0b28      	lsrs	r0, r5, #12
    5ed4:	0002      	movs	r2, r0
    5ed6:	306f      	adds	r0, #111	; 0x6f
    5ed8:	326e      	adds	r2, #110	; 0x6e
    5eda:	00c0      	lsls	r0, r0, #3
    5edc:	e794      	b.n	5e08 <_free_r+0x94>
    5ede:	22aa      	movs	r2, #170	; 0xaa
    5ee0:	0052      	lsls	r2, r2, #1
    5ee2:	4290      	cmp	r0, r2
    5ee4:	d805      	bhi.n	5ef2 <_free_r+0x17e>
    5ee6:	0be8      	lsrs	r0, r5, #15
    5ee8:	0002      	movs	r2, r0
    5eea:	3078      	adds	r0, #120	; 0x78
    5eec:	3277      	adds	r2, #119	; 0x77
    5eee:	00c0      	lsls	r0, r0, #3
    5ef0:	e78a      	b.n	5e08 <_free_r+0x94>
    5ef2:	4a0e      	ldr	r2, [pc, #56]	; (5f2c <_free_r+0x1b8>)
    5ef4:	4290      	cmp	r0, r2
    5ef6:	d805      	bhi.n	5f04 <_free_r+0x190>
    5ef8:	0ca8      	lsrs	r0, r5, #18
    5efa:	0002      	movs	r2, r0
    5efc:	307d      	adds	r0, #125	; 0x7d
    5efe:	327c      	adds	r2, #124	; 0x7c
    5f00:	00c0      	lsls	r0, r0, #3
    5f02:	e781      	b.n	5e08 <_free_r+0x94>
    5f04:	20fe      	movs	r0, #254	; 0xfe
    5f06:	227e      	movs	r2, #126	; 0x7e
    5f08:	0080      	lsls	r0, r0, #2
    5f0a:	e77d      	b.n	5e08 <_free_r+0x94>
    5f0c:	4663      	mov	r3, ip
    5f0e:	432b      	orrs	r3, r5
    5f10:	604b      	str	r3, [r1, #4]
    5f12:	6015      	str	r5, [r2, #0]
    5f14:	e76c      	b.n	5df0 <_free_r+0x7c>
    5f16:	46c0      	nop			; (mov r8, r8)
    5f18:	20000434 	.word	0x20000434
    5f1c:	000001ff 	.word	0x000001ff
    5f20:	2000043c 	.word	0x2000043c
    5f24:	20000840 	.word	0x20000840
    5f28:	20000a38 	.word	0x20000a38
    5f2c:	00000554 	.word	0x00000554

00005f30 <_localeconv_r>:
    5f30:	4b04      	ldr	r3, [pc, #16]	; (5f44 <_localeconv_r+0x14>)
    5f32:	681b      	ldr	r3, [r3, #0]
    5f34:	6b58      	ldr	r0, [r3, #52]	; 0x34
    5f36:	2800      	cmp	r0, #0
    5f38:	d001      	beq.n	5f3e <_localeconv_r+0xe>
    5f3a:	30f0      	adds	r0, #240	; 0xf0
    5f3c:	4770      	bx	lr
    5f3e:	4802      	ldr	r0, [pc, #8]	; (5f48 <_localeconv_r+0x18>)
    5f40:	e7fb      	b.n	5f3a <_localeconv_r+0xa>
    5f42:	46c0      	nop			; (mov r8, r8)
    5f44:	20000000 	.word	0x20000000
    5f48:	20000844 	.word	0x20000844

00005f4c <__retarget_lock_acquire_recursive>:
    5f4c:	4770      	bx	lr
    5f4e:	46c0      	nop			; (mov r8, r8)

00005f50 <__retarget_lock_release_recursive>:
    5f50:	4770      	bx	lr
    5f52:	46c0      	nop			; (mov r8, r8)

00005f54 <_malloc_r>:
    5f54:	b5f0      	push	{r4, r5, r6, r7, lr}
    5f56:	4657      	mov	r7, sl
    5f58:	4645      	mov	r5, r8
    5f5a:	46de      	mov	lr, fp
    5f5c:	464e      	mov	r6, r9
    5f5e:	b5e0      	push	{r5, r6, r7, lr}
    5f60:	000d      	movs	r5, r1
    5f62:	350b      	adds	r5, #11
    5f64:	b083      	sub	sp, #12
    5f66:	0007      	movs	r7, r0
    5f68:	2d16      	cmp	r5, #22
    5f6a:	d800      	bhi.n	5f6e <_malloc_r+0x1a>
    5f6c:	e09f      	b.n	60ae <_malloc_r+0x15a>
    5f6e:	2307      	movs	r3, #7
    5f70:	439d      	bics	r5, r3
    5f72:	d500      	bpl.n	5f76 <_malloc_r+0x22>
    5f74:	e0c4      	b.n	6100 <_malloc_r+0x1ac>
    5f76:	42a9      	cmp	r1, r5
    5f78:	d900      	bls.n	5f7c <_malloc_r+0x28>
    5f7a:	e0c1      	b.n	6100 <_malloc_r+0x1ac>
    5f7c:	f000 fade 	bl	653c <__malloc_lock>
    5f80:	23f8      	movs	r3, #248	; 0xf8
    5f82:	33ff      	adds	r3, #255	; 0xff
    5f84:	429d      	cmp	r5, r3
    5f86:	d800      	bhi.n	5f8a <_malloc_r+0x36>
    5f88:	e28f      	b.n	64aa <_malloc_r+0x556>
    5f8a:	0a68      	lsrs	r0, r5, #9
    5f8c:	d100      	bne.n	5f90 <_malloc_r+0x3c>
    5f8e:	e0bb      	b.n	6108 <_malloc_r+0x1b4>
    5f90:	2804      	cmp	r0, #4
    5f92:	d900      	bls.n	5f96 <_malloc_r+0x42>
    5f94:	e162      	b.n	625c <_malloc_r+0x308>
    5f96:	2338      	movs	r3, #56	; 0x38
    5f98:	4698      	mov	r8, r3
    5f9a:	09a8      	lsrs	r0, r5, #6
    5f9c:	4480      	add	r8, r0
    5f9e:	3039      	adds	r0, #57	; 0x39
    5fa0:	00c1      	lsls	r1, r0, #3
    5fa2:	4ed2      	ldr	r6, [pc, #840]	; (62ec <_malloc_r+0x398>)
    5fa4:	1871      	adds	r1, r6, r1
    5fa6:	3908      	subs	r1, #8
    5fa8:	68cc      	ldr	r4, [r1, #12]
    5faa:	42a1      	cmp	r1, r4
    5fac:	d019      	beq.n	5fe2 <_malloc_r+0x8e>
    5fae:	2303      	movs	r3, #3
    5fb0:	6862      	ldr	r2, [r4, #4]
    5fb2:	439a      	bics	r2, r3
    5fb4:	0013      	movs	r3, r2
    5fb6:	1b52      	subs	r2, r2, r5
    5fb8:	2a0f      	cmp	r2, #15
    5fba:	dd00      	ble.n	5fbe <_malloc_r+0x6a>
    5fbc:	e0aa      	b.n	6114 <_malloc_r+0x1c0>
    5fbe:	2a00      	cmp	r2, #0
    5fc0:	db00      	blt.n	5fc4 <_malloc_r+0x70>
    5fc2:	e088      	b.n	60d6 <_malloc_r+0x182>
    5fc4:	2303      	movs	r3, #3
    5fc6:	469c      	mov	ip, r3
    5fc8:	e008      	b.n	5fdc <_malloc_r+0x88>
    5fca:	4662      	mov	r2, ip
    5fcc:	6863      	ldr	r3, [r4, #4]
    5fce:	4393      	bics	r3, r2
    5fd0:	1b5a      	subs	r2, r3, r5
    5fd2:	2a0f      	cmp	r2, #15
    5fd4:	dd00      	ble.n	5fd8 <_malloc_r+0x84>
    5fd6:	e09d      	b.n	6114 <_malloc_r+0x1c0>
    5fd8:	2a00      	cmp	r2, #0
    5fda:	da7c      	bge.n	60d6 <_malloc_r+0x182>
    5fdc:	68e4      	ldr	r4, [r4, #12]
    5fde:	42a1      	cmp	r1, r4
    5fe0:	d1f3      	bne.n	5fca <_malloc_r+0x76>
    5fe2:	0032      	movs	r2, r6
    5fe4:	6934      	ldr	r4, [r6, #16]
    5fe6:	3208      	adds	r2, #8
    5fe8:	4294      	cmp	r4, r2
    5fea:	d100      	bne.n	5fee <_malloc_r+0x9a>
    5fec:	e190      	b.n	6310 <_malloc_r+0x3bc>
    5fee:	2303      	movs	r3, #3
    5ff0:	6861      	ldr	r1, [r4, #4]
    5ff2:	4399      	bics	r1, r3
    5ff4:	4689      	mov	r9, r1
    5ff6:	1b49      	subs	r1, r1, r5
    5ff8:	290f      	cmp	r1, #15
    5ffa:	dd00      	ble.n	5ffe <_malloc_r+0xaa>
    5ffc:	e162      	b.n	62c4 <_malloc_r+0x370>
    5ffe:	6172      	str	r2, [r6, #20]
    6000:	6132      	str	r2, [r6, #16]
    6002:	2900      	cmp	r1, #0
    6004:	db00      	blt.n	6008 <_malloc_r+0xb4>
    6006:	e087      	b.n	6118 <_malloc_r+0x1c4>
    6008:	4ab9      	ldr	r2, [pc, #740]	; (62f0 <_malloc_r+0x39c>)
    600a:	464b      	mov	r3, r9
    600c:	4591      	cmp	r9, r2
    600e:	d900      	bls.n	6012 <_malloc_r+0xbe>
    6010:	e130      	b.n	6274 <_malloc_r+0x320>
    6012:	08db      	lsrs	r3, r3, #3
    6014:	3aff      	subs	r2, #255	; 0xff
    6016:	1099      	asrs	r1, r3, #2
    6018:	3aff      	subs	r2, #255	; 0xff
    601a:	408a      	lsls	r2, r1
    601c:	00db      	lsls	r3, r3, #3
    601e:	6871      	ldr	r1, [r6, #4]
    6020:	199b      	adds	r3, r3, r6
    6022:	430a      	orrs	r2, r1
    6024:	6899      	ldr	r1, [r3, #8]
    6026:	6072      	str	r2, [r6, #4]
    6028:	60e3      	str	r3, [r4, #12]
    602a:	60a1      	str	r1, [r4, #8]
    602c:	609c      	str	r4, [r3, #8]
    602e:	0013      	movs	r3, r2
    6030:	60cc      	str	r4, [r1, #12]
    6032:	2101      	movs	r1, #1
    6034:	1082      	asrs	r2, r0, #2
    6036:	4091      	lsls	r1, r2
    6038:	4299      	cmp	r1, r3
    603a:	d86f      	bhi.n	611c <_malloc_r+0x1c8>
    603c:	420b      	tst	r3, r1
    603e:	d105      	bne.n	604c <_malloc_r+0xf8>
    6040:	2203      	movs	r2, #3
    6042:	4390      	bics	r0, r2
    6044:	0049      	lsls	r1, r1, #1
    6046:	3004      	adds	r0, #4
    6048:	420b      	tst	r3, r1
    604a:	d0fb      	beq.n	6044 <_malloc_r+0xf0>
    604c:	2303      	movs	r3, #3
    604e:	4698      	mov	r8, r3
    6050:	00c3      	lsls	r3, r0, #3
    6052:	4699      	mov	r9, r3
    6054:	44b1      	add	r9, r6
    6056:	46cc      	mov	ip, r9
    6058:	4682      	mov	sl, r0
    605a:	4663      	mov	r3, ip
    605c:	68dc      	ldr	r4, [r3, #12]
    605e:	45a4      	cmp	ip, r4
    6060:	d107      	bne.n	6072 <_malloc_r+0x11e>
    6062:	e157      	b.n	6314 <_malloc_r+0x3c0>
    6064:	2a00      	cmp	r2, #0
    6066:	db00      	blt.n	606a <_malloc_r+0x116>
    6068:	e166      	b.n	6338 <_malloc_r+0x3e4>
    606a:	68e4      	ldr	r4, [r4, #12]
    606c:	45a4      	cmp	ip, r4
    606e:	d100      	bne.n	6072 <_malloc_r+0x11e>
    6070:	e150      	b.n	6314 <_malloc_r+0x3c0>
    6072:	4642      	mov	r2, r8
    6074:	6863      	ldr	r3, [r4, #4]
    6076:	4393      	bics	r3, r2
    6078:	1b5a      	subs	r2, r3, r5
    607a:	2a0f      	cmp	r2, #15
    607c:	ddf2      	ble.n	6064 <_malloc_r+0x110>
    607e:	2001      	movs	r0, #1
    6080:	4680      	mov	r8, r0
    6082:	1961      	adds	r1, r4, r5
    6084:	4305      	orrs	r5, r0
    6086:	6065      	str	r5, [r4, #4]
    6088:	68a0      	ldr	r0, [r4, #8]
    608a:	68e5      	ldr	r5, [r4, #12]
    608c:	3608      	adds	r6, #8
    608e:	60c5      	str	r5, [r0, #12]
    6090:	60a8      	str	r0, [r5, #8]
    6092:	4640      	mov	r0, r8
    6094:	60f1      	str	r1, [r6, #12]
    6096:	60b1      	str	r1, [r6, #8]
    6098:	4310      	orrs	r0, r2
    609a:	6048      	str	r0, [r1, #4]
    609c:	60ce      	str	r6, [r1, #12]
    609e:	608e      	str	r6, [r1, #8]
    60a0:	0038      	movs	r0, r7
    60a2:	50e2      	str	r2, [r4, r3]
    60a4:	f000 fa52 	bl	654c <__malloc_unlock>
    60a8:	0020      	movs	r0, r4
    60aa:	3008      	adds	r0, #8
    60ac:	e021      	b.n	60f2 <_malloc_r+0x19e>
    60ae:	2910      	cmp	r1, #16
    60b0:	d826      	bhi.n	6100 <_malloc_r+0x1ac>
    60b2:	0038      	movs	r0, r7
    60b4:	f000 fa42 	bl	653c <__malloc_lock>
    60b8:	2510      	movs	r5, #16
    60ba:	2318      	movs	r3, #24
    60bc:	2002      	movs	r0, #2
    60be:	4e8b      	ldr	r6, [pc, #556]	; (62ec <_malloc_r+0x398>)
    60c0:	18f3      	adds	r3, r6, r3
    60c2:	001a      	movs	r2, r3
    60c4:	685c      	ldr	r4, [r3, #4]
    60c6:	3a08      	subs	r2, #8
    60c8:	4294      	cmp	r4, r2
    60ca:	d100      	bne.n	60ce <_malloc_r+0x17a>
    60cc:	e12e      	b.n	632c <_malloc_r+0x3d8>
    60ce:	2303      	movs	r3, #3
    60d0:	6862      	ldr	r2, [r4, #4]
    60d2:	439a      	bics	r2, r3
    60d4:	0013      	movs	r3, r2
    60d6:	68e2      	ldr	r2, [r4, #12]
    60d8:	68a1      	ldr	r1, [r4, #8]
    60da:	60ca      	str	r2, [r1, #12]
    60dc:	6091      	str	r1, [r2, #8]
    60de:	2201      	movs	r2, #1
    60e0:	18e3      	adds	r3, r4, r3
    60e2:	6859      	ldr	r1, [r3, #4]
    60e4:	0038      	movs	r0, r7
    60e6:	430a      	orrs	r2, r1
    60e8:	605a      	str	r2, [r3, #4]
    60ea:	f000 fa2f 	bl	654c <__malloc_unlock>
    60ee:	0020      	movs	r0, r4
    60f0:	3008      	adds	r0, #8
    60f2:	b003      	add	sp, #12
    60f4:	bc3c      	pop	{r2, r3, r4, r5}
    60f6:	4690      	mov	r8, r2
    60f8:	4699      	mov	r9, r3
    60fa:	46a2      	mov	sl, r4
    60fc:	46ab      	mov	fp, r5
    60fe:	bdf0      	pop	{r4, r5, r6, r7, pc}
    6100:	230c      	movs	r3, #12
    6102:	2000      	movs	r0, #0
    6104:	603b      	str	r3, [r7, #0]
    6106:	e7f4      	b.n	60f2 <_malloc_r+0x19e>
    6108:	2180      	movs	r1, #128	; 0x80
    610a:	233f      	movs	r3, #63	; 0x3f
    610c:	2040      	movs	r0, #64	; 0x40
    610e:	0089      	lsls	r1, r1, #2
    6110:	4698      	mov	r8, r3
    6112:	e746      	b.n	5fa2 <_malloc_r+0x4e>
    6114:	4640      	mov	r0, r8
    6116:	e764      	b.n	5fe2 <_malloc_r+0x8e>
    6118:	464b      	mov	r3, r9
    611a:	e7e0      	b.n	60de <_malloc_r+0x18a>
    611c:	2303      	movs	r3, #3
    611e:	68b4      	ldr	r4, [r6, #8]
    6120:	6862      	ldr	r2, [r4, #4]
    6122:	439a      	bics	r2, r3
    6124:	4690      	mov	r8, r2
    6126:	42aa      	cmp	r2, r5
    6128:	d303      	bcc.n	6132 <_malloc_r+0x1de>
    612a:	1b53      	subs	r3, r2, r5
    612c:	2b0f      	cmp	r3, #15
    612e:	dd00      	ble.n	6132 <_malloc_r+0x1de>
    6130:	e086      	b.n	6240 <_malloc_r+0x2ec>
    6132:	0023      	movs	r3, r4
    6134:	4443      	add	r3, r8
    6136:	4a6f      	ldr	r2, [pc, #444]	; (62f4 <_malloc_r+0x3a0>)
    6138:	9301      	str	r3, [sp, #4]
    613a:	4b6f      	ldr	r3, [pc, #444]	; (62f8 <_malloc_r+0x3a4>)
    613c:	4693      	mov	fp, r2
    613e:	681b      	ldr	r3, [r3, #0]
    6140:	6812      	ldr	r2, [r2, #0]
    6142:	18eb      	adds	r3, r5, r3
    6144:	3201      	adds	r2, #1
    6146:	d100      	bne.n	614a <_malloc_r+0x1f6>
    6148:	e168      	b.n	641c <_malloc_r+0x4c8>
    614a:	4a6c      	ldr	r2, [pc, #432]	; (62fc <_malloc_r+0x3a8>)
    614c:	4694      	mov	ip, r2
    614e:	4463      	add	r3, ip
    6150:	0b1b      	lsrs	r3, r3, #12
    6152:	031b      	lsls	r3, r3, #12
    6154:	9300      	str	r3, [sp, #0]
    6156:	9900      	ldr	r1, [sp, #0]
    6158:	0038      	movs	r0, r7
    615a:	f000 fd47 	bl	6bec <_sbrk_r>
    615e:	0003      	movs	r3, r0
    6160:	4681      	mov	r9, r0
    6162:	3301      	adds	r3, #1
    6164:	d061      	beq.n	622a <_malloc_r+0x2d6>
    6166:	9b01      	ldr	r3, [sp, #4]
    6168:	4283      	cmp	r3, r0
    616a:	d900      	bls.n	616e <_malloc_r+0x21a>
    616c:	e0ff      	b.n	636e <_malloc_r+0x41a>
    616e:	4b64      	ldr	r3, [pc, #400]	; (6300 <_malloc_r+0x3ac>)
    6170:	9a00      	ldr	r2, [sp, #0]
    6172:	469a      	mov	sl, r3
    6174:	681b      	ldr	r3, [r3, #0]
    6176:	469c      	mov	ip, r3
    6178:	4653      	mov	r3, sl
    617a:	4462      	add	r2, ip
    617c:	601a      	str	r2, [r3, #0]
    617e:	9b01      	ldr	r3, [sp, #4]
    6180:	0011      	movs	r1, r2
    6182:	4283      	cmp	r3, r0
    6184:	d100      	bne.n	6188 <_malloc_r+0x234>
    6186:	e155      	b.n	6434 <_malloc_r+0x4e0>
    6188:	465b      	mov	r3, fp
    618a:	681b      	ldr	r3, [r3, #0]
    618c:	3301      	adds	r3, #1
    618e:	d100      	bne.n	6192 <_malloc_r+0x23e>
    6190:	e16c      	b.n	646c <_malloc_r+0x518>
    6192:	464b      	mov	r3, r9
    6194:	9a01      	ldr	r2, [sp, #4]
    6196:	1a9b      	subs	r3, r3, r2
    6198:	1859      	adds	r1, r3, r1
    619a:	4653      	mov	r3, sl
    619c:	6019      	str	r1, [r3, #0]
    619e:	2307      	movs	r3, #7
    61a0:	464a      	mov	r2, r9
    61a2:	4013      	ands	r3, r2
    61a4:	d100      	bne.n	61a8 <_malloc_r+0x254>
    61a6:	e124      	b.n	63f2 <_malloc_r+0x49e>
    61a8:	2108      	movs	r1, #8
    61aa:	4689      	mov	r9, r1
    61ac:	4955      	ldr	r1, [pc, #340]	; (6304 <_malloc_r+0x3b0>)
    61ae:	1ad2      	subs	r2, r2, r3
    61b0:	4491      	add	r9, r2
    61b2:	1acb      	subs	r3, r1, r3
    61b4:	9a00      	ldr	r2, [sp, #0]
    61b6:	0038      	movs	r0, r7
    61b8:	444a      	add	r2, r9
    61ba:	0511      	lsls	r1, r2, #20
    61bc:	0d09      	lsrs	r1, r1, #20
    61be:	1a5b      	subs	r3, r3, r1
    61c0:	0019      	movs	r1, r3
    61c2:	469b      	mov	fp, r3
    61c4:	f000 fd12 	bl	6bec <_sbrk_r>
    61c8:	1c43      	adds	r3, r0, #1
    61ca:	d100      	bne.n	61ce <_malloc_r+0x27a>
    61cc:	e142      	b.n	6454 <_malloc_r+0x500>
    61ce:	464b      	mov	r3, r9
    61d0:	1ac0      	subs	r0, r0, r3
    61d2:	2301      	movs	r3, #1
    61d4:	4458      	add	r0, fp
    61d6:	4318      	orrs	r0, r3
    61d8:	4653      	mov	r3, sl
    61da:	681b      	ldr	r3, [r3, #0]
    61dc:	445b      	add	r3, fp
    61de:	0019      	movs	r1, r3
    61e0:	4653      	mov	r3, sl
    61e2:	6019      	str	r1, [r3, #0]
    61e4:	464b      	mov	r3, r9
    61e6:	60b3      	str	r3, [r6, #8]
    61e8:	6058      	str	r0, [r3, #4]
    61ea:	42b4      	cmp	r4, r6
    61ec:	d013      	beq.n	6216 <_malloc_r+0x2c2>
    61ee:	4643      	mov	r3, r8
    61f0:	2b0f      	cmp	r3, #15
    61f2:	d800      	bhi.n	61f6 <_malloc_r+0x2a2>
    61f4:	e0e8      	b.n	63c8 <_malloc_r+0x474>
    61f6:	4643      	mov	r3, r8
    61f8:	2207      	movs	r2, #7
    61fa:	6860      	ldr	r0, [r4, #4]
    61fc:	3b0c      	subs	r3, #12
    61fe:	4393      	bics	r3, r2
    6200:	3a06      	subs	r2, #6
    6202:	4002      	ands	r2, r0
    6204:	2005      	movs	r0, #5
    6206:	431a      	orrs	r2, r3
    6208:	6062      	str	r2, [r4, #4]
    620a:	18e2      	adds	r2, r4, r3
    620c:	6050      	str	r0, [r2, #4]
    620e:	6090      	str	r0, [r2, #8]
    6210:	2b0f      	cmp	r3, #15
    6212:	d900      	bls.n	6216 <_malloc_r+0x2c2>
    6214:	e122      	b.n	645c <_malloc_r+0x508>
    6216:	4b3c      	ldr	r3, [pc, #240]	; (6308 <_malloc_r+0x3b4>)
    6218:	681a      	ldr	r2, [r3, #0]
    621a:	4291      	cmp	r1, r2
    621c:	d900      	bls.n	6220 <_malloc_r+0x2cc>
    621e:	6019      	str	r1, [r3, #0]
    6220:	4b3a      	ldr	r3, [pc, #232]	; (630c <_malloc_r+0x3b8>)
    6222:	681a      	ldr	r2, [r3, #0]
    6224:	4291      	cmp	r1, r2
    6226:	d900      	bls.n	622a <_malloc_r+0x2d6>
    6228:	6019      	str	r1, [r3, #0]
    622a:	2303      	movs	r3, #3
    622c:	68b4      	ldr	r4, [r6, #8]
    622e:	6862      	ldr	r2, [r4, #4]
    6230:	439a      	bics	r2, r3
    6232:	1b53      	subs	r3, r2, r5
    6234:	4295      	cmp	r5, r2
    6236:	d900      	bls.n	623a <_malloc_r+0x2e6>
    6238:	e0c9      	b.n	63ce <_malloc_r+0x47a>
    623a:	2b0f      	cmp	r3, #15
    623c:	dc00      	bgt.n	6240 <_malloc_r+0x2ec>
    623e:	e0c6      	b.n	63ce <_malloc_r+0x47a>
    6240:	2201      	movs	r2, #1
    6242:	0029      	movs	r1, r5
    6244:	4313      	orrs	r3, r2
    6246:	4311      	orrs	r1, r2
    6248:	1965      	adds	r5, r4, r5
    624a:	6061      	str	r1, [r4, #4]
    624c:	0038      	movs	r0, r7
    624e:	60b5      	str	r5, [r6, #8]
    6250:	606b      	str	r3, [r5, #4]
    6252:	f000 f97b 	bl	654c <__malloc_unlock>
    6256:	0020      	movs	r0, r4
    6258:	3008      	adds	r0, #8
    625a:	e74a      	b.n	60f2 <_malloc_r+0x19e>
    625c:	2814      	cmp	r0, #20
    625e:	d97a      	bls.n	6356 <_malloc_r+0x402>
    6260:	2854      	cmp	r0, #84	; 0x54
    6262:	d900      	bls.n	6266 <_malloc_r+0x312>
    6264:	e0ba      	b.n	63dc <_malloc_r+0x488>
    6266:	236e      	movs	r3, #110	; 0x6e
    6268:	4698      	mov	r8, r3
    626a:	0b28      	lsrs	r0, r5, #12
    626c:	4480      	add	r8, r0
    626e:	306f      	adds	r0, #111	; 0x6f
    6270:	00c1      	lsls	r1, r0, #3
    6272:	e696      	b.n	5fa2 <_malloc_r+0x4e>
    6274:	0a5a      	lsrs	r2, r3, #9
    6276:	2a04      	cmp	r2, #4
    6278:	d973      	bls.n	6362 <_malloc_r+0x40e>
    627a:	2a14      	cmp	r2, #20
    627c:	d900      	bls.n	6280 <_malloc_r+0x32c>
    627e:	e0d0      	b.n	6422 <_malloc_r+0x4ce>
    6280:	0011      	movs	r1, r2
    6282:	325c      	adds	r2, #92	; 0x5c
    6284:	315b      	adds	r1, #91	; 0x5b
    6286:	00d2      	lsls	r2, r2, #3
    6288:	2308      	movs	r3, #8
    628a:	425b      	negs	r3, r3
    628c:	469c      	mov	ip, r3
    628e:	18b2      	adds	r2, r6, r2
    6290:	4494      	add	ip, r2
    6292:	4663      	mov	r3, ip
    6294:	689a      	ldr	r2, [r3, #8]
    6296:	2303      	movs	r3, #3
    6298:	4698      	mov	r8, r3
    629a:	4594      	cmp	ip, r2
    629c:	d100      	bne.n	62a0 <_malloc_r+0x34c>
    629e:	e0ab      	b.n	63f8 <_malloc_r+0x4a4>
    62a0:	4643      	mov	r3, r8
    62a2:	6851      	ldr	r1, [r2, #4]
    62a4:	4399      	bics	r1, r3
    62a6:	4589      	cmp	r9, r1
    62a8:	d300      	bcc.n	62ac <_malloc_r+0x358>
    62aa:	e095      	b.n	63d8 <_malloc_r+0x484>
    62ac:	6892      	ldr	r2, [r2, #8]
    62ae:	4594      	cmp	ip, r2
    62b0:	d1f6      	bne.n	62a0 <_malloc_r+0x34c>
    62b2:	4663      	mov	r3, ip
    62b4:	68da      	ldr	r2, [r3, #12]
    62b6:	6873      	ldr	r3, [r6, #4]
    62b8:	4661      	mov	r1, ip
    62ba:	60e2      	str	r2, [r4, #12]
    62bc:	60a1      	str	r1, [r4, #8]
    62be:	6094      	str	r4, [r2, #8]
    62c0:	60cc      	str	r4, [r1, #12]
    62c2:	e6b6      	b.n	6032 <_malloc_r+0xde>
    62c4:	2301      	movs	r3, #1
    62c6:	1960      	adds	r0, r4, r5
    62c8:	431d      	orrs	r5, r3
    62ca:	6065      	str	r5, [r4, #4]
    62cc:	6170      	str	r0, [r6, #20]
    62ce:	6130      	str	r0, [r6, #16]
    62d0:	60c2      	str	r2, [r0, #12]
    62d2:	6082      	str	r2, [r0, #8]
    62d4:	001a      	movs	r2, r3
    62d6:	464b      	mov	r3, r9
    62d8:	430a      	orrs	r2, r1
    62da:	6042      	str	r2, [r0, #4]
    62dc:	0038      	movs	r0, r7
    62de:	50e1      	str	r1, [r4, r3]
    62e0:	f000 f934 	bl	654c <__malloc_unlock>
    62e4:	0020      	movs	r0, r4
    62e6:	3008      	adds	r0, #8
    62e8:	e703      	b.n	60f2 <_malloc_r+0x19e>
    62ea:	46c0      	nop			; (mov r8, r8)
    62ec:	20000434 	.word	0x20000434
    62f0:	000001ff 	.word	0x000001ff
    62f4:	2000083c 	.word	0x2000083c
    62f8:	20000a38 	.word	0x20000a38
    62fc:	0000100f 	.word	0x0000100f
    6300:	20000a08 	.word	0x20000a08
    6304:	00001008 	.word	0x00001008
    6308:	20000a30 	.word	0x20000a30
    630c:	20000a34 	.word	0x20000a34
    6310:	6873      	ldr	r3, [r6, #4]
    6312:	e68e      	b.n	6032 <_malloc_r+0xde>
    6314:	2308      	movs	r3, #8
    6316:	469b      	mov	fp, r3
    6318:	3b07      	subs	r3, #7
    631a:	44dc      	add	ip, fp
    631c:	469b      	mov	fp, r3
    631e:	44da      	add	sl, fp
    6320:	4643      	mov	r3, r8
    6322:	4652      	mov	r2, sl
    6324:	4213      	tst	r3, r2
    6326:	d000      	beq.n	632a <_malloc_r+0x3d6>
    6328:	e697      	b.n	605a <_malloc_r+0x106>
    632a:	e037      	b.n	639c <_malloc_r+0x448>
    632c:	68dc      	ldr	r4, [r3, #12]
    632e:	3002      	adds	r0, #2
    6330:	42a3      	cmp	r3, r4
    6332:	d100      	bne.n	6336 <_malloc_r+0x3e2>
    6334:	e655      	b.n	5fe2 <_malloc_r+0x8e>
    6336:	e6ca      	b.n	60ce <_malloc_r+0x17a>
    6338:	2201      	movs	r2, #1
    633a:	18e3      	adds	r3, r4, r3
    633c:	6859      	ldr	r1, [r3, #4]
    633e:	0038      	movs	r0, r7
    6340:	430a      	orrs	r2, r1
    6342:	605a      	str	r2, [r3, #4]
    6344:	68e3      	ldr	r3, [r4, #12]
    6346:	68a2      	ldr	r2, [r4, #8]
    6348:	60d3      	str	r3, [r2, #12]
    634a:	609a      	str	r2, [r3, #8]
    634c:	f000 f8fe 	bl	654c <__malloc_unlock>
    6350:	0020      	movs	r0, r4
    6352:	3008      	adds	r0, #8
    6354:	e6cd      	b.n	60f2 <_malloc_r+0x19e>
    6356:	235b      	movs	r3, #91	; 0x5b
    6358:	4698      	mov	r8, r3
    635a:	4480      	add	r8, r0
    635c:	305c      	adds	r0, #92	; 0x5c
    635e:	00c1      	lsls	r1, r0, #3
    6360:	e61f      	b.n	5fa2 <_malloc_r+0x4e>
    6362:	099a      	lsrs	r2, r3, #6
    6364:	0011      	movs	r1, r2
    6366:	3239      	adds	r2, #57	; 0x39
    6368:	3138      	adds	r1, #56	; 0x38
    636a:	00d2      	lsls	r2, r2, #3
    636c:	e78c      	b.n	6288 <_malloc_r+0x334>
    636e:	42b4      	cmp	r4, r6
    6370:	d000      	beq.n	6374 <_malloc_r+0x420>
    6372:	e75a      	b.n	622a <_malloc_r+0x2d6>
    6374:	4b4f      	ldr	r3, [pc, #316]	; (64b4 <_malloc_r+0x560>)
    6376:	9a00      	ldr	r2, [sp, #0]
    6378:	469a      	mov	sl, r3
    637a:	681b      	ldr	r3, [r3, #0]
    637c:	469c      	mov	ip, r3
    637e:	4653      	mov	r3, sl
    6380:	4462      	add	r2, ip
    6382:	0011      	movs	r1, r2
    6384:	601a      	str	r2, [r3, #0]
    6386:	e6ff      	b.n	6188 <_malloc_r+0x234>
    6388:	2308      	movs	r3, #8
    638a:	425b      	negs	r3, r3
    638c:	469c      	mov	ip, r3
    638e:	44e1      	add	r9, ip
    6390:	464b      	mov	r3, r9
    6392:	689b      	ldr	r3, [r3, #8]
    6394:	3801      	subs	r0, #1
    6396:	4599      	cmp	r9, r3
    6398:	d000      	beq.n	639c <_malloc_r+0x448>
    639a:	e084      	b.n	64a6 <_malloc_r+0x552>
    639c:	4643      	mov	r3, r8
    639e:	4203      	tst	r3, r0
    63a0:	d1f2      	bne.n	6388 <_malloc_r+0x434>
    63a2:	6873      	ldr	r3, [r6, #4]
    63a4:	438b      	bics	r3, r1
    63a6:	6073      	str	r3, [r6, #4]
    63a8:	0049      	lsls	r1, r1, #1
    63aa:	4299      	cmp	r1, r3
    63ac:	d900      	bls.n	63b0 <_malloc_r+0x45c>
    63ae:	e6b5      	b.n	611c <_malloc_r+0x1c8>
    63b0:	2900      	cmp	r1, #0
    63b2:	d100      	bne.n	63b6 <_malloc_r+0x462>
    63b4:	e6b2      	b.n	611c <_malloc_r+0x1c8>
    63b6:	4650      	mov	r0, sl
    63b8:	420b      	tst	r3, r1
    63ba:	d000      	beq.n	63be <_malloc_r+0x46a>
    63bc:	e648      	b.n	6050 <_malloc_r+0xfc>
    63be:	0049      	lsls	r1, r1, #1
    63c0:	3004      	adds	r0, #4
    63c2:	420b      	tst	r3, r1
    63c4:	d0fb      	beq.n	63be <_malloc_r+0x46a>
    63c6:	e643      	b.n	6050 <_malloc_r+0xfc>
    63c8:	2301      	movs	r3, #1
    63ca:	464a      	mov	r2, r9
    63cc:	6053      	str	r3, [r2, #4]
    63ce:	0038      	movs	r0, r7
    63d0:	f000 f8bc 	bl	654c <__malloc_unlock>
    63d4:	2000      	movs	r0, #0
    63d6:	e68c      	b.n	60f2 <_malloc_r+0x19e>
    63d8:	4694      	mov	ip, r2
    63da:	e76a      	b.n	62b2 <_malloc_r+0x35e>
    63dc:	23aa      	movs	r3, #170	; 0xaa
    63de:	005b      	lsls	r3, r3, #1
    63e0:	4298      	cmp	r0, r3
    63e2:	d811      	bhi.n	6408 <_malloc_r+0x4b4>
    63e4:	3bdd      	subs	r3, #221	; 0xdd
    63e6:	4698      	mov	r8, r3
    63e8:	0be8      	lsrs	r0, r5, #15
    63ea:	4480      	add	r8, r0
    63ec:	3078      	adds	r0, #120	; 0x78
    63ee:	00c1      	lsls	r1, r0, #3
    63f0:	e5d7      	b.n	5fa2 <_malloc_r+0x4e>
    63f2:	2380      	movs	r3, #128	; 0x80
    63f4:	015b      	lsls	r3, r3, #5
    63f6:	e6dd      	b.n	61b4 <_malloc_r+0x260>
    63f8:	1089      	asrs	r1, r1, #2
    63fa:	3b02      	subs	r3, #2
    63fc:	408b      	lsls	r3, r1
    63fe:	6872      	ldr	r2, [r6, #4]
    6400:	4313      	orrs	r3, r2
    6402:	6073      	str	r3, [r6, #4]
    6404:	4662      	mov	r2, ip
    6406:	e757      	b.n	62b8 <_malloc_r+0x364>
    6408:	4b2b      	ldr	r3, [pc, #172]	; (64b8 <_malloc_r+0x564>)
    640a:	4298      	cmp	r0, r3
    640c:	d81c      	bhi.n	6448 <_malloc_r+0x4f4>
    640e:	237c      	movs	r3, #124	; 0x7c
    6410:	4698      	mov	r8, r3
    6412:	0ca8      	lsrs	r0, r5, #18
    6414:	4480      	add	r8, r0
    6416:	307d      	adds	r0, #125	; 0x7d
    6418:	00c1      	lsls	r1, r0, #3
    641a:	e5c2      	b.n	5fa2 <_malloc_r+0x4e>
    641c:	3310      	adds	r3, #16
    641e:	9300      	str	r3, [sp, #0]
    6420:	e699      	b.n	6156 <_malloc_r+0x202>
    6422:	2a54      	cmp	r2, #84	; 0x54
    6424:	d826      	bhi.n	6474 <_malloc_r+0x520>
    6426:	464b      	mov	r3, r9
    6428:	0b1a      	lsrs	r2, r3, #12
    642a:	0011      	movs	r1, r2
    642c:	326f      	adds	r2, #111	; 0x6f
    642e:	316e      	adds	r1, #110	; 0x6e
    6430:	00d2      	lsls	r2, r2, #3
    6432:	e729      	b.n	6288 <_malloc_r+0x334>
    6434:	051b      	lsls	r3, r3, #20
    6436:	d000      	beq.n	643a <_malloc_r+0x4e6>
    6438:	e6a6      	b.n	6188 <_malloc_r+0x234>
    643a:	2001      	movs	r0, #1
    643c:	9b00      	ldr	r3, [sp, #0]
    643e:	68b2      	ldr	r2, [r6, #8]
    6440:	4443      	add	r3, r8
    6442:	4303      	orrs	r3, r0
    6444:	6053      	str	r3, [r2, #4]
    6446:	e6e6      	b.n	6216 <_malloc_r+0x2c2>
    6448:	21fe      	movs	r1, #254	; 0xfe
    644a:	237e      	movs	r3, #126	; 0x7e
    644c:	207f      	movs	r0, #127	; 0x7f
    644e:	0089      	lsls	r1, r1, #2
    6450:	4698      	mov	r8, r3
    6452:	e5a6      	b.n	5fa2 <_malloc_r+0x4e>
    6454:	2300      	movs	r3, #0
    6456:	2001      	movs	r0, #1
    6458:	469b      	mov	fp, r3
    645a:	e6bd      	b.n	61d8 <_malloc_r+0x284>
    645c:	0021      	movs	r1, r4
    645e:	0038      	movs	r0, r7
    6460:	3108      	adds	r1, #8
    6462:	f7ff fc87 	bl	5d74 <_free_r>
    6466:	4653      	mov	r3, sl
    6468:	6819      	ldr	r1, [r3, #0]
    646a:	e6d4      	b.n	6216 <_malloc_r+0x2c2>
    646c:	465b      	mov	r3, fp
    646e:	464a      	mov	r2, r9
    6470:	601a      	str	r2, [r3, #0]
    6472:	e694      	b.n	619e <_malloc_r+0x24a>
    6474:	21aa      	movs	r1, #170	; 0xaa
    6476:	0049      	lsls	r1, r1, #1
    6478:	428a      	cmp	r2, r1
    647a:	d806      	bhi.n	648a <_malloc_r+0x536>
    647c:	464b      	mov	r3, r9
    647e:	0bda      	lsrs	r2, r3, #15
    6480:	0011      	movs	r1, r2
    6482:	3278      	adds	r2, #120	; 0x78
    6484:	3177      	adds	r1, #119	; 0x77
    6486:	00d2      	lsls	r2, r2, #3
    6488:	e6fe      	b.n	6288 <_malloc_r+0x334>
    648a:	490b      	ldr	r1, [pc, #44]	; (64b8 <_malloc_r+0x564>)
    648c:	428a      	cmp	r2, r1
    648e:	d806      	bhi.n	649e <_malloc_r+0x54a>
    6490:	464b      	mov	r3, r9
    6492:	0c9a      	lsrs	r2, r3, #18
    6494:	0011      	movs	r1, r2
    6496:	327d      	adds	r2, #125	; 0x7d
    6498:	317c      	adds	r1, #124	; 0x7c
    649a:	00d2      	lsls	r2, r2, #3
    649c:	e6f4      	b.n	6288 <_malloc_r+0x334>
    649e:	22fe      	movs	r2, #254	; 0xfe
    64a0:	217e      	movs	r1, #126	; 0x7e
    64a2:	0092      	lsls	r2, r2, #2
    64a4:	e6f0      	b.n	6288 <_malloc_r+0x334>
    64a6:	6873      	ldr	r3, [r6, #4]
    64a8:	e77e      	b.n	63a8 <_malloc_r+0x454>
    64aa:	002b      	movs	r3, r5
    64ac:	08e8      	lsrs	r0, r5, #3
    64ae:	3308      	adds	r3, #8
    64b0:	e605      	b.n	60be <_malloc_r+0x16a>
    64b2:	46c0      	nop			; (mov r8, r8)
    64b4:	20000a08 	.word	0x20000a08
    64b8:	00000554 	.word	0x00000554

000064bc <memchr>:
    64bc:	b570      	push	{r4, r5, r6, lr}
    64be:	b2cd      	uxtb	r5, r1
    64c0:	0783      	lsls	r3, r0, #30
    64c2:	d034      	beq.n	652e <memchr+0x72>
    64c4:	1e54      	subs	r4, r2, #1
    64c6:	2a00      	cmp	r2, #0
    64c8:	d01b      	beq.n	6502 <memchr+0x46>
    64ca:	7803      	ldrb	r3, [r0, #0]
    64cc:	42ab      	cmp	r3, r5
    64ce:	d019      	beq.n	6504 <memchr+0x48>
    64d0:	2203      	movs	r2, #3
    64d2:	e004      	b.n	64de <memchr+0x22>
    64d4:	3c01      	subs	r4, #1
    64d6:	d314      	bcc.n	6502 <memchr+0x46>
    64d8:	7803      	ldrb	r3, [r0, #0]
    64da:	42ab      	cmp	r3, r5
    64dc:	d012      	beq.n	6504 <memchr+0x48>
    64de:	3001      	adds	r0, #1
    64e0:	4210      	tst	r0, r2
    64e2:	d1f7      	bne.n	64d4 <memchr+0x18>
    64e4:	2c03      	cmp	r4, #3
    64e6:	d80e      	bhi.n	6506 <memchr+0x4a>
    64e8:	2c00      	cmp	r4, #0
    64ea:	d00a      	beq.n	6502 <memchr+0x46>
    64ec:	7803      	ldrb	r3, [r0, #0]
    64ee:	42ab      	cmp	r3, r5
    64f0:	d008      	beq.n	6504 <memchr+0x48>
    64f2:	1904      	adds	r4, r0, r4
    64f4:	e002      	b.n	64fc <memchr+0x40>
    64f6:	7803      	ldrb	r3, [r0, #0]
    64f8:	42ab      	cmp	r3, r5
    64fa:	d003      	beq.n	6504 <memchr+0x48>
    64fc:	3001      	adds	r0, #1
    64fe:	4284      	cmp	r4, r0
    6500:	d1f9      	bne.n	64f6 <memchr+0x3a>
    6502:	2000      	movs	r0, #0
    6504:	bd70      	pop	{r4, r5, r6, pc}
    6506:	22ff      	movs	r2, #255	; 0xff
    6508:	060b      	lsls	r3, r1, #24
    650a:	0c1b      	lsrs	r3, r3, #16
    650c:	4011      	ands	r1, r2
    650e:	4319      	orrs	r1, r3
    6510:	040b      	lsls	r3, r1, #16
    6512:	4e08      	ldr	r6, [pc, #32]	; (6534 <memchr+0x78>)
    6514:	4319      	orrs	r1, r3
    6516:	6803      	ldr	r3, [r0, #0]
    6518:	4a07      	ldr	r2, [pc, #28]	; (6538 <memchr+0x7c>)
    651a:	404b      	eors	r3, r1
    651c:	189a      	adds	r2, r3, r2
    651e:	439a      	bics	r2, r3
    6520:	4232      	tst	r2, r6
    6522:	d1e3      	bne.n	64ec <memchr+0x30>
    6524:	3c04      	subs	r4, #4
    6526:	3004      	adds	r0, #4
    6528:	2c03      	cmp	r4, #3
    652a:	d8f4      	bhi.n	6516 <memchr+0x5a>
    652c:	e7dc      	b.n	64e8 <memchr+0x2c>
    652e:	0014      	movs	r4, r2
    6530:	e7d8      	b.n	64e4 <memchr+0x28>
    6532:	46c0      	nop			; (mov r8, r8)
    6534:	80808080 	.word	0x80808080
    6538:	fefefeff 	.word	0xfefefeff

0000653c <__malloc_lock>:
    653c:	b510      	push	{r4, lr}
    653e:	4802      	ldr	r0, [pc, #8]	; (6548 <__malloc_lock+0xc>)
    6540:	f7ff fd04 	bl	5f4c <__retarget_lock_acquire_recursive>
    6544:	bd10      	pop	{r4, pc}
    6546:	46c0      	nop			; (mov r8, r8)
    6548:	20000b20 	.word	0x20000b20

0000654c <__malloc_unlock>:
    654c:	b510      	push	{r4, lr}
    654e:	4802      	ldr	r0, [pc, #8]	; (6558 <__malloc_unlock+0xc>)
    6550:	f7ff fcfe 	bl	5f50 <__retarget_lock_release_recursive>
    6554:	bd10      	pop	{r4, pc}
    6556:	46c0      	nop			; (mov r8, r8)
    6558:	20000b20 	.word	0x20000b20

0000655c <_Balloc>:
    655c:	b570      	push	{r4, r5, r6, lr}
    655e:	0004      	movs	r4, r0
    6560:	6cc0      	ldr	r0, [r0, #76]	; 0x4c
    6562:	000d      	movs	r5, r1
    6564:	2800      	cmp	r0, #0
    6566:	d00a      	beq.n	657e <_Balloc+0x22>
    6568:	00ab      	lsls	r3, r5, #2
    656a:	18c3      	adds	r3, r0, r3
    656c:	6818      	ldr	r0, [r3, #0]
    656e:	2800      	cmp	r0, #0
    6570:	d00f      	beq.n	6592 <_Balloc+0x36>
    6572:	6802      	ldr	r2, [r0, #0]
    6574:	601a      	str	r2, [r3, #0]
    6576:	2300      	movs	r3, #0
    6578:	6103      	str	r3, [r0, #16]
    657a:	60c3      	str	r3, [r0, #12]
    657c:	bd70      	pop	{r4, r5, r6, pc}
    657e:	2221      	movs	r2, #33	; 0x21
    6580:	2104      	movs	r1, #4
    6582:	0020      	movs	r0, r4
    6584:	f001 fec2 	bl	830c <_calloc_r>
    6588:	64e0      	str	r0, [r4, #76]	; 0x4c
    658a:	2800      	cmp	r0, #0
    658c:	d1ec      	bne.n	6568 <_Balloc+0xc>
    658e:	2000      	movs	r0, #0
    6590:	e7f4      	b.n	657c <_Balloc+0x20>
    6592:	2601      	movs	r6, #1
    6594:	40ae      	lsls	r6, r5
    6596:	1d72      	adds	r2, r6, #5
    6598:	0092      	lsls	r2, r2, #2
    659a:	2101      	movs	r1, #1
    659c:	0020      	movs	r0, r4
    659e:	f001 feb5 	bl	830c <_calloc_r>
    65a2:	2800      	cmp	r0, #0
    65a4:	d0f3      	beq.n	658e <_Balloc+0x32>
    65a6:	6045      	str	r5, [r0, #4]
    65a8:	6086      	str	r6, [r0, #8]
    65aa:	e7e4      	b.n	6576 <_Balloc+0x1a>

000065ac <_Bfree>:
    65ac:	2900      	cmp	r1, #0
    65ae:	d006      	beq.n	65be <_Bfree+0x12>
    65b0:	684b      	ldr	r3, [r1, #4]
    65b2:	009a      	lsls	r2, r3, #2
    65b4:	6cc3      	ldr	r3, [r0, #76]	; 0x4c
    65b6:	189b      	adds	r3, r3, r2
    65b8:	681a      	ldr	r2, [r3, #0]
    65ba:	600a      	str	r2, [r1, #0]
    65bc:	6019      	str	r1, [r3, #0]
    65be:	4770      	bx	lr

000065c0 <__multadd>:
    65c0:	b5f8      	push	{r3, r4, r5, r6, r7, lr}
    65c2:	46ce      	mov	lr, r9
    65c4:	4647      	mov	r7, r8
    65c6:	4681      	mov	r9, r0
    65c8:	0008      	movs	r0, r1
    65ca:	b580      	push	{r7, lr}
    65cc:	000d      	movs	r5, r1
    65ce:	690c      	ldr	r4, [r1, #16]
    65d0:	001f      	movs	r7, r3
    65d2:	2100      	movs	r1, #0
    65d4:	3014      	adds	r0, #20
    65d6:	6803      	ldr	r3, [r0, #0]
    65d8:	3101      	adds	r1, #1
    65da:	041e      	lsls	r6, r3, #16
    65dc:	0c36      	lsrs	r6, r6, #16
    65de:	4356      	muls	r6, r2
    65e0:	0c1b      	lsrs	r3, r3, #16
    65e2:	4353      	muls	r3, r2
    65e4:	19f6      	adds	r6, r6, r7
    65e6:	0c37      	lsrs	r7, r6, #16
    65e8:	19db      	adds	r3, r3, r7
    65ea:	0436      	lsls	r6, r6, #16
    65ec:	0c1f      	lsrs	r7, r3, #16
    65ee:	0c36      	lsrs	r6, r6, #16
    65f0:	041b      	lsls	r3, r3, #16
    65f2:	199b      	adds	r3, r3, r6
    65f4:	c008      	stmia	r0!, {r3}
    65f6:	428c      	cmp	r4, r1
    65f8:	dced      	bgt.n	65d6 <__multadd+0x16>
    65fa:	2f00      	cmp	r7, #0
    65fc:	d008      	beq.n	6610 <__multadd+0x50>
    65fe:	68ab      	ldr	r3, [r5, #8]
    6600:	429c      	cmp	r4, r3
    6602:	da0a      	bge.n	661a <__multadd+0x5a>
    6604:	1d23      	adds	r3, r4, #4
    6606:	009b      	lsls	r3, r3, #2
    6608:	18eb      	adds	r3, r5, r3
    660a:	3401      	adds	r4, #1
    660c:	605f      	str	r7, [r3, #4]
    660e:	612c      	str	r4, [r5, #16]
    6610:	0028      	movs	r0, r5
    6612:	bc0c      	pop	{r2, r3}
    6614:	4690      	mov	r8, r2
    6616:	4699      	mov	r9, r3
    6618:	bdf8      	pop	{r3, r4, r5, r6, r7, pc}
    661a:	686b      	ldr	r3, [r5, #4]
    661c:	4648      	mov	r0, r9
    661e:	1c59      	adds	r1, r3, #1
    6620:	f7ff ff9c 	bl	655c <_Balloc>
    6624:	0029      	movs	r1, r5
    6626:	692b      	ldr	r3, [r5, #16]
    6628:	4680      	mov	r8, r0
    662a:	1c9a      	adds	r2, r3, #2
    662c:	0092      	lsls	r2, r2, #2
    662e:	310c      	adds	r1, #12
    6630:	300c      	adds	r0, #12
    6632:	f7fe f96f 	bl	4914 <memcpy>
    6636:	686b      	ldr	r3, [r5, #4]
    6638:	009a      	lsls	r2, r3, #2
    663a:	464b      	mov	r3, r9
    663c:	6cdb      	ldr	r3, [r3, #76]	; 0x4c
    663e:	189b      	adds	r3, r3, r2
    6640:	681a      	ldr	r2, [r3, #0]
    6642:	602a      	str	r2, [r5, #0]
    6644:	601d      	str	r5, [r3, #0]
    6646:	4645      	mov	r5, r8
    6648:	e7dc      	b.n	6604 <__multadd+0x44>
    664a:	46c0      	nop			; (mov r8, r8)

0000664c <__hi0bits>:
    664c:	0003      	movs	r3, r0
    664e:	0c02      	lsrs	r2, r0, #16
    6650:	2000      	movs	r0, #0
    6652:	2a00      	cmp	r2, #0
    6654:	d101      	bne.n	665a <__hi0bits+0xe>
    6656:	041b      	lsls	r3, r3, #16
    6658:	3010      	adds	r0, #16
    665a:	0e1a      	lsrs	r2, r3, #24
    665c:	d101      	bne.n	6662 <__hi0bits+0x16>
    665e:	3008      	adds	r0, #8
    6660:	021b      	lsls	r3, r3, #8
    6662:	0f1a      	lsrs	r2, r3, #28
    6664:	d101      	bne.n	666a <__hi0bits+0x1e>
    6666:	3004      	adds	r0, #4
    6668:	011b      	lsls	r3, r3, #4
    666a:	0f9a      	lsrs	r2, r3, #30
    666c:	d101      	bne.n	6672 <__hi0bits+0x26>
    666e:	3002      	adds	r0, #2
    6670:	009b      	lsls	r3, r3, #2
    6672:	2b00      	cmp	r3, #0
    6674:	db03      	blt.n	667e <__hi0bits+0x32>
    6676:	3001      	adds	r0, #1
    6678:	005b      	lsls	r3, r3, #1
    667a:	d400      	bmi.n	667e <__hi0bits+0x32>
    667c:	2020      	movs	r0, #32
    667e:	4770      	bx	lr

00006680 <__lo0bits>:
    6680:	6803      	ldr	r3, [r0, #0]
    6682:	075a      	lsls	r2, r3, #29
    6684:	d009      	beq.n	669a <__lo0bits+0x1a>
    6686:	2200      	movs	r2, #0
    6688:	07d9      	lsls	r1, r3, #31
    668a:	d404      	bmi.n	6696 <__lo0bits+0x16>
    668c:	079a      	lsls	r2, r3, #30
    668e:	d420      	bmi.n	66d2 <__lo0bits+0x52>
    6690:	2202      	movs	r2, #2
    6692:	089b      	lsrs	r3, r3, #2
    6694:	6003      	str	r3, [r0, #0]
    6696:	0010      	movs	r0, r2
    6698:	4770      	bx	lr
    669a:	0419      	lsls	r1, r3, #16
    669c:	2200      	movs	r2, #0
    669e:	2900      	cmp	r1, #0
    66a0:	d101      	bne.n	66a6 <__lo0bits+0x26>
    66a2:	0c1b      	lsrs	r3, r3, #16
    66a4:	3210      	adds	r2, #16
    66a6:	21ff      	movs	r1, #255	; 0xff
    66a8:	4219      	tst	r1, r3
    66aa:	d101      	bne.n	66b0 <__lo0bits+0x30>
    66ac:	3208      	adds	r2, #8
    66ae:	0a1b      	lsrs	r3, r3, #8
    66b0:	0719      	lsls	r1, r3, #28
    66b2:	d101      	bne.n	66b8 <__lo0bits+0x38>
    66b4:	3204      	adds	r2, #4
    66b6:	091b      	lsrs	r3, r3, #4
    66b8:	0799      	lsls	r1, r3, #30
    66ba:	d101      	bne.n	66c0 <__lo0bits+0x40>
    66bc:	3202      	adds	r2, #2
    66be:	089b      	lsrs	r3, r3, #2
    66c0:	07d9      	lsls	r1, r3, #31
    66c2:	d404      	bmi.n	66ce <__lo0bits+0x4e>
    66c4:	085b      	lsrs	r3, r3, #1
    66c6:	d101      	bne.n	66cc <__lo0bits+0x4c>
    66c8:	2220      	movs	r2, #32
    66ca:	e7e4      	b.n	6696 <__lo0bits+0x16>
    66cc:	3201      	adds	r2, #1
    66ce:	6003      	str	r3, [r0, #0]
    66d0:	e7e1      	b.n	6696 <__lo0bits+0x16>
    66d2:	085b      	lsrs	r3, r3, #1
    66d4:	6003      	str	r3, [r0, #0]
    66d6:	2201      	movs	r2, #1
    66d8:	e7dd      	b.n	6696 <__lo0bits+0x16>
    66da:	46c0      	nop			; (mov r8, r8)

000066dc <__i2b>:
    66dc:	b510      	push	{r4, lr}
    66de:	000c      	movs	r4, r1
    66e0:	2101      	movs	r1, #1
    66e2:	f7ff ff3b 	bl	655c <_Balloc>
    66e6:	2301      	movs	r3, #1
    66e8:	6144      	str	r4, [r0, #20]
    66ea:	6103      	str	r3, [r0, #16]
    66ec:	bd10      	pop	{r4, pc}
    66ee:	46c0      	nop			; (mov r8, r8)

000066f0 <__multiply>:
    66f0:	b5f0      	push	{r4, r5, r6, r7, lr}
    66f2:	4657      	mov	r7, sl
    66f4:	464e      	mov	r6, r9
    66f6:	4645      	mov	r5, r8
    66f8:	46de      	mov	lr, fp
    66fa:	b5e0      	push	{r5, r6, r7, lr}
    66fc:	6914      	ldr	r4, [r2, #16]
    66fe:	690e      	ldr	r6, [r1, #16]
    6700:	b085      	sub	sp, #20
    6702:	000f      	movs	r7, r1
    6704:	0015      	movs	r5, r2
    6706:	42a6      	cmp	r6, r4
    6708:	da04      	bge.n	6714 <__multiply+0x24>
    670a:	0033      	movs	r3, r6
    670c:	0017      	movs	r7, r2
    670e:	0026      	movs	r6, r4
    6710:	000d      	movs	r5, r1
    6712:	001c      	movs	r4, r3
    6714:	1933      	adds	r3, r6, r4
    6716:	4698      	mov	r8, r3
    6718:	68bb      	ldr	r3, [r7, #8]
    671a:	6879      	ldr	r1, [r7, #4]
    671c:	4598      	cmp	r8, r3
    671e:	dd00      	ble.n	6722 <__multiply+0x32>
    6720:	3101      	adds	r1, #1
    6722:	f7ff ff1b 	bl	655c <_Balloc>
    6726:	2214      	movs	r2, #20
    6728:	0003      	movs	r3, r0
    672a:	4694      	mov	ip, r2
    672c:	4463      	add	r3, ip
    672e:	469b      	mov	fp, r3
    6730:	4643      	mov	r3, r8
    6732:	009b      	lsls	r3, r3, #2
    6734:	445b      	add	r3, fp
    6736:	0019      	movs	r1, r3
    6738:	9302      	str	r3, [sp, #8]
    673a:	9003      	str	r0, [sp, #12]
    673c:	465b      	mov	r3, fp
    673e:	2200      	movs	r2, #0
    6740:	458b      	cmp	fp, r1
    6742:	d203      	bcs.n	674c <__multiply+0x5c>
    6744:	9902      	ldr	r1, [sp, #8]
    6746:	c304      	stmia	r3!, {r2}
    6748:	4299      	cmp	r1, r3
    674a:	d8fc      	bhi.n	6746 <__multiply+0x56>
    674c:	2314      	movs	r3, #20
    674e:	00a4      	lsls	r4, r4, #2
    6750:	469a      	mov	sl, r3
    6752:	3714      	adds	r7, #20
    6754:	0023      	movs	r3, r4
    6756:	46bc      	mov	ip, r7
    6758:	44aa      	add	sl, r5
    675a:	00b6      	lsls	r6, r6, #2
    675c:	4453      	add	r3, sl
    675e:	9700      	str	r7, [sp, #0]
    6760:	44b4      	add	ip, r6
    6762:	9301      	str	r3, [sp, #4]
    6764:	459a      	cmp	sl, r3
    6766:	d24f      	bcs.n	6808 <__multiply+0x118>
    6768:	4653      	mov	r3, sl
    676a:	681b      	ldr	r3, [r3, #0]
    676c:	041e      	lsls	r6, r3, #16
    676e:	0c36      	lsrs	r6, r6, #16
    6770:	d020      	beq.n	67b4 <__multiply+0xc4>
    6772:	465c      	mov	r4, fp
    6774:	2700      	movs	r7, #0
    6776:	9d00      	ldr	r5, [sp, #0]
    6778:	0021      	movs	r1, r4
    677a:	cc08      	ldmia	r4!, {r3}
    677c:	cd04      	ldmia	r5!, {r2}
    677e:	4699      	mov	r9, r3
    6780:	4648      	mov	r0, r9
    6782:	0413      	lsls	r3, r2, #16
    6784:	0c1b      	lsrs	r3, r3, #16
    6786:	4373      	muls	r3, r6
    6788:	0400      	lsls	r0, r0, #16
    678a:	0c00      	lsrs	r0, r0, #16
    678c:	181b      	adds	r3, r3, r0
    678e:	19d8      	adds	r0, r3, r7
    6790:	0c13      	lsrs	r3, r2, #16
    6792:	464a      	mov	r2, r9
    6794:	4373      	muls	r3, r6
    6796:	0c12      	lsrs	r2, r2, #16
    6798:	189b      	adds	r3, r3, r2
    679a:	0c02      	lsrs	r2, r0, #16
    679c:	189b      	adds	r3, r3, r2
    679e:	0402      	lsls	r2, r0, #16
    67a0:	0c1f      	lsrs	r7, r3, #16
    67a2:	0c12      	lsrs	r2, r2, #16
    67a4:	041b      	lsls	r3, r3, #16
    67a6:	4313      	orrs	r3, r2
    67a8:	600b      	str	r3, [r1, #0]
    67aa:	45ac      	cmp	ip, r5
    67ac:	d8e4      	bhi.n	6778 <__multiply+0x88>
    67ae:	4653      	mov	r3, sl
    67b0:	6027      	str	r7, [r4, #0]
    67b2:	681b      	ldr	r3, [r3, #0]
    67b4:	0c1e      	lsrs	r6, r3, #16
    67b6:	d020      	beq.n	67fa <__multiply+0x10a>
    67b8:	465b      	mov	r3, fp
    67ba:	2100      	movs	r1, #0
    67bc:	681b      	ldr	r3, [r3, #0]
    67be:	465c      	mov	r4, fp
    67c0:	0018      	movs	r0, r3
    67c2:	000f      	movs	r7, r1
    67c4:	4662      	mov	r2, ip
    67c6:	9d00      	ldr	r5, [sp, #0]
    67c8:	8829      	ldrh	r1, [r5, #0]
    67ca:	0c00      	lsrs	r0, r0, #16
    67cc:	4371      	muls	r1, r6
    67ce:	1809      	adds	r1, r1, r0
    67d0:	19c9      	adds	r1, r1, r7
    67d2:	041b      	lsls	r3, r3, #16
    67d4:	0408      	lsls	r0, r1, #16
    67d6:	0c1b      	lsrs	r3, r3, #16
    67d8:	4303      	orrs	r3, r0
    67da:	6023      	str	r3, [r4, #0]
    67dc:	cd08      	ldmia	r5!, {r3}
    67de:	6860      	ldr	r0, [r4, #4]
    67e0:	0c1b      	lsrs	r3, r3, #16
    67e2:	4373      	muls	r3, r6
    67e4:	0407      	lsls	r7, r0, #16
    67e6:	0c3f      	lsrs	r7, r7, #16
    67e8:	19db      	adds	r3, r3, r7
    67ea:	0c09      	lsrs	r1, r1, #16
    67ec:	185b      	adds	r3, r3, r1
    67ee:	0c1f      	lsrs	r7, r3, #16
    67f0:	3404      	adds	r4, #4
    67f2:	42aa      	cmp	r2, r5
    67f4:	d8e8      	bhi.n	67c8 <__multiply+0xd8>
    67f6:	4694      	mov	ip, r2
    67f8:	6023      	str	r3, [r4, #0]
    67fa:	2304      	movs	r3, #4
    67fc:	4699      	mov	r9, r3
    67fe:	9b01      	ldr	r3, [sp, #4]
    6800:	44ca      	add	sl, r9
    6802:	44cb      	add	fp, r9
    6804:	4553      	cmp	r3, sl
    6806:	d8af      	bhi.n	6768 <__multiply+0x78>
    6808:	4643      	mov	r3, r8
    680a:	2b00      	cmp	r3, #0
    680c:	dd0e      	ble.n	682c <__multiply+0x13c>
    680e:	9b02      	ldr	r3, [sp, #8]
    6810:	3b04      	subs	r3, #4
    6812:	681a      	ldr	r2, [r3, #0]
    6814:	2a00      	cmp	r2, #0
    6816:	d109      	bne.n	682c <__multiply+0x13c>
    6818:	4642      	mov	r2, r8
    681a:	e003      	b.n	6824 <__multiply+0x134>
    681c:	3b04      	subs	r3, #4
    681e:	6819      	ldr	r1, [r3, #0]
    6820:	2900      	cmp	r1, #0
    6822:	d102      	bne.n	682a <__multiply+0x13a>
    6824:	3a01      	subs	r2, #1
    6826:	2a00      	cmp	r2, #0
    6828:	d1f8      	bne.n	681c <__multiply+0x12c>
    682a:	4690      	mov	r8, r2
    682c:	9b03      	ldr	r3, [sp, #12]
    682e:	4642      	mov	r2, r8
    6830:	0018      	movs	r0, r3
    6832:	611a      	str	r2, [r3, #16]
    6834:	b005      	add	sp, #20
    6836:	bc3c      	pop	{r2, r3, r4, r5}
    6838:	4690      	mov	r8, r2
    683a:	4699      	mov	r9, r3
    683c:	46a2      	mov	sl, r4
    683e:	46ab      	mov	fp, r5
    6840:	bdf0      	pop	{r4, r5, r6, r7, pc}
    6842:	46c0      	nop			; (mov r8, r8)

00006844 <__pow5mult>:
    6844:	b5f8      	push	{r3, r4, r5, r6, r7, lr}
    6846:	4647      	mov	r7, r8
    6848:	46ce      	mov	lr, r9
    684a:	2303      	movs	r3, #3
    684c:	b580      	push	{r7, lr}
    684e:	4680      	mov	r8, r0
    6850:	000f      	movs	r7, r1
    6852:	0014      	movs	r4, r2
    6854:	4013      	ands	r3, r2
    6856:	d13a      	bne.n	68ce <__pow5mult+0x8a>
    6858:	10a4      	asrs	r4, r4, #2
    685a:	003e      	movs	r6, r7
    685c:	2c00      	cmp	r4, #0
    685e:	d025      	beq.n	68ac <__pow5mult+0x68>
    6860:	4643      	mov	r3, r8
    6862:	6c9d      	ldr	r5, [r3, #72]	; 0x48
    6864:	2d00      	cmp	r5, #0
    6866:	d03b      	beq.n	68e0 <__pow5mult+0x9c>
    6868:	003e      	movs	r6, r7
    686a:	2300      	movs	r3, #0
    686c:	2701      	movs	r7, #1
    686e:	4699      	mov	r9, r3
    6870:	4227      	tst	r7, r4
    6872:	d107      	bne.n	6884 <__pow5mult+0x40>
    6874:	1064      	asrs	r4, r4, #1
    6876:	d019      	beq.n	68ac <__pow5mult+0x68>
    6878:	6828      	ldr	r0, [r5, #0]
    687a:	2800      	cmp	r0, #0
    687c:	d01b      	beq.n	68b6 <__pow5mult+0x72>
    687e:	0005      	movs	r5, r0
    6880:	4227      	tst	r7, r4
    6882:	d0f7      	beq.n	6874 <__pow5mult+0x30>
    6884:	002a      	movs	r2, r5
    6886:	0031      	movs	r1, r6
    6888:	4640      	mov	r0, r8
    688a:	f7ff ff31 	bl	66f0 <__multiply>
    688e:	2e00      	cmp	r6, #0
    6890:	d01b      	beq.n	68ca <__pow5mult+0x86>
    6892:	4642      	mov	r2, r8
    6894:	6cd2      	ldr	r2, [r2, #76]	; 0x4c
    6896:	6873      	ldr	r3, [r6, #4]
    6898:	4694      	mov	ip, r2
    689a:	009b      	lsls	r3, r3, #2
    689c:	4463      	add	r3, ip
    689e:	681a      	ldr	r2, [r3, #0]
    68a0:	1064      	asrs	r4, r4, #1
    68a2:	6032      	str	r2, [r6, #0]
    68a4:	601e      	str	r6, [r3, #0]
    68a6:	0006      	movs	r6, r0
    68a8:	2c00      	cmp	r4, #0
    68aa:	d1e5      	bne.n	6878 <__pow5mult+0x34>
    68ac:	0030      	movs	r0, r6
    68ae:	bc0c      	pop	{r2, r3}
    68b0:	4690      	mov	r8, r2
    68b2:	4699      	mov	r9, r3
    68b4:	bdf8      	pop	{r3, r4, r5, r6, r7, pc}
    68b6:	002a      	movs	r2, r5
    68b8:	0029      	movs	r1, r5
    68ba:	4640      	mov	r0, r8
    68bc:	f7ff ff18 	bl	66f0 <__multiply>
    68c0:	464b      	mov	r3, r9
    68c2:	6028      	str	r0, [r5, #0]
    68c4:	6003      	str	r3, [r0, #0]
    68c6:	0005      	movs	r5, r0
    68c8:	e7da      	b.n	6880 <__pow5mult+0x3c>
    68ca:	0006      	movs	r6, r0
    68cc:	e7d2      	b.n	6874 <__pow5mult+0x30>
    68ce:	4a0b      	ldr	r2, [pc, #44]	; (68fc <__pow5mult+0xb8>)
    68d0:	3b01      	subs	r3, #1
    68d2:	009b      	lsls	r3, r3, #2
    68d4:	589a      	ldr	r2, [r3, r2]
    68d6:	2300      	movs	r3, #0
    68d8:	f7ff fe72 	bl	65c0 <__multadd>
    68dc:	0007      	movs	r7, r0
    68de:	e7bb      	b.n	6858 <__pow5mult+0x14>
    68e0:	2101      	movs	r1, #1
    68e2:	4640      	mov	r0, r8
    68e4:	f7ff fe3a 	bl	655c <_Balloc>
    68e8:	4b05      	ldr	r3, [pc, #20]	; (6900 <__pow5mult+0xbc>)
    68ea:	0005      	movs	r5, r0
    68ec:	6143      	str	r3, [r0, #20]
    68ee:	2301      	movs	r3, #1
    68f0:	6103      	str	r3, [r0, #16]
    68f2:	4643      	mov	r3, r8
    68f4:	6498      	str	r0, [r3, #72]	; 0x48
    68f6:	2300      	movs	r3, #0
    68f8:	6003      	str	r3, [r0, #0]
    68fa:	e7b5      	b.n	6868 <__pow5mult+0x24>
    68fc:	00009170 	.word	0x00009170
    6900:	00000271 	.word	0x00000271

00006904 <__lshift>:
    6904:	b5f8      	push	{r3, r4, r5, r6, r7, lr}
    6906:	464e      	mov	r6, r9
    6908:	4645      	mov	r5, r8
    690a:	46de      	mov	lr, fp
    690c:	4657      	mov	r7, sl
    690e:	b5e0      	push	{r5, r6, r7, lr}
    6910:	000e      	movs	r6, r1
    6912:	6933      	ldr	r3, [r6, #16]
    6914:	1154      	asrs	r4, r2, #5
    6916:	4698      	mov	r8, r3
    6918:	44a0      	add	r8, r4
    691a:	4643      	mov	r3, r8
    691c:	1c5d      	adds	r5, r3, #1
    691e:	68b3      	ldr	r3, [r6, #8]
    6920:	4683      	mov	fp, r0
    6922:	4691      	mov	r9, r2
    6924:	6849      	ldr	r1, [r1, #4]
    6926:	429d      	cmp	r5, r3
    6928:	dd03      	ble.n	6932 <__lshift+0x2e>
    692a:	3101      	adds	r1, #1
    692c:	005b      	lsls	r3, r3, #1
    692e:	429d      	cmp	r5, r3
    6930:	dcfb      	bgt.n	692a <__lshift+0x26>
    6932:	4658      	mov	r0, fp
    6934:	f7ff fe12 	bl	655c <_Balloc>
    6938:	0003      	movs	r3, r0
    693a:	4684      	mov	ip, r0
    693c:	3314      	adds	r3, #20
    693e:	2c00      	cmp	r4, #0
    6940:	dd06      	ble.n	6950 <__lshift+0x4c>
    6942:	2100      	movs	r1, #0
    6944:	00a4      	lsls	r4, r4, #2
    6946:	001a      	movs	r2, r3
    6948:	191b      	adds	r3, r3, r4
    694a:	c202      	stmia	r2!, {r1}
    694c:	4293      	cmp	r3, r2
    694e:	d1fc      	bne.n	694a <__lshift+0x46>
    6950:	6932      	ldr	r2, [r6, #16]
    6952:	4648      	mov	r0, r9
    6954:	0097      	lsls	r7, r2, #2
    6956:	0031      	movs	r1, r6
    6958:	221f      	movs	r2, #31
    695a:	3114      	adds	r1, #20
    695c:	4010      	ands	r0, r2
    695e:	19cf      	adds	r7, r1, r7
    6960:	4681      	mov	r9, r0
    6962:	2800      	cmp	r0, #0
    6964:	d025      	beq.n	69b2 <__lshift+0xae>
    6966:	2220      	movs	r2, #32
    6968:	1a12      	subs	r2, r2, r0
    696a:	4692      	mov	sl, r2
    696c:	2200      	movs	r2, #0
    696e:	4648      	mov	r0, r9
    6970:	680c      	ldr	r4, [r1, #0]
    6972:	4084      	lsls	r4, r0
    6974:	4650      	mov	r0, sl
    6976:	4314      	orrs	r4, r2
    6978:	601c      	str	r4, [r3, #0]
    697a:	c904      	ldmia	r1!, {r2}
    697c:	3304      	adds	r3, #4
    697e:	40c2      	lsrs	r2, r0
    6980:	428f      	cmp	r7, r1
    6982:	d8f4      	bhi.n	696e <__lshift+0x6a>
    6984:	601a      	str	r2, [r3, #0]
    6986:	2a00      	cmp	r2, #0
    6988:	d001      	beq.n	698e <__lshift+0x8a>
    698a:	4645      	mov	r5, r8
    698c:	3502      	adds	r5, #2
    698e:	4663      	mov	r3, ip
    6990:	3d01      	subs	r5, #1
    6992:	611d      	str	r5, [r3, #16]
    6994:	6873      	ldr	r3, [r6, #4]
    6996:	4660      	mov	r0, ip
    6998:	009a      	lsls	r2, r3, #2
    699a:	465b      	mov	r3, fp
    699c:	6cdb      	ldr	r3, [r3, #76]	; 0x4c
    699e:	189b      	adds	r3, r3, r2
    69a0:	681a      	ldr	r2, [r3, #0]
    69a2:	6032      	str	r2, [r6, #0]
    69a4:	601e      	str	r6, [r3, #0]
    69a6:	bc3c      	pop	{r2, r3, r4, r5}
    69a8:	4690      	mov	r8, r2
    69aa:	4699      	mov	r9, r3
    69ac:	46a2      	mov	sl, r4
    69ae:	46ab      	mov	fp, r5
    69b0:	bdf8      	pop	{r3, r4, r5, r6, r7, pc}
    69b2:	c904      	ldmia	r1!, {r2}
    69b4:	c304      	stmia	r3!, {r2}
    69b6:	428f      	cmp	r7, r1
    69b8:	d9e9      	bls.n	698e <__lshift+0x8a>
    69ba:	c904      	ldmia	r1!, {r2}
    69bc:	c304      	stmia	r3!, {r2}
    69be:	428f      	cmp	r7, r1
    69c0:	d8f7      	bhi.n	69b2 <__lshift+0xae>
    69c2:	e7e4      	b.n	698e <__lshift+0x8a>

000069c4 <__mcmp>:
    69c4:	690a      	ldr	r2, [r1, #16]
    69c6:	6903      	ldr	r3, [r0, #16]
    69c8:	b530      	push	{r4, r5, lr}
    69ca:	0005      	movs	r5, r0
    69cc:	1a98      	subs	r0, r3, r2
    69ce:	d111      	bne.n	69f4 <__mcmp+0x30>
    69d0:	0092      	lsls	r2, r2, #2
    69d2:	3514      	adds	r5, #20
    69d4:	3114      	adds	r1, #20
    69d6:	18ab      	adds	r3, r5, r2
    69d8:	1889      	adds	r1, r1, r2
    69da:	e001      	b.n	69e0 <__mcmp+0x1c>
    69dc:	429d      	cmp	r5, r3
    69de:	d209      	bcs.n	69f4 <__mcmp+0x30>
    69e0:	3b04      	subs	r3, #4
    69e2:	3904      	subs	r1, #4
    69e4:	681c      	ldr	r4, [r3, #0]
    69e6:	680a      	ldr	r2, [r1, #0]
    69e8:	4294      	cmp	r4, r2
    69ea:	d0f7      	beq.n	69dc <__mcmp+0x18>
    69ec:	4294      	cmp	r4, r2
    69ee:	4180      	sbcs	r0, r0
    69f0:	2201      	movs	r2, #1
    69f2:	4310      	orrs	r0, r2
    69f4:	bd30      	pop	{r4, r5, pc}
    69f6:	46c0      	nop			; (mov r8, r8)

000069f8 <__mdiff>:
    69f8:	b5f8      	push	{r3, r4, r5, r6, r7, lr}
    69fa:	4645      	mov	r5, r8
    69fc:	46de      	mov	lr, fp
    69fe:	4657      	mov	r7, sl
    6a00:	464e      	mov	r6, r9
    6a02:	0014      	movs	r4, r2
    6a04:	690b      	ldr	r3, [r1, #16]
    6a06:	6912      	ldr	r2, [r2, #16]
    6a08:	b5e0      	push	{r5, r6, r7, lr}
    6a0a:	4688      	mov	r8, r1
    6a0c:	1a9d      	subs	r5, r3, r2
    6a0e:	d11a      	bne.n	6a46 <__mdiff+0x4e>
    6a10:	000f      	movs	r7, r1
    6a12:	2114      	movs	r1, #20
    6a14:	468c      	mov	ip, r1
    6a16:	0092      	lsls	r2, r2, #2
    6a18:	3714      	adds	r7, #20
    6a1a:	44a4      	add	ip, r4
    6a1c:	18bb      	adds	r3, r7, r2
    6a1e:	4462      	add	r2, ip
    6a20:	e002      	b.n	6a28 <__mdiff+0x30>
    6a22:	429f      	cmp	r7, r3
    6a24:	d300      	bcc.n	6a28 <__mdiff+0x30>
    6a26:	e070      	b.n	6b0a <__mdiff+0x112>
    6a28:	3b04      	subs	r3, #4
    6a2a:	3a04      	subs	r2, #4
    6a2c:	681e      	ldr	r6, [r3, #0]
    6a2e:	6811      	ldr	r1, [r2, #0]
    6a30:	428e      	cmp	r6, r1
    6a32:	d0f6      	beq.n	6a22 <__mdiff+0x2a>
    6a34:	d300      	bcc.n	6a38 <__mdiff+0x40>
    6a36:	e071      	b.n	6b1c <__mdiff+0x124>
    6a38:	4643      	mov	r3, r8
    6a3a:	003e      	movs	r6, r7
    6a3c:	46a0      	mov	r8, r4
    6a3e:	4667      	mov	r7, ip
    6a40:	001c      	movs	r4, r3
    6a42:	2501      	movs	r5, #1
    6a44:	e006      	b.n	6a54 <__mdiff+0x5c>
    6a46:	2d00      	cmp	r5, #0
    6a48:	db6a      	blt.n	6b20 <__mdiff+0x128>
    6a4a:	4647      	mov	r7, r8
    6a4c:	0026      	movs	r6, r4
    6a4e:	2500      	movs	r5, #0
    6a50:	3714      	adds	r7, #20
    6a52:	3614      	adds	r6, #20
    6a54:	4643      	mov	r3, r8
    6a56:	6859      	ldr	r1, [r3, #4]
    6a58:	f7ff fd80 	bl	655c <_Balloc>
    6a5c:	4643      	mov	r3, r8
    6a5e:	4681      	mov	r9, r0
    6a60:	60c5      	str	r5, [r0, #12]
    6a62:	6918      	ldr	r0, [r3, #16]
    6a64:	464d      	mov	r5, r9
    6a66:	0083      	lsls	r3, r0, #2
    6a68:	469c      	mov	ip, r3
    6a6a:	6923      	ldr	r3, [r4, #16]
    6a6c:	44bc      	add	ip, r7
    6a6e:	009b      	lsls	r3, r3, #2
    6a70:	4698      	mov	r8, r3
    6a72:	2300      	movs	r3, #0
    6a74:	44b0      	add	r8, r6
    6a76:	3514      	adds	r5, #20
    6a78:	469a      	mov	sl, r3
    6a7a:	e000      	b.n	6a7e <__mdiff+0x86>
    6a7c:	0027      	movs	r7, r4
    6a7e:	ce04      	ldmia	r6!, {r2}
    6a80:	003c      	movs	r4, r7
    6a82:	4693      	mov	fp, r2
    6a84:	4659      	mov	r1, fp
    6a86:	cc08      	ldmia	r4!, {r3}
    6a88:	0409      	lsls	r1, r1, #16
    6a8a:	041a      	lsls	r2, r3, #16
    6a8c:	0c12      	lsrs	r2, r2, #16
    6a8e:	4452      	add	r2, sl
    6a90:	0c09      	lsrs	r1, r1, #16
    6a92:	1a52      	subs	r2, r2, r1
    6a94:	0c19      	lsrs	r1, r3, #16
    6a96:	465b      	mov	r3, fp
    6a98:	0c1b      	lsrs	r3, r3, #16
    6a9a:	1acb      	subs	r3, r1, r3
    6a9c:	1411      	asrs	r1, r2, #16
    6a9e:	185b      	adds	r3, r3, r1
    6aa0:	0412      	lsls	r2, r2, #16
    6aa2:	1419      	asrs	r1, r3, #16
    6aa4:	0c12      	lsrs	r2, r2, #16
    6aa6:	041b      	lsls	r3, r3, #16
    6aa8:	468a      	mov	sl, r1
    6aaa:	4313      	orrs	r3, r2
    6aac:	1d29      	adds	r1, r5, #4
    6aae:	602b      	str	r3, [r5, #0]
    6ab0:	000d      	movs	r5, r1
    6ab2:	45b0      	cmp	r8, r6
    6ab4:	d8e2      	bhi.n	6a7c <__mdiff+0x84>
    6ab6:	45a4      	cmp	ip, r4
    6ab8:	d916      	bls.n	6ae8 <__mdiff+0xf0>
    6aba:	cc08      	ldmia	r4!, {r3}
    6abc:	041a      	lsls	r2, r3, #16
    6abe:	0c12      	lsrs	r2, r2, #16
    6ac0:	4452      	add	r2, sl
    6ac2:	1416      	asrs	r6, r2, #16
    6ac4:	0c1b      	lsrs	r3, r3, #16
    6ac6:	199b      	adds	r3, r3, r6
    6ac8:	0412      	lsls	r2, r2, #16
    6aca:	141e      	asrs	r6, r3, #16
    6acc:	0c12      	lsrs	r2, r2, #16
    6ace:	041b      	lsls	r3, r3, #16
    6ad0:	4313      	orrs	r3, r2
    6ad2:	46b2      	mov	sl, r6
    6ad4:	c508      	stmia	r5!, {r3}
    6ad6:	45a4      	cmp	ip, r4
    6ad8:	d8ef      	bhi.n	6aba <__mdiff+0xc2>
    6ada:	4662      	mov	r2, ip
    6adc:	2403      	movs	r4, #3
    6ade:	1bd2      	subs	r2, r2, r7
    6ae0:	3a05      	subs	r2, #5
    6ae2:	43a2      	bics	r2, r4
    6ae4:	3204      	adds	r2, #4
    6ae6:	1889      	adds	r1, r1, r2
    6ae8:	3904      	subs	r1, #4
    6aea:	2b00      	cmp	r3, #0
    6aec:	d104      	bne.n	6af8 <__mdiff+0x100>
    6aee:	3904      	subs	r1, #4
    6af0:	680b      	ldr	r3, [r1, #0]
    6af2:	3801      	subs	r0, #1
    6af4:	2b00      	cmp	r3, #0
    6af6:	d0fa      	beq.n	6aee <__mdiff+0xf6>
    6af8:	464b      	mov	r3, r9
    6afa:	6118      	str	r0, [r3, #16]
    6afc:	4648      	mov	r0, r9
    6afe:	bc3c      	pop	{r2, r3, r4, r5}
    6b00:	4690      	mov	r8, r2
    6b02:	4699      	mov	r9, r3
    6b04:	46a2      	mov	sl, r4
    6b06:	46ab      	mov	fp, r5
    6b08:	bdf8      	pop	{r3, r4, r5, r6, r7, pc}
    6b0a:	2100      	movs	r1, #0
    6b0c:	f7ff fd26 	bl	655c <_Balloc>
    6b10:	2301      	movs	r3, #1
    6b12:	6103      	str	r3, [r0, #16]
    6b14:	2300      	movs	r3, #0
    6b16:	4681      	mov	r9, r0
    6b18:	6143      	str	r3, [r0, #20]
    6b1a:	e7ef      	b.n	6afc <__mdiff+0x104>
    6b1c:	4666      	mov	r6, ip
    6b1e:	e799      	b.n	6a54 <__mdiff+0x5c>
    6b20:	0027      	movs	r7, r4
    6b22:	000e      	movs	r6, r1
    6b24:	46a0      	mov	r8, r4
    6b26:	3714      	adds	r7, #20
    6b28:	3614      	adds	r6, #20
    6b2a:	000c      	movs	r4, r1
    6b2c:	2501      	movs	r5, #1
    6b2e:	e791      	b.n	6a54 <__mdiff+0x5c>

00006b30 <__d2b>:
    6b30:	b5f0      	push	{r4, r5, r6, r7, lr}
    6b32:	2101      	movs	r1, #1
    6b34:	001c      	movs	r4, r3
    6b36:	b083      	sub	sp, #12
    6b38:	9e08      	ldr	r6, [sp, #32]
    6b3a:	0015      	movs	r5, r2
    6b3c:	f7ff fd0e 	bl	655c <_Balloc>
    6b40:	0323      	lsls	r3, r4, #12
    6b42:	0064      	lsls	r4, r4, #1
    6b44:	0007      	movs	r7, r0
    6b46:	0b1b      	lsrs	r3, r3, #12
    6b48:	0d64      	lsrs	r4, r4, #21
    6b4a:	d002      	beq.n	6b52 <__d2b+0x22>
    6b4c:	2280      	movs	r2, #128	; 0x80
    6b4e:	0352      	lsls	r2, r2, #13
    6b50:	4313      	orrs	r3, r2
    6b52:	9301      	str	r3, [sp, #4]
    6b54:	2d00      	cmp	r5, #0
    6b56:	d019      	beq.n	6b8c <__d2b+0x5c>
    6b58:	4668      	mov	r0, sp
    6b5a:	9500      	str	r5, [sp, #0]
    6b5c:	f7ff fd90 	bl	6680 <__lo0bits>
    6b60:	2800      	cmp	r0, #0
    6b62:	d130      	bne.n	6bc6 <__d2b+0x96>
    6b64:	9b00      	ldr	r3, [sp, #0]
    6b66:	617b      	str	r3, [r7, #20]
    6b68:	9b01      	ldr	r3, [sp, #4]
    6b6a:	61bb      	str	r3, [r7, #24]
    6b6c:	1e5a      	subs	r2, r3, #1
    6b6e:	4193      	sbcs	r3, r2
    6b70:	1c5d      	adds	r5, r3, #1
    6b72:	613d      	str	r5, [r7, #16]
    6b74:	2c00      	cmp	r4, #0
    6b76:	d014      	beq.n	6ba2 <__d2b+0x72>
    6b78:	4b19      	ldr	r3, [pc, #100]	; (6be0 <__d2b+0xb0>)
    6b7a:	469c      	mov	ip, r3
    6b7c:	2335      	movs	r3, #53	; 0x35
    6b7e:	4464      	add	r4, ip
    6b80:	1824      	adds	r4, r4, r0
    6b82:	1a18      	subs	r0, r3, r0
    6b84:	9b09      	ldr	r3, [sp, #36]	; 0x24
    6b86:	6034      	str	r4, [r6, #0]
    6b88:	6018      	str	r0, [r3, #0]
    6b8a:	e019      	b.n	6bc0 <__d2b+0x90>
    6b8c:	a801      	add	r0, sp, #4
    6b8e:	f7ff fd77 	bl	6680 <__lo0bits>
    6b92:	9b01      	ldr	r3, [sp, #4]
    6b94:	3020      	adds	r0, #32
    6b96:	617b      	str	r3, [r7, #20]
    6b98:	2301      	movs	r3, #1
    6b9a:	2501      	movs	r5, #1
    6b9c:	613b      	str	r3, [r7, #16]
    6b9e:	2c00      	cmp	r4, #0
    6ba0:	d1ea      	bne.n	6b78 <__d2b+0x48>
    6ba2:	4b10      	ldr	r3, [pc, #64]	; (6be4 <__d2b+0xb4>)
    6ba4:	469c      	mov	ip, r3
    6ba6:	4b10      	ldr	r3, [pc, #64]	; (6be8 <__d2b+0xb8>)
    6ba8:	4460      	add	r0, ip
    6baa:	18eb      	adds	r3, r5, r3
    6bac:	009b      	lsls	r3, r3, #2
    6bae:	18fb      	adds	r3, r7, r3
    6bb0:	6030      	str	r0, [r6, #0]
    6bb2:	6958      	ldr	r0, [r3, #20]
    6bb4:	f7ff fd4a 	bl	664c <__hi0bits>
    6bb8:	016b      	lsls	r3, r5, #5
    6bba:	1a18      	subs	r0, r3, r0
    6bbc:	9b09      	ldr	r3, [sp, #36]	; 0x24
    6bbe:	6018      	str	r0, [r3, #0]
    6bc0:	0038      	movs	r0, r7
    6bc2:	b003      	add	sp, #12
    6bc4:	bdf0      	pop	{r4, r5, r6, r7, pc}
    6bc6:	9b01      	ldr	r3, [sp, #4]
    6bc8:	2220      	movs	r2, #32
    6bca:	0019      	movs	r1, r3
    6bcc:	1a12      	subs	r2, r2, r0
    6bce:	4091      	lsls	r1, r2
    6bd0:	000a      	movs	r2, r1
    6bd2:	40c3      	lsrs	r3, r0
    6bd4:	9900      	ldr	r1, [sp, #0]
    6bd6:	9301      	str	r3, [sp, #4]
    6bd8:	430a      	orrs	r2, r1
    6bda:	617a      	str	r2, [r7, #20]
    6bdc:	e7c5      	b.n	6b6a <__d2b+0x3a>
    6bde:	46c0      	nop			; (mov r8, r8)
    6be0:	fffffbcd 	.word	0xfffffbcd
    6be4:	fffffbce 	.word	0xfffffbce
    6be8:	3fffffff 	.word	0x3fffffff

00006bec <_sbrk_r>:
    6bec:	2300      	movs	r3, #0
    6bee:	b570      	push	{r4, r5, r6, lr}
    6bf0:	4c06      	ldr	r4, [pc, #24]	; (6c0c <_sbrk_r+0x20>)
    6bf2:	0005      	movs	r5, r0
    6bf4:	0008      	movs	r0, r1
    6bf6:	6023      	str	r3, [r4, #0]
    6bf8:	f7f9 fe16 	bl	828 <_sbrk>
    6bfc:	1c43      	adds	r3, r0, #1
    6bfe:	d000      	beq.n	6c02 <_sbrk_r+0x16>
    6c00:	bd70      	pop	{r4, r5, r6, pc}
    6c02:	6823      	ldr	r3, [r4, #0]
    6c04:	2b00      	cmp	r3, #0
    6c06:	d0fb      	beq.n	6c00 <_sbrk_r+0x14>
    6c08:	602b      	str	r3, [r5, #0]
    6c0a:	e7f9      	b.n	6c00 <_sbrk_r+0x14>
    6c0c:	20000b34 	.word	0x20000b34

00006c10 <_svfprintf_r>:
    6c10:	b5f0      	push	{r4, r5, r6, r7, lr}
    6c12:	46de      	mov	lr, fp
    6c14:	4645      	mov	r5, r8
    6c16:	4657      	mov	r7, sl
    6c18:	464e      	mov	r6, r9
    6c1a:	b5e0      	push	{r5, r6, r7, lr}
    6c1c:	b0c3      	sub	sp, #268	; 0x10c
    6c1e:	000d      	movs	r5, r1
    6c20:	9106      	str	r1, [sp, #24]
    6c22:	0014      	movs	r4, r2
    6c24:	930f      	str	r3, [sp, #60]	; 0x3c
    6c26:	9009      	str	r0, [sp, #36]	; 0x24
    6c28:	f7ff f982 	bl	5f30 <_localeconv_r>
    6c2c:	6803      	ldr	r3, [r0, #0]
    6c2e:	0018      	movs	r0, r3
    6c30:	9319      	str	r3, [sp, #100]	; 0x64
    6c32:	f7fd fefb 	bl	4a2c <strlen>
    6c36:	9018      	str	r0, [sp, #96]	; 0x60
    6c38:	89ab      	ldrh	r3, [r5, #12]
    6c3a:	061b      	lsls	r3, r3, #24
    6c3c:	d505      	bpl.n	6c4a <_svfprintf_r+0x3a>
    6c3e:	692b      	ldr	r3, [r5, #16]
    6c40:	9307      	str	r3, [sp, #28]
    6c42:	2b00      	cmp	r3, #0
    6c44:	d101      	bne.n	6c4a <_svfprintf_r+0x3a>
    6c46:	f001 f863 	bl	7d10 <_svfprintf_r+0x1100>
    6c4a:	ab32      	add	r3, sp, #200	; 0xc8
    6c4c:	9325      	str	r3, [sp, #148]	; 0x94
    6c4e:	2300      	movs	r3, #0
    6c50:	46a3      	mov	fp, r4
    6c52:	af25      	add	r7, sp, #148	; 0x94
    6c54:	60bb      	str	r3, [r7, #8]
    6c56:	607b      	str	r3, [r7, #4]
    6c58:	9314      	str	r3, [sp, #80]	; 0x50
    6c5a:	9316      	str	r3, [sp, #88]	; 0x58
    6c5c:	9315      	str	r3, [sp, #84]	; 0x54
    6c5e:	ae32      	add	r6, sp, #200	; 0xc8
    6c60:	9317      	str	r3, [sp, #92]	; 0x5c
    6c62:	931a      	str	r3, [sp, #104]	; 0x68
    6c64:	930a      	str	r3, [sp, #40]	; 0x28
    6c66:	465b      	mov	r3, fp
    6c68:	781b      	ldrb	r3, [r3, #0]
    6c6a:	465c      	mov	r4, fp
    6c6c:	2b00      	cmp	r3, #0
    6c6e:	d01c      	beq.n	6caa <_svfprintf_r+0x9a>
    6c70:	2b25      	cmp	r3, #37	; 0x25
    6c72:	d102      	bne.n	6c7a <_svfprintf_r+0x6a>
    6c74:	e019      	b.n	6caa <_svfprintf_r+0x9a>
    6c76:	2b25      	cmp	r3, #37	; 0x25
    6c78:	d003      	beq.n	6c82 <_svfprintf_r+0x72>
    6c7a:	3401      	adds	r4, #1
    6c7c:	7823      	ldrb	r3, [r4, #0]
    6c7e:	2b00      	cmp	r3, #0
    6c80:	d1f9      	bne.n	6c76 <_svfprintf_r+0x66>
    6c82:	465b      	mov	r3, fp
    6c84:	1ae5      	subs	r5, r4, r3
    6c86:	d010      	beq.n	6caa <_svfprintf_r+0x9a>
    6c88:	465b      	mov	r3, fp
    6c8a:	6033      	str	r3, [r6, #0]
    6c8c:	68bb      	ldr	r3, [r7, #8]
    6c8e:	6075      	str	r5, [r6, #4]
    6c90:	195b      	adds	r3, r3, r5
    6c92:	60bb      	str	r3, [r7, #8]
    6c94:	687b      	ldr	r3, [r7, #4]
    6c96:	3301      	adds	r3, #1
    6c98:	607b      	str	r3, [r7, #4]
    6c9a:	2b07      	cmp	r3, #7
    6c9c:	dc2e      	bgt.n	6cfc <_svfprintf_r+0xec>
    6c9e:	3608      	adds	r6, #8
    6ca0:	9b0a      	ldr	r3, [sp, #40]	; 0x28
    6ca2:	469c      	mov	ip, r3
    6ca4:	44ac      	add	ip, r5
    6ca6:	4663      	mov	r3, ip
    6ca8:	930a      	str	r3, [sp, #40]	; 0x28
    6caa:	7823      	ldrb	r3, [r4, #0]
    6cac:	2b00      	cmp	r3, #0
    6cae:	d02e      	beq.n	6d0e <_svfprintf_r+0xfe>
    6cb0:	1c63      	adds	r3, r4, #1
    6cb2:	469b      	mov	fp, r3
    6cb4:	2300      	movs	r3, #0
    6cb6:	aa16      	add	r2, sp, #88	; 0x58
    6cb8:	77d3      	strb	r3, [r2, #31]
    6cba:	2201      	movs	r2, #1
    6cbc:	4252      	negs	r2, r2
    6cbe:	4692      	mov	sl, r2
    6cc0:	2200      	movs	r2, #0
    6cc2:	2100      	movs	r1, #0
    6cc4:	920b      	str	r2, [sp, #44]	; 0x2c
    6cc6:	3220      	adds	r2, #32
    6cc8:	4691      	mov	r9, r2
    6cca:	3220      	adds	r2, #32
    6ccc:	7863      	ldrb	r3, [r4, #1]
    6cce:	4688      	mov	r8, r1
    6cd0:	2000      	movs	r0, #0
    6cd2:	2400      	movs	r4, #0
    6cd4:	4694      	mov	ip, r2
    6cd6:	4659      	mov	r1, fp
    6cd8:	3101      	adds	r1, #1
    6cda:	001a      	movs	r2, r3
    6cdc:	3a20      	subs	r2, #32
    6cde:	2a58      	cmp	r2, #88	; 0x58
    6ce0:	d900      	bls.n	6ce4 <_svfprintf_r+0xd4>
    6ce2:	e2fd      	b.n	72e0 <_svfprintf_r+0x6d0>
    6ce4:	4dd7      	ldr	r5, [pc, #860]	; (7044 <_svfprintf_r+0x434>)
    6ce6:	0092      	lsls	r2, r2, #2
    6ce8:	58aa      	ldr	r2, [r5, r2]
    6cea:	4697      	mov	pc, r2
    6cec:	9b0b      	ldr	r3, [sp, #44]	; 0x2c
    6cee:	920f      	str	r2, [sp, #60]	; 0x3c
    6cf0:	425b      	negs	r3, r3
    6cf2:	930b      	str	r3, [sp, #44]	; 0x2c
    6cf4:	2304      	movs	r3, #4
    6cf6:	431c      	orrs	r4, r3
    6cf8:	780b      	ldrb	r3, [r1, #0]
    6cfa:	e7ed      	b.n	6cd8 <_svfprintf_r+0xc8>
    6cfc:	003a      	movs	r2, r7
    6cfe:	9906      	ldr	r1, [sp, #24]
    6d00:	9809      	ldr	r0, [sp, #36]	; 0x24
    6d02:	f001 fd53 	bl	87ac <__ssprint_r>
    6d06:	2800      	cmp	r0, #0
    6d08:	d109      	bne.n	6d1e <_svfprintf_r+0x10e>
    6d0a:	ae32      	add	r6, sp, #200	; 0xc8
    6d0c:	e7c8      	b.n	6ca0 <_svfprintf_r+0x90>
    6d0e:	68bb      	ldr	r3, [r7, #8]
    6d10:	2b00      	cmp	r3, #0
    6d12:	d004      	beq.n	6d1e <_svfprintf_r+0x10e>
    6d14:	003a      	movs	r2, r7
    6d16:	9906      	ldr	r1, [sp, #24]
    6d18:	9809      	ldr	r0, [sp, #36]	; 0x24
    6d1a:	f001 fd47 	bl	87ac <__ssprint_r>
    6d1e:	9b06      	ldr	r3, [sp, #24]
    6d20:	899b      	ldrh	r3, [r3, #12]
    6d22:	065b      	lsls	r3, r3, #25
    6d24:	d501      	bpl.n	6d2a <_svfprintf_r+0x11a>
    6d26:	f001 f8ce 	bl	7ec6 <_svfprintf_r+0x12b6>
    6d2a:	980a      	ldr	r0, [sp, #40]	; 0x28
    6d2c:	b043      	add	sp, #268	; 0x10c
    6d2e:	bc3c      	pop	{r2, r3, r4, r5}
    6d30:	4690      	mov	r8, r2
    6d32:	4699      	mov	r9, r3
    6d34:	46a2      	mov	sl, r4
    6d36:	46ab      	mov	fp, r5
    6d38:	bdf0      	pop	{r4, r5, r6, r7, pc}
    6d3a:	2201      	movs	r2, #1
    6d3c:	780b      	ldrb	r3, [r1, #0]
    6d3e:	4690      	mov	r8, r2
    6d40:	202b      	movs	r0, #43	; 0x2b
    6d42:	e7c9      	b.n	6cd8 <_svfprintf_r+0xc8>
    6d44:	1c4b      	adds	r3, r1, #1
    6d46:	469b      	mov	fp, r3
    6d48:	780b      	ldrb	r3, [r1, #0]
    6d4a:	2b2a      	cmp	r3, #42	; 0x2a
    6d4c:	d101      	bne.n	6d52 <_svfprintf_r+0x142>
    6d4e:	f001 fa1b 	bl	8188 <_svfprintf_r+0x1578>
    6d52:	001a      	movs	r2, r3
    6d54:	2100      	movs	r1, #0
    6d56:	3a30      	subs	r2, #48	; 0x30
    6d58:	468a      	mov	sl, r1
    6d5a:	4659      	mov	r1, fp
    6d5c:	2a09      	cmp	r2, #9
    6d5e:	d8bc      	bhi.n	6cda <_svfprintf_r+0xca>
    6d60:	0003      	movs	r3, r0
    6d62:	0011      	movs	r1, r2
    6d64:	4650      	mov	r0, sl
    6d66:	465a      	mov	r2, fp
    6d68:	469a      	mov	sl, r3
    6d6a:	46a3      	mov	fp, r4
    6d6c:	0083      	lsls	r3, r0, #2
    6d6e:	181b      	adds	r3, r3, r0
    6d70:	7814      	ldrb	r4, [r2, #0]
    6d72:	005b      	lsls	r3, r3, #1
    6d74:	1858      	adds	r0, r3, r1
    6d76:	0021      	movs	r1, r4
    6d78:	1c53      	adds	r3, r2, #1
    6d7a:	3930      	subs	r1, #48	; 0x30
    6d7c:	001a      	movs	r2, r3
    6d7e:	2909      	cmp	r1, #9
    6d80:	d9f4      	bls.n	6d6c <_svfprintf_r+0x15c>
    6d82:	4652      	mov	r2, sl
    6d84:	0019      	movs	r1, r3
    6d86:	4682      	mov	sl, r0
    6d88:	0023      	movs	r3, r4
    6d8a:	0010      	movs	r0, r2
    6d8c:	465c      	mov	r4, fp
    6d8e:	e7a4      	b.n	6cda <_svfprintf_r+0xca>
    6d90:	2380      	movs	r3, #128	; 0x80
    6d92:	431c      	orrs	r4, r3
    6d94:	780b      	ldrb	r3, [r1, #0]
    6d96:	e79f      	b.n	6cd8 <_svfprintf_r+0xc8>
    6d98:	468b      	mov	fp, r1
    6d9a:	4641      	mov	r1, r8
    6d9c:	9312      	str	r3, [sp, #72]	; 0x48
    6d9e:	2900      	cmp	r1, #0
    6da0:	d001      	beq.n	6da6 <_svfprintf_r+0x196>
    6da2:	f001 fa1f 	bl	81e4 <_svfprintf_r+0x15d4>
    6da6:	2310      	movs	r3, #16
    6da8:	431c      	orrs	r4, r3
    6daa:	9a0f      	ldr	r2, [sp, #60]	; 0x3c
    6dac:	06a3      	lsls	r3, r4, #26
    6dae:	d501      	bpl.n	6db4 <_svfprintf_r+0x1a4>
    6db0:	f000 fe88 	bl	7ac4 <_svfprintf_r+0xeb4>
    6db4:	06e3      	lsls	r3, r4, #27
    6db6:	d501      	bpl.n	6dbc <_svfprintf_r+0x1ac>
    6db8:	f000 fd80 	bl	78bc <_svfprintf_r+0xcac>
    6dbc:	0663      	lsls	r3, r4, #25
    6dbe:	d401      	bmi.n	6dc4 <_svfprintf_r+0x1b4>
    6dc0:	f000 fd7c 	bl	78bc <_svfprintf_r+0xcac>
    6dc4:	2100      	movs	r1, #0
    6dc6:	5e53      	ldrsh	r3, [r2, r1]
    6dc8:	930c      	str	r3, [sp, #48]	; 0x30
    6dca:	3204      	adds	r2, #4
    6dcc:	17db      	asrs	r3, r3, #31
    6dce:	930d      	str	r3, [sp, #52]	; 0x34
    6dd0:	920f      	str	r2, [sp, #60]	; 0x3c
    6dd2:	d501      	bpl.n	6dd8 <_svfprintf_r+0x1c8>
    6dd4:	f000 fe86 	bl	7ae4 <_svfprintf_r+0xed4>
    6dd8:	990c      	ldr	r1, [sp, #48]	; 0x30
    6dda:	9a0d      	ldr	r2, [sp, #52]	; 0x34
    6ddc:	0008      	movs	r0, r1
    6dde:	ab16      	add	r3, sp, #88	; 0x58
    6de0:	7fdb      	ldrb	r3, [r3, #31]
    6de2:	4310      	orrs	r0, r2
    6de4:	4698      	mov	r8, r3
    6de6:	0002      	movs	r2, r0
    6de8:	2301      	movs	r3, #1
    6dea:	4651      	mov	r1, sl
    6dec:	3101      	adds	r1, #1
    6dee:	d100      	bne.n	6df2 <_svfprintf_r+0x1e2>
    6df0:	e0ff      	b.n	6ff2 <_svfprintf_r+0x3e2>
    6df2:	2180      	movs	r1, #128	; 0x80
    6df4:	0020      	movs	r0, r4
    6df6:	4388      	bics	r0, r1
    6df8:	9008      	str	r0, [sp, #32]
    6dfa:	2a00      	cmp	r2, #0
    6dfc:	d000      	beq.n	6e00 <_svfprintf_r+0x1f0>
    6dfe:	e0fc      	b.n	6ffa <_svfprintf_r+0x3ea>
    6e00:	4652      	mov	r2, sl
    6e02:	2a00      	cmp	r2, #0
    6e04:	d001      	beq.n	6e0a <_svfprintf_r+0x1fa>
    6e06:	f000 fc2c 	bl	7662 <_svfprintf_r+0xa52>
    6e0a:	2b00      	cmp	r3, #0
    6e0c:	d001      	beq.n	6e12 <_svfprintf_r+0x202>
    6e0e:	f000 fd04 	bl	781a <_svfprintf_r+0xc0a>
    6e12:	2001      	movs	r0, #1
    6e14:	ab32      	add	r3, sp, #200	; 0xc8
    6e16:	4020      	ands	r0, r4
    6e18:	900e      	str	r0, [sp, #56]	; 0x38
    6e1a:	9311      	str	r3, [sp, #68]	; 0x44
    6e1c:	d008      	beq.n	6e30 <_svfprintf_r+0x220>
    6e1e:	2327      	movs	r3, #39	; 0x27
    6e20:	2130      	movs	r1, #48	; 0x30
    6e22:	aa28      	add	r2, sp, #160	; 0xa0
    6e24:	54d1      	strb	r1, [r2, r3]
    6e26:	aa16      	add	r2, sp, #88	; 0x58
    6e28:	4694      	mov	ip, r2
    6e2a:	3348      	adds	r3, #72	; 0x48
    6e2c:	4463      	add	r3, ip
    6e2e:	9311      	str	r3, [sp, #68]	; 0x44
    6e30:	4653      	mov	r3, sl
    6e32:	9a0e      	ldr	r2, [sp, #56]	; 0x38
    6e34:	9307      	str	r3, [sp, #28]
    6e36:	4592      	cmp	sl, r2
    6e38:	da00      	bge.n	6e3c <_svfprintf_r+0x22c>
    6e3a:	9207      	str	r2, [sp, #28]
    6e3c:	2300      	movs	r3, #0
    6e3e:	9313      	str	r3, [sp, #76]	; 0x4c
    6e40:	4643      	mov	r3, r8
    6e42:	2b00      	cmp	r3, #0
    6e44:	d002      	beq.n	6e4c <_svfprintf_r+0x23c>
    6e46:	9b07      	ldr	r3, [sp, #28]
    6e48:	3301      	adds	r3, #1
    6e4a:	9307      	str	r3, [sp, #28]
    6e4c:	2302      	movs	r3, #2
    6e4e:	9a08      	ldr	r2, [sp, #32]
    6e50:	401a      	ands	r2, r3
    6e52:	4691      	mov	r9, r2
    6e54:	d002      	beq.n	6e5c <_svfprintf_r+0x24c>
    6e56:	9b07      	ldr	r3, [sp, #28]
    6e58:	3302      	adds	r3, #2
    6e5a:	9307      	str	r3, [sp, #28]
    6e5c:	2384      	movs	r3, #132	; 0x84
    6e5e:	9a08      	ldr	r2, [sp, #32]
    6e60:	401a      	ands	r2, r3
    6e62:	9210      	str	r2, [sp, #64]	; 0x40
    6e64:	d000      	beq.n	6e68 <_svfprintf_r+0x258>
    6e66:	e24d      	b.n	7304 <_svfprintf_r+0x6f4>
    6e68:	9b0b      	ldr	r3, [sp, #44]	; 0x2c
    6e6a:	9a07      	ldr	r2, [sp, #28]
    6e6c:	1a9c      	subs	r4, r3, r2
    6e6e:	2c00      	cmp	r4, #0
    6e70:	dc00      	bgt.n	6e74 <_svfprintf_r+0x264>
    6e72:	e247      	b.n	7304 <_svfprintf_r+0x6f4>
    6e74:	4974      	ldr	r1, [pc, #464]	; (7048 <_svfprintf_r+0x438>)
    6e76:	68ba      	ldr	r2, [r7, #8]
    6e78:	687b      	ldr	r3, [r7, #4]
    6e7a:	4688      	mov	r8, r1
    6e7c:	2c10      	cmp	r4, #16
    6e7e:	dd1f      	ble.n	6ec0 <_svfprintf_r+0x2b0>
    6e80:	0031      	movs	r1, r6
    6e82:	2510      	movs	r5, #16
    6e84:	4646      	mov	r6, r8
    6e86:	e003      	b.n	6e90 <_svfprintf_r+0x280>
    6e88:	3c10      	subs	r4, #16
    6e8a:	3108      	adds	r1, #8
    6e8c:	2c10      	cmp	r4, #16
    6e8e:	dd15      	ble.n	6ebc <_svfprintf_r+0x2ac>
    6e90:	3210      	adds	r2, #16
    6e92:	3301      	adds	r3, #1
    6e94:	600e      	str	r6, [r1, #0]
    6e96:	604d      	str	r5, [r1, #4]
    6e98:	60ba      	str	r2, [r7, #8]
    6e9a:	607b      	str	r3, [r7, #4]
    6e9c:	2b07      	cmp	r3, #7
    6e9e:	ddf3      	ble.n	6e88 <_svfprintf_r+0x278>
    6ea0:	003a      	movs	r2, r7
    6ea2:	9906      	ldr	r1, [sp, #24]
    6ea4:	9809      	ldr	r0, [sp, #36]	; 0x24
    6ea6:	f001 fc81 	bl	87ac <__ssprint_r>
    6eaa:	2800      	cmp	r0, #0
    6eac:	d000      	beq.n	6eb0 <_svfprintf_r+0x2a0>
    6eae:	e736      	b.n	6d1e <_svfprintf_r+0x10e>
    6eb0:	3c10      	subs	r4, #16
    6eb2:	68ba      	ldr	r2, [r7, #8]
    6eb4:	687b      	ldr	r3, [r7, #4]
    6eb6:	a932      	add	r1, sp, #200	; 0xc8
    6eb8:	2c10      	cmp	r4, #16
    6eba:	dce9      	bgt.n	6e90 <_svfprintf_r+0x280>
    6ebc:	46b0      	mov	r8, r6
    6ebe:	000e      	movs	r6, r1
    6ec0:	4641      	mov	r1, r8
    6ec2:	6074      	str	r4, [r6, #4]
    6ec4:	3301      	adds	r3, #1
    6ec6:	18a4      	adds	r4, r4, r2
    6ec8:	6031      	str	r1, [r6, #0]
    6eca:	60bc      	str	r4, [r7, #8]
    6ecc:	607b      	str	r3, [r7, #4]
    6ece:	2b07      	cmp	r3, #7
    6ed0:	dd01      	ble.n	6ed6 <_svfprintf_r+0x2c6>
    6ed2:	f000 fca8 	bl	7826 <_svfprintf_r+0xc16>
    6ed6:	ab16      	add	r3, sp, #88	; 0x58
    6ed8:	7fdb      	ldrb	r3, [r3, #31]
    6eda:	3608      	adds	r6, #8
    6edc:	4698      	mov	r8, r3
    6ede:	e212      	b.n	7306 <_svfprintf_r+0x6f6>
    6ee0:	468b      	mov	fp, r1
    6ee2:	4641      	mov	r1, r8
    6ee4:	9312      	str	r3, [sp, #72]	; 0x48
    6ee6:	2900      	cmp	r1, #0
    6ee8:	d001      	beq.n	6eee <_svfprintf_r+0x2de>
    6eea:	f001 f977 	bl	81dc <_svfprintf_r+0x15cc>
    6eee:	2207      	movs	r2, #7
    6ef0:	9b0f      	ldr	r3, [sp, #60]	; 0x3c
    6ef2:	3307      	adds	r3, #7
    6ef4:	4393      	bics	r3, r2
    6ef6:	3201      	adds	r2, #1
    6ef8:	4694      	mov	ip, r2
    6efa:	449c      	add	ip, r3
    6efc:	4662      	mov	r2, ip
    6efe:	920f      	str	r2, [sp, #60]	; 0x3c
    6f00:	681a      	ldr	r2, [r3, #0]
    6f02:	9216      	str	r2, [sp, #88]	; 0x58
    6f04:	685b      	ldr	r3, [r3, #4]
    6f06:	2201      	movs	r2, #1
    6f08:	9315      	str	r3, [sp, #84]	; 0x54
    6f0a:	9b15      	ldr	r3, [sp, #84]	; 0x54
    6f0c:	9d16      	ldr	r5, [sp, #88]	; 0x58
    6f0e:	005b      	lsls	r3, r3, #1
    6f10:	085b      	lsrs	r3, r3, #1
    6f12:	4698      	mov	r8, r3
    6f14:	4252      	negs	r2, r2
    6f16:	4b4d      	ldr	r3, [pc, #308]	; (704c <_svfprintf_r+0x43c>)
    6f18:	0028      	movs	r0, r5
    6f1a:	4641      	mov	r1, r8
    6f1c:	f001 fdce 	bl	8abc <__aeabi_dcmpun>
    6f20:	2800      	cmp	r0, #0
    6f22:	d001      	beq.n	6f28 <_svfprintf_r+0x318>
    6f24:	f000 fdfd 	bl	7b22 <_svfprintf_r+0xf12>
    6f28:	2201      	movs	r2, #1
    6f2a:	4b48      	ldr	r3, [pc, #288]	; (704c <_svfprintf_r+0x43c>)
    6f2c:	4252      	negs	r2, r2
    6f2e:	0028      	movs	r0, r5
    6f30:	4641      	mov	r1, r8
    6f32:	f7fd fb83 	bl	463c <__aeabi_dcmple>
    6f36:	2800      	cmp	r0, #0
    6f38:	d001      	beq.n	6f3e <_svfprintf_r+0x32e>
    6f3a:	f000 fdf2 	bl	7b22 <_svfprintf_r+0xf12>
    6f3e:	2200      	movs	r2, #0
    6f40:	2300      	movs	r3, #0
    6f42:	9816      	ldr	r0, [sp, #88]	; 0x58
    6f44:	9915      	ldr	r1, [sp, #84]	; 0x54
    6f46:	f7fd fb6f 	bl	4628 <__aeabi_dcmplt>
    6f4a:	2800      	cmp	r0, #0
    6f4c:	d001      	beq.n	6f52 <_svfprintf_r+0x342>
    6f4e:	f001 f822 	bl	7f96 <_svfprintf_r+0x1386>
    6f52:	ab16      	add	r3, sp, #88	; 0x58
    6f54:	7fdb      	ldrb	r3, [r3, #31]
    6f56:	4698      	mov	r8, r3
    6f58:	9b12      	ldr	r3, [sp, #72]	; 0x48
    6f5a:	2b47      	cmp	r3, #71	; 0x47
    6f5c:	dd01      	ble.n	6f62 <_svfprintf_r+0x352>
    6f5e:	f000 fec7 	bl	7cf0 <_svfprintf_r+0x10e0>
    6f62:	4b3b      	ldr	r3, [pc, #236]	; (7050 <_svfprintf_r+0x440>)
    6f64:	9311      	str	r3, [sp, #68]	; 0x44
    6f66:	2380      	movs	r3, #128	; 0x80
    6f68:	439c      	bics	r4, r3
    6f6a:	3b7d      	subs	r3, #125	; 0x7d
    6f6c:	9307      	str	r3, [sp, #28]
    6f6e:	930e      	str	r3, [sp, #56]	; 0x38
    6f70:	2300      	movs	r3, #0
    6f72:	9408      	str	r4, [sp, #32]
    6f74:	469a      	mov	sl, r3
    6f76:	9313      	str	r3, [sp, #76]	; 0x4c
    6f78:	e762      	b.n	6e40 <_svfprintf_r+0x230>
    6f7a:	2200      	movs	r2, #0
    6f7c:	3b30      	subs	r3, #48	; 0x30
    6f7e:	0015      	movs	r5, r2
    6f80:	001a      	movs	r2, r3
    6f82:	0003      	movs	r3, r0
    6f84:	9407      	str	r4, [sp, #28]
    6f86:	0008      	movs	r0, r1
    6f88:	002c      	movs	r4, r5
    6f8a:	469b      	mov	fp, r3
    6f8c:	00a3      	lsls	r3, r4, #2
    6f8e:	191c      	adds	r4, r3, r4
    6f90:	7803      	ldrb	r3, [r0, #0]
    6f92:	0064      	lsls	r4, r4, #1
    6f94:	1914      	adds	r4, r2, r4
    6f96:	001a      	movs	r2, r3
    6f98:	3101      	adds	r1, #1
    6f9a:	3a30      	subs	r2, #48	; 0x30
    6f9c:	0008      	movs	r0, r1
    6f9e:	2a09      	cmp	r2, #9
    6fa0:	d9f4      	bls.n	6f8c <_svfprintf_r+0x37c>
    6fa2:	940b      	str	r4, [sp, #44]	; 0x2c
    6fa4:	4658      	mov	r0, fp
    6fa6:	9c07      	ldr	r4, [sp, #28]
    6fa8:	e697      	b.n	6cda <_svfprintf_r+0xca>
    6faa:	2308      	movs	r3, #8
    6fac:	431c      	orrs	r4, r3
    6fae:	780b      	ldrb	r3, [r1, #0]
    6fb0:	e692      	b.n	6cd8 <_svfprintf_r+0xc8>
    6fb2:	9312      	str	r3, [sp, #72]	; 0x48
    6fb4:	2310      	movs	r3, #16
    6fb6:	431c      	orrs	r4, r3
    6fb8:	468b      	mov	fp, r1
    6fba:	06a3      	lsls	r3, r4, #26
    6fbc:	d500      	bpl.n	6fc0 <_svfprintf_r+0x3b0>
    6fbe:	e17b      	b.n	72b8 <_svfprintf_r+0x6a8>
    6fc0:	06e3      	lsls	r3, r4, #27
    6fc2:	d501      	bpl.n	6fc8 <_svfprintf_r+0x3b8>
    6fc4:	f000 fc7e 	bl	78c4 <_svfprintf_r+0xcb4>
    6fc8:	0663      	lsls	r3, r4, #25
    6fca:	d401      	bmi.n	6fd0 <_svfprintf_r+0x3c0>
    6fcc:	f000 fc7a 	bl	78c4 <_svfprintf_r+0xcb4>
    6fd0:	9b0f      	ldr	r3, [sp, #60]	; 0x3c
    6fd2:	881a      	ldrh	r2, [r3, #0]
    6fd4:	920c      	str	r2, [sp, #48]	; 0x30
    6fd6:	2200      	movs	r2, #0
    6fd8:	3304      	adds	r3, #4
    6fda:	930f      	str	r3, [sp, #60]	; 0x3c
    6fdc:	2300      	movs	r3, #0
    6fde:	920d      	str	r2, [sp, #52]	; 0x34
    6fe0:	9a0c      	ldr	r2, [sp, #48]	; 0x30
    6fe2:	2100      	movs	r1, #0
    6fe4:	a816      	add	r0, sp, #88	; 0x58
    6fe6:	77c1      	strb	r1, [r0, #31]
    6fe8:	4688      	mov	r8, r1
    6fea:	4651      	mov	r1, sl
    6fec:	3101      	adds	r1, #1
    6fee:	d000      	beq.n	6ff2 <_svfprintf_r+0x3e2>
    6ff0:	e6ff      	b.n	6df2 <_svfprintf_r+0x1e2>
    6ff2:	2a00      	cmp	r2, #0
    6ff4:	d100      	bne.n	6ff8 <_svfprintf_r+0x3e8>
    6ff6:	e335      	b.n	7664 <_svfprintf_r+0xa54>
    6ff8:	9408      	str	r4, [sp, #32]
    6ffa:	2b01      	cmp	r3, #1
    6ffc:	d100      	bne.n	7000 <_svfprintf_r+0x3f0>
    6ffe:	e3e5      	b.n	77cc <_svfprintf_r+0xbbc>
    7000:	2b02      	cmp	r3, #2
    7002:	d000      	beq.n	7006 <_svfprintf_r+0x3f6>
    7004:	e362      	b.n	76cc <_svfprintf_r+0xabc>
    7006:	9c17      	ldr	r4, [sp, #92]	; 0x5c
    7008:	200f      	movs	r0, #15
    700a:	46a1      	mov	r9, r4
    700c:	46b4      	mov	ip, r6
    700e:	ab32      	add	r3, sp, #200	; 0xc8
    7010:	0019      	movs	r1, r3
    7012:	9a0c      	ldr	r2, [sp, #48]	; 0x30
    7014:	9b0d      	ldr	r3, [sp, #52]	; 0x34
    7016:	0004      	movs	r4, r0
    7018:	464d      	mov	r5, r9
    701a:	4014      	ands	r4, r2
    701c:	5d2c      	ldrb	r4, [r5, r4]
    701e:	071e      	lsls	r6, r3, #28
    7020:	0915      	lsrs	r5, r2, #4
    7022:	3901      	subs	r1, #1
    7024:	432e      	orrs	r6, r5
    7026:	700c      	strb	r4, [r1, #0]
    7028:	091c      	lsrs	r4, r3, #4
    702a:	0023      	movs	r3, r4
    702c:	0034      	movs	r4, r6
    702e:	0032      	movs	r2, r6
    7030:	431c      	orrs	r4, r3
    7032:	d1f0      	bne.n	7016 <_svfprintf_r+0x406>
    7034:	920c      	str	r2, [sp, #48]	; 0x30
    7036:	930d      	str	r3, [sp, #52]	; 0x34
    7038:	ab32      	add	r3, sp, #200	; 0xc8
    703a:	1a5b      	subs	r3, r3, r1
    703c:	9111      	str	r1, [sp, #68]	; 0x44
    703e:	4666      	mov	r6, ip
    7040:	930e      	str	r3, [sp, #56]	; 0x38
    7042:	e6f5      	b.n	6e30 <_svfprintf_r+0x220>
    7044:	0000917c 	.word	0x0000917c
    7048:	00009320 	.word	0x00009320
    704c:	7fefffff 	.word	0x7fefffff
    7050:	000092e0 	.word	0x000092e0
    7054:	9312      	str	r3, [sp, #72]	; 0x48
    7056:	2310      	movs	r3, #16
    7058:	431c      	orrs	r4, r3
    705a:	468b      	mov	fp, r1
    705c:	06a3      	lsls	r3, r4, #26
    705e:	d500      	bpl.n	7062 <_svfprintf_r+0x452>
    7060:	e111      	b.n	7286 <_svfprintf_r+0x676>
    7062:	06e3      	lsls	r3, r4, #27
    7064:	d501      	bpl.n	706a <_svfprintf_r+0x45a>
    7066:	f000 fc31 	bl	78cc <_svfprintf_r+0xcbc>
    706a:	0663      	lsls	r3, r4, #25
    706c:	d401      	bmi.n	7072 <_svfprintf_r+0x462>
    706e:	f000 fc2d 	bl	78cc <_svfprintf_r+0xcbc>
    7072:	9b0f      	ldr	r3, [sp, #60]	; 0x3c
    7074:	881a      	ldrh	r2, [r3, #0]
    7076:	920c      	str	r2, [sp, #48]	; 0x30
    7078:	2200      	movs	r2, #0
    707a:	3304      	adds	r3, #4
    707c:	920d      	str	r2, [sp, #52]	; 0x34
    707e:	930f      	str	r3, [sp, #60]	; 0x3c
    7080:	9a0c      	ldr	r2, [sp, #48]	; 0x30
    7082:	2301      	movs	r3, #1
    7084:	e7ad      	b.n	6fe2 <_svfprintf_r+0x3d2>
    7086:	468b      	mov	fp, r1
    7088:	4641      	mov	r1, r8
    708a:	9312      	str	r3, [sp, #72]	; 0x48
    708c:	2900      	cmp	r1, #0
    708e:	d001      	beq.n	7094 <_svfprintf_r+0x484>
    7090:	f001 f890 	bl	81b4 <_svfprintf_r+0x15a4>
    7094:	4bb8      	ldr	r3, [pc, #736]	; (7378 <_svfprintf_r+0x768>)
    7096:	9317      	str	r3, [sp, #92]	; 0x5c
    7098:	06a3      	lsls	r3, r4, #26
    709a:	d500      	bpl.n	709e <_svfprintf_r+0x48e>
    709c:	e0ab      	b.n	71f6 <_svfprintf_r+0x5e6>
    709e:	06e3      	lsls	r3, r4, #27
    70a0:	d501      	bpl.n	70a6 <_svfprintf_r+0x496>
    70a2:	f000 fc07 	bl	78b4 <_svfprintf_r+0xca4>
    70a6:	0663      	lsls	r3, r4, #25
    70a8:	d401      	bmi.n	70ae <_svfprintf_r+0x49e>
    70aa:	f000 fc03 	bl	78b4 <_svfprintf_r+0xca4>
    70ae:	9b0f      	ldr	r3, [sp, #60]	; 0x3c
    70b0:	881a      	ldrh	r2, [r3, #0]
    70b2:	920c      	str	r2, [sp, #48]	; 0x30
    70b4:	2200      	movs	r2, #0
    70b6:	3304      	adds	r3, #4
    70b8:	920d      	str	r2, [sp, #52]	; 0x34
    70ba:	930f      	str	r3, [sp, #60]	; 0x3c
    70bc:	07e3      	lsls	r3, r4, #31
    70be:	d400      	bmi.n	70c2 <_svfprintf_r+0x4b2>
    70c0:	e0a9      	b.n	7216 <_svfprintf_r+0x606>
    70c2:	990c      	ldr	r1, [sp, #48]	; 0x30
    70c4:	9a0d      	ldr	r2, [sp, #52]	; 0x34
    70c6:	000b      	movs	r3, r1
    70c8:	4313      	orrs	r3, r2
    70ca:	001a      	movs	r2, r3
    70cc:	2302      	movs	r3, #2
    70ce:	2a00      	cmp	r2, #0
    70d0:	d100      	bne.n	70d4 <_svfprintf_r+0x4c4>
    70d2:	e786      	b.n	6fe2 <_svfprintf_r+0x3d2>
    70d4:	2030      	movs	r0, #48	; 0x30
    70d6:	a91e      	add	r1, sp, #120	; 0x78
    70d8:	7008      	strb	r0, [r1, #0]
    70da:	2548      	movs	r5, #72	; 0x48
    70dc:	4668      	mov	r0, sp
    70de:	1940      	adds	r0, r0, r5
    70e0:	7800      	ldrb	r0, [r0, #0]
    70e2:	431c      	orrs	r4, r3
    70e4:	7048      	strb	r0, [r1, #1]
    70e6:	e77c      	b.n	6fe2 <_svfprintf_r+0x3d2>
    70e8:	468b      	mov	fp, r1
    70ea:	4641      	mov	r1, r8
    70ec:	2900      	cmp	r1, #0
    70ee:	d001      	beq.n	70f4 <_svfprintf_r+0x4e4>
    70f0:	f001 f883 	bl	81fa <_svfprintf_r+0x15ea>
    70f4:	06a3      	lsls	r3, r4, #26
    70f6:	d501      	bpl.n	70fc <_svfprintf_r+0x4ec>
    70f8:	f000 fde9 	bl	7cce <_svfprintf_r+0x10be>
    70fc:	06e3      	lsls	r3, r4, #27
    70fe:	d501      	bpl.n	7104 <_svfprintf_r+0x4f4>
    7100:	f000 fd9b 	bl	7c3a <_svfprintf_r+0x102a>
    7104:	0663      	lsls	r3, r4, #25
    7106:	d401      	bmi.n	710c <_svfprintf_r+0x4fc>
    7108:	f000 fd97 	bl	7c3a <_svfprintf_r+0x102a>
    710c:	4669      	mov	r1, sp
    710e:	9b0f      	ldr	r3, [sp, #60]	; 0x3c
    7110:	8d09      	ldrh	r1, [r1, #40]	; 0x28
    7112:	681a      	ldr	r2, [r3, #0]
    7114:	3304      	adds	r3, #4
    7116:	9207      	str	r2, [sp, #28]
    7118:	8011      	strh	r1, [r2, #0]
    711a:	930f      	str	r3, [sp, #60]	; 0x3c
    711c:	e5a3      	b.n	6c66 <_svfprintf_r+0x56>
    711e:	464b      	mov	r3, r9
    7120:	431c      	orrs	r4, r3
    7122:	780b      	ldrb	r3, [r1, #0]
    7124:	e5d8      	b.n	6cd8 <_svfprintf_r+0xc8>
    7126:	9312      	str	r3, [sp, #72]	; 0x48
    7128:	9b0f      	ldr	r3, [sp, #60]	; 0x3c
    712a:	468b      	mov	fp, r1
    712c:	1d1d      	adds	r5, r3, #4
    712e:	681b      	ldr	r3, [r3, #0]
    7130:	a916      	add	r1, sp, #88	; 0x58
    7132:	001a      	movs	r2, r3
    7134:	9311      	str	r3, [sp, #68]	; 0x44
    7136:	2300      	movs	r3, #0
    7138:	77cb      	strb	r3, [r1, #31]
    713a:	2a00      	cmp	r2, #0
    713c:	d101      	bne.n	7142 <_svfprintf_r+0x532>
    713e:	f000 fefb 	bl	7f38 <_svfprintf_r+0x1328>
    7142:	4653      	mov	r3, sl
    7144:	3301      	adds	r3, #1
    7146:	d101      	bne.n	714c <_svfprintf_r+0x53c>
    7148:	f000 fe38 	bl	7dbc <_svfprintf_r+0x11ac>
    714c:	4652      	mov	r2, sl
    714e:	2100      	movs	r1, #0
    7150:	9811      	ldr	r0, [sp, #68]	; 0x44
    7152:	f7ff f9b3 	bl	64bc <memchr>
    7156:	2800      	cmp	r0, #0
    7158:	d101      	bne.n	715e <_svfprintf_r+0x54e>
    715a:	f000 ff54 	bl	8006 <_svfprintf_r+0x13f6>
    715e:	9b11      	ldr	r3, [sp, #68]	; 0x44
    7160:	1ac3      	subs	r3, r0, r3
    7162:	001a      	movs	r2, r3
    7164:	930e      	str	r3, [sp, #56]	; 0x38
    7166:	43db      	mvns	r3, r3
    7168:	17db      	asrs	r3, r3, #31
    716a:	401a      	ands	r2, r3
    716c:	ab16      	add	r3, sp, #88	; 0x58
    716e:	7fdb      	ldrb	r3, [r3, #31]
    7170:	9207      	str	r2, [sp, #28]
    7172:	4698      	mov	r8, r3
    7174:	2300      	movs	r3, #0
    7176:	950f      	str	r5, [sp, #60]	; 0x3c
    7178:	9408      	str	r4, [sp, #32]
    717a:	469a      	mov	sl, r3
    717c:	9313      	str	r3, [sp, #76]	; 0x4c
    717e:	e65f      	b.n	6e40 <_svfprintf_r+0x230>
    7180:	9a0f      	ldr	r2, [sp, #60]	; 0x3c
    7182:	9312      	str	r3, [sp, #72]	; 0x48
    7184:	6813      	ldr	r3, [r2, #0]
    7186:	ad28      	add	r5, sp, #160	; 0xa0
    7188:	9307      	str	r3, [sp, #28]
    718a:	466b      	mov	r3, sp
    718c:	7f1b      	ldrb	r3, [r3, #28]
    718e:	468b      	mov	fp, r1
    7190:	702b      	strb	r3, [r5, #0]
    7192:	2300      	movs	r3, #0
    7194:	a916      	add	r1, sp, #88	; 0x58
    7196:	77cb      	strb	r3, [r1, #31]
    7198:	0013      	movs	r3, r2
    719a:	3304      	adds	r3, #4
    719c:	930f      	str	r3, [sp, #60]	; 0x3c
    719e:	2300      	movs	r3, #0
    71a0:	9408      	str	r4, [sp, #32]
    71a2:	4698      	mov	r8, r3
    71a4:	3301      	adds	r3, #1
    71a6:	9307      	str	r3, [sp, #28]
    71a8:	930e      	str	r3, [sp, #56]	; 0x38
    71aa:	2300      	movs	r3, #0
    71ac:	9511      	str	r5, [sp, #68]	; 0x44
    71ae:	469a      	mov	sl, r3
    71b0:	9313      	str	r3, [sp, #76]	; 0x4c
    71b2:	e64b      	b.n	6e4c <_svfprintf_r+0x23c>
    71b4:	468b      	mov	fp, r1
    71b6:	4641      	mov	r1, r8
    71b8:	9312      	str	r3, [sp, #72]	; 0x48
    71ba:	2900      	cmp	r1, #0
    71bc:	d100      	bne.n	71c0 <_svfprintf_r+0x5b0>
    71be:	e5f4      	b.n	6daa <_svfprintf_r+0x19a>
    71c0:	ab16      	add	r3, sp, #88	; 0x58
    71c2:	77d8      	strb	r0, [r3, #31]
    71c4:	e5f1      	b.n	6daa <_svfprintf_r+0x19a>
    71c6:	4663      	mov	r3, ip
    71c8:	431c      	orrs	r4, r3
    71ca:	780b      	ldrb	r3, [r1, #0]
    71cc:	e584      	b.n	6cd8 <_svfprintf_r+0xc8>
    71ce:	780b      	ldrb	r3, [r1, #0]
    71d0:	2b6c      	cmp	r3, #108	; 0x6c
    71d2:	d101      	bne.n	71d8 <_svfprintf_r+0x5c8>
    71d4:	f000 fd86 	bl	7ce4 <_svfprintf_r+0x10d4>
    71d8:	2210      	movs	r2, #16
    71da:	4314      	orrs	r4, r2
    71dc:	e57c      	b.n	6cd8 <_svfprintf_r+0xc8>
    71de:	468b      	mov	fp, r1
    71e0:	4641      	mov	r1, r8
    71e2:	9312      	str	r3, [sp, #72]	; 0x48
    71e4:	2900      	cmp	r1, #0
    71e6:	d001      	beq.n	71ec <_svfprintf_r+0x5dc>
    71e8:	f000 ffe8 	bl	81bc <_svfprintf_r+0x15ac>
    71ec:	4b63      	ldr	r3, [pc, #396]	; (737c <_svfprintf_r+0x76c>)
    71ee:	9317      	str	r3, [sp, #92]	; 0x5c
    71f0:	06a3      	lsls	r3, r4, #26
    71f2:	d400      	bmi.n	71f6 <_svfprintf_r+0x5e6>
    71f4:	e753      	b.n	709e <_svfprintf_r+0x48e>
    71f6:	2207      	movs	r2, #7
    71f8:	9b0f      	ldr	r3, [sp, #60]	; 0x3c
    71fa:	3307      	adds	r3, #7
    71fc:	4393      	bics	r3, r2
    71fe:	3201      	adds	r2, #1
    7200:	4694      	mov	ip, r2
    7202:	449c      	add	ip, r3
    7204:	4662      	mov	r2, ip
    7206:	920f      	str	r2, [sp, #60]	; 0x3c
    7208:	681a      	ldr	r2, [r3, #0]
    720a:	685b      	ldr	r3, [r3, #4]
    720c:	920c      	str	r2, [sp, #48]	; 0x30
    720e:	930d      	str	r3, [sp, #52]	; 0x34
    7210:	07e3      	lsls	r3, r4, #31
    7212:	d500      	bpl.n	7216 <_svfprintf_r+0x606>
    7214:	e755      	b.n	70c2 <_svfprintf_r+0x4b2>
    7216:	990c      	ldr	r1, [sp, #48]	; 0x30
    7218:	9a0d      	ldr	r2, [sp, #52]	; 0x34
    721a:	0008      	movs	r0, r1
    721c:	4310      	orrs	r0, r2
    721e:	2302      	movs	r3, #2
    7220:	0002      	movs	r2, r0
    7222:	e6de      	b.n	6fe2 <_svfprintf_r+0x3d2>
    7224:	468b      	mov	fp, r1
    7226:	990f      	ldr	r1, [sp, #60]	; 0x3c
    7228:	2230      	movs	r2, #48	; 0x30
    722a:	680b      	ldr	r3, [r1, #0]
    722c:	930c      	str	r3, [sp, #48]	; 0x30
    722e:	2300      	movs	r3, #0
    7230:	930d      	str	r3, [sp, #52]	; 0x34
    7232:	3302      	adds	r3, #2
    7234:	431c      	orrs	r4, r3
    7236:	ab1e      	add	r3, sp, #120	; 0x78
    7238:	701a      	strb	r2, [r3, #0]
    723a:	3248      	adds	r2, #72	; 0x48
    723c:	705a      	strb	r2, [r3, #1]
    723e:	000b      	movs	r3, r1
    7240:	3304      	adds	r3, #4
    7242:	930f      	str	r3, [sp, #60]	; 0x3c
    7244:	4b4d      	ldr	r3, [pc, #308]	; (737c <_svfprintf_r+0x76c>)
    7246:	9212      	str	r2, [sp, #72]	; 0x48
    7248:	9317      	str	r3, [sp, #92]	; 0x5c
    724a:	9a0c      	ldr	r2, [sp, #48]	; 0x30
    724c:	2302      	movs	r3, #2
    724e:	e6c8      	b.n	6fe2 <_svfprintf_r+0x3d2>
    7250:	2301      	movs	r3, #1
    7252:	431c      	orrs	r4, r3
    7254:	780b      	ldrb	r3, [r1, #0]
    7256:	e53f      	b.n	6cd8 <_svfprintf_r+0xc8>
    7258:	9b0f      	ldr	r3, [sp, #60]	; 0x3c
    725a:	1d1a      	adds	r2, r3, #4
    725c:	681b      	ldr	r3, [r3, #0]
    725e:	930b      	str	r3, [sp, #44]	; 0x2c
    7260:	2b00      	cmp	r3, #0
    7262:	da00      	bge.n	7266 <_svfprintf_r+0x656>
    7264:	e542      	b.n	6cec <_svfprintf_r+0xdc>
    7266:	780b      	ldrb	r3, [r1, #0]
    7268:	920f      	str	r2, [sp, #60]	; 0x3c
    726a:	e535      	b.n	6cd8 <_svfprintf_r+0xc8>
    726c:	780b      	ldrb	r3, [r1, #0]
    726e:	2800      	cmp	r0, #0
    7270:	d000      	beq.n	7274 <_svfprintf_r+0x664>
    7272:	e531      	b.n	6cd8 <_svfprintf_r+0xc8>
    7274:	2201      	movs	r2, #1
    7276:	3020      	adds	r0, #32
    7278:	4690      	mov	r8, r2
    727a:	e52d      	b.n	6cd8 <_svfprintf_r+0xc8>
    727c:	468b      	mov	fp, r1
    727e:	9312      	str	r3, [sp, #72]	; 0x48
    7280:	06a3      	lsls	r3, r4, #26
    7282:	d400      	bmi.n	7286 <_svfprintf_r+0x676>
    7284:	e6ed      	b.n	7062 <_svfprintf_r+0x452>
    7286:	2207      	movs	r2, #7
    7288:	9b0f      	ldr	r3, [sp, #60]	; 0x3c
    728a:	3307      	adds	r3, #7
    728c:	4393      	bics	r3, r2
    728e:	3201      	adds	r2, #1
    7290:	4694      	mov	ip, r2
    7292:	449c      	add	ip, r3
    7294:	4662      	mov	r2, ip
    7296:	920f      	str	r2, [sp, #60]	; 0x3c
    7298:	681a      	ldr	r2, [r3, #0]
    729a:	685b      	ldr	r3, [r3, #4]
    729c:	0011      	movs	r1, r2
    729e:	001a      	movs	r2, r3
    72a0:	0008      	movs	r0, r1
    72a2:	4310      	orrs	r0, r2
    72a4:	910c      	str	r1, [sp, #48]	; 0x30
    72a6:	920d      	str	r2, [sp, #52]	; 0x34
    72a8:	2301      	movs	r3, #1
    72aa:	0002      	movs	r2, r0
    72ac:	e699      	b.n	6fe2 <_svfprintf_r+0x3d2>
    72ae:	468b      	mov	fp, r1
    72b0:	9312      	str	r3, [sp, #72]	; 0x48
    72b2:	06a3      	lsls	r3, r4, #26
    72b4:	d400      	bmi.n	72b8 <_svfprintf_r+0x6a8>
    72b6:	e683      	b.n	6fc0 <_svfprintf_r+0x3b0>
    72b8:	2207      	movs	r2, #7
    72ba:	9b0f      	ldr	r3, [sp, #60]	; 0x3c
    72bc:	3307      	adds	r3, #7
    72be:	4393      	bics	r3, r2
    72c0:	3201      	adds	r2, #1
    72c2:	4694      	mov	ip, r2
    72c4:	449c      	add	ip, r3
    72c6:	4662      	mov	r2, ip
    72c8:	920f      	str	r2, [sp, #60]	; 0x3c
    72ca:	681a      	ldr	r2, [r3, #0]
    72cc:	685b      	ldr	r3, [r3, #4]
    72ce:	0011      	movs	r1, r2
    72d0:	001a      	movs	r2, r3
    72d2:	0008      	movs	r0, r1
    72d4:	4310      	orrs	r0, r2
    72d6:	910c      	str	r1, [sp, #48]	; 0x30
    72d8:	920d      	str	r2, [sp, #52]	; 0x34
    72da:	2300      	movs	r3, #0
    72dc:	0002      	movs	r2, r0
    72de:	e680      	b.n	6fe2 <_svfprintf_r+0x3d2>
    72e0:	468b      	mov	fp, r1
    72e2:	4641      	mov	r1, r8
    72e4:	9312      	str	r3, [sp, #72]	; 0x48
    72e6:	2900      	cmp	r1, #0
    72e8:	d001      	beq.n	72ee <_svfprintf_r+0x6de>
    72ea:	f000 ff7f 	bl	81ec <_svfprintf_r+0x15dc>
    72ee:	9b12      	ldr	r3, [sp, #72]	; 0x48
    72f0:	2b00      	cmp	r3, #0
    72f2:	d100      	bne.n	72f6 <_svfprintf_r+0x6e6>
    72f4:	e50b      	b.n	6d0e <_svfprintf_r+0xfe>
    72f6:	ad28      	add	r5, sp, #160	; 0xa0
    72f8:	702b      	strb	r3, [r5, #0]
    72fa:	2300      	movs	r3, #0
    72fc:	aa16      	add	r2, sp, #88	; 0x58
    72fe:	77d3      	strb	r3, [r2, #31]
    7300:	9408      	str	r4, [sp, #32]
    7302:	e74e      	b.n	71a2 <_svfprintf_r+0x592>
    7304:	68bc      	ldr	r4, [r7, #8]
    7306:	4643      	mov	r3, r8
    7308:	2b00      	cmp	r3, #0
    730a:	d00f      	beq.n	732c <_svfprintf_r+0x71c>
    730c:	aa16      	add	r2, sp, #88	; 0x58
    730e:	231f      	movs	r3, #31
    7310:	4694      	mov	ip, r2
    7312:	4463      	add	r3, ip
    7314:	6033      	str	r3, [r6, #0]
    7316:	2301      	movs	r3, #1
    7318:	6073      	str	r3, [r6, #4]
    731a:	687b      	ldr	r3, [r7, #4]
    731c:	3401      	adds	r4, #1
    731e:	3301      	adds	r3, #1
    7320:	60bc      	str	r4, [r7, #8]
    7322:	607b      	str	r3, [r7, #4]
    7324:	2b07      	cmp	r3, #7
    7326:	dd00      	ble.n	732a <_svfprintf_r+0x71a>
    7328:	e1b3      	b.n	7692 <_svfprintf_r+0xa82>
    732a:	3608      	adds	r6, #8
    732c:	464b      	mov	r3, r9
    732e:	2b00      	cmp	r3, #0
    7330:	d00c      	beq.n	734c <_svfprintf_r+0x73c>
    7332:	ab1e      	add	r3, sp, #120	; 0x78
    7334:	6033      	str	r3, [r6, #0]
    7336:	2302      	movs	r3, #2
    7338:	6073      	str	r3, [r6, #4]
    733a:	687b      	ldr	r3, [r7, #4]
    733c:	3402      	adds	r4, #2
    733e:	3301      	adds	r3, #1
    7340:	60bc      	str	r4, [r7, #8]
    7342:	607b      	str	r3, [r7, #4]
    7344:	2b07      	cmp	r3, #7
    7346:	dd00      	ble.n	734a <_svfprintf_r+0x73a>
    7348:	e1af      	b.n	76aa <_svfprintf_r+0xa9a>
    734a:	3608      	adds	r6, #8
    734c:	9b10      	ldr	r3, [sp, #64]	; 0x40
    734e:	2b80      	cmp	r3, #128	; 0x80
    7350:	d100      	bne.n	7354 <_svfprintf_r+0x744>
    7352:	e120      	b.n	7596 <_svfprintf_r+0x986>
    7354:	4653      	mov	r3, sl
    7356:	9a0e      	ldr	r2, [sp, #56]	; 0x38
    7358:	1a9d      	subs	r5, r3, r2
    735a:	2d00      	cmp	r5, #0
    735c:	dd3c      	ble.n	73d8 <_svfprintf_r+0x7c8>
    735e:	4a08      	ldr	r2, [pc, #32]	; (7380 <_svfprintf_r+0x770>)
    7360:	687b      	ldr	r3, [r7, #4]
    7362:	4691      	mov	r9, r2
    7364:	2d10      	cmp	r5, #16
    7366:	dd2c      	ble.n	73c2 <_svfprintf_r+0x7b2>
    7368:	2210      	movs	r2, #16
    736a:	0021      	movs	r1, r4
    736c:	4692      	mov	sl, r2
    736e:	9c09      	ldr	r4, [sp, #36]	; 0x24
    7370:	0032      	movs	r2, r6
    7372:	002e      	movs	r6, r5
    7374:	464d      	mov	r5, r9
    7376:	e009      	b.n	738c <_svfprintf_r+0x77c>
    7378:	000092f0 	.word	0x000092f0
    737c:	00009304 	.word	0x00009304
    7380:	00009330 	.word	0x00009330
    7384:	3e10      	subs	r6, #16
    7386:	3208      	adds	r2, #8
    7388:	2e10      	cmp	r6, #16
    738a:	dd16      	ble.n	73ba <_svfprintf_r+0x7aa>
    738c:	4650      	mov	r0, sl
    738e:	3110      	adds	r1, #16
    7390:	3301      	adds	r3, #1
    7392:	6015      	str	r5, [r2, #0]
    7394:	6050      	str	r0, [r2, #4]
    7396:	60b9      	str	r1, [r7, #8]
    7398:	607b      	str	r3, [r7, #4]
    739a:	2b07      	cmp	r3, #7
    739c:	ddf2      	ble.n	7384 <_svfprintf_r+0x774>
    739e:	003a      	movs	r2, r7
    73a0:	9906      	ldr	r1, [sp, #24]
    73a2:	0020      	movs	r0, r4
    73a4:	f001 fa02 	bl	87ac <__ssprint_r>
    73a8:	2800      	cmp	r0, #0
    73aa:	d000      	beq.n	73ae <_svfprintf_r+0x79e>
    73ac:	e4b7      	b.n	6d1e <_svfprintf_r+0x10e>
    73ae:	3e10      	subs	r6, #16
    73b0:	68b9      	ldr	r1, [r7, #8]
    73b2:	687b      	ldr	r3, [r7, #4]
    73b4:	aa32      	add	r2, sp, #200	; 0xc8
    73b6:	2e10      	cmp	r6, #16
    73b8:	dce8      	bgt.n	738c <_svfprintf_r+0x77c>
    73ba:	46a9      	mov	r9, r5
    73bc:	000c      	movs	r4, r1
    73be:	0035      	movs	r5, r6
    73c0:	0016      	movs	r6, r2
    73c2:	464a      	mov	r2, r9
    73c4:	1964      	adds	r4, r4, r5
    73c6:	3301      	adds	r3, #1
    73c8:	6032      	str	r2, [r6, #0]
    73ca:	6075      	str	r5, [r6, #4]
    73cc:	60bc      	str	r4, [r7, #8]
    73ce:	607b      	str	r3, [r7, #4]
    73d0:	2b07      	cmp	r3, #7
    73d2:	dd00      	ble.n	73d6 <_svfprintf_r+0x7c6>
    73d4:	e151      	b.n	767a <_svfprintf_r+0xa6a>
    73d6:	3608      	adds	r6, #8
    73d8:	9b08      	ldr	r3, [sp, #32]
    73da:	05db      	lsls	r3, r3, #23
    73dc:	d500      	bpl.n	73e0 <_svfprintf_r+0x7d0>
    73de:	e0b6      	b.n	754e <_svfprintf_r+0x93e>
    73e0:	9b11      	ldr	r3, [sp, #68]	; 0x44
    73e2:	6033      	str	r3, [r6, #0]
    73e4:	9b0e      	ldr	r3, [sp, #56]	; 0x38
    73e6:	469c      	mov	ip, r3
    73e8:	6073      	str	r3, [r6, #4]
    73ea:	687b      	ldr	r3, [r7, #4]
    73ec:	4464      	add	r4, ip
    73ee:	3301      	adds	r3, #1
    73f0:	60bc      	str	r4, [r7, #8]
    73f2:	607b      	str	r3, [r7, #4]
    73f4:	2b07      	cmp	r3, #7
    73f6:	dd00      	ble.n	73fa <_svfprintf_r+0x7ea>
    73f8:	e09d      	b.n	7536 <_svfprintf_r+0x926>
    73fa:	3608      	adds	r6, #8
    73fc:	9b08      	ldr	r3, [sp, #32]
    73fe:	075b      	lsls	r3, r3, #29
    7400:	d541      	bpl.n	7486 <_svfprintf_r+0x876>
    7402:	9b0b      	ldr	r3, [sp, #44]	; 0x2c
    7404:	9a07      	ldr	r2, [sp, #28]
    7406:	1a9d      	subs	r5, r3, r2
    7408:	2d00      	cmp	r5, #0
    740a:	dd3c      	ble.n	7486 <_svfprintf_r+0x876>
    740c:	4ac4      	ldr	r2, [pc, #784]	; (7720 <_svfprintf_r+0xb10>)
    740e:	687b      	ldr	r3, [r7, #4]
    7410:	4690      	mov	r8, r2
    7412:	2d10      	cmp	r5, #16
    7414:	dd26      	ble.n	7464 <_svfprintf_r+0x854>
    7416:	2210      	movs	r2, #16
    7418:	0021      	movs	r1, r4
    741a:	4691      	mov	r9, r2
    741c:	9c09      	ldr	r4, [sp, #36]	; 0x24
    741e:	0032      	movs	r2, r6
    7420:	002e      	movs	r6, r5
    7422:	9d06      	ldr	r5, [sp, #24]
    7424:	e003      	b.n	742e <_svfprintf_r+0x81e>
    7426:	3e10      	subs	r6, #16
    7428:	3208      	adds	r2, #8
    742a:	2e10      	cmp	r6, #16
    742c:	dd17      	ble.n	745e <_svfprintf_r+0x84e>
    742e:	48bc      	ldr	r0, [pc, #752]	; (7720 <_svfprintf_r+0xb10>)
    7430:	3110      	adds	r1, #16
    7432:	6010      	str	r0, [r2, #0]
    7434:	4648      	mov	r0, r9
    7436:	3301      	adds	r3, #1
    7438:	6050      	str	r0, [r2, #4]
    743a:	60b9      	str	r1, [r7, #8]
    743c:	607b      	str	r3, [r7, #4]
    743e:	2b07      	cmp	r3, #7
    7440:	ddf1      	ble.n	7426 <_svfprintf_r+0x816>
    7442:	003a      	movs	r2, r7
    7444:	0029      	movs	r1, r5
    7446:	0020      	movs	r0, r4
    7448:	f001 f9b0 	bl	87ac <__ssprint_r>
    744c:	2800      	cmp	r0, #0
    744e:	d000      	beq.n	7452 <_svfprintf_r+0x842>
    7450:	e465      	b.n	6d1e <_svfprintf_r+0x10e>
    7452:	3e10      	subs	r6, #16
    7454:	68b9      	ldr	r1, [r7, #8]
    7456:	687b      	ldr	r3, [r7, #4]
    7458:	aa32      	add	r2, sp, #200	; 0xc8
    745a:	2e10      	cmp	r6, #16
    745c:	dce7      	bgt.n	742e <_svfprintf_r+0x81e>
    745e:	0035      	movs	r5, r6
    7460:	000c      	movs	r4, r1
    7462:	0016      	movs	r6, r2
    7464:	4642      	mov	r2, r8
    7466:	1964      	adds	r4, r4, r5
    7468:	3301      	adds	r3, #1
    746a:	c624      	stmia	r6!, {r2, r5}
    746c:	60bc      	str	r4, [r7, #8]
    746e:	607b      	str	r3, [r7, #4]
    7470:	2b07      	cmp	r3, #7
    7472:	dd08      	ble.n	7486 <_svfprintf_r+0x876>
    7474:	003a      	movs	r2, r7
    7476:	9906      	ldr	r1, [sp, #24]
    7478:	9809      	ldr	r0, [sp, #36]	; 0x24
    747a:	f001 f997 	bl	87ac <__ssprint_r>
    747e:	2800      	cmp	r0, #0
    7480:	d000      	beq.n	7484 <_svfprintf_r+0x874>
    7482:	e44c      	b.n	6d1e <_svfprintf_r+0x10e>
    7484:	68bc      	ldr	r4, [r7, #8]
    7486:	9b0b      	ldr	r3, [sp, #44]	; 0x2c
    7488:	9907      	ldr	r1, [sp, #28]
    748a:	428b      	cmp	r3, r1
    748c:	da00      	bge.n	7490 <_svfprintf_r+0x880>
    748e:	000b      	movs	r3, r1
    7490:	9a0a      	ldr	r2, [sp, #40]	; 0x28
    7492:	4694      	mov	ip, r2
    7494:	449c      	add	ip, r3
    7496:	4663      	mov	r3, ip
    7498:	930a      	str	r3, [sp, #40]	; 0x28
    749a:	2c00      	cmp	r4, #0
    749c:	d000      	beq.n	74a0 <_svfprintf_r+0x890>
    749e:	e0d6      	b.n	764e <_svfprintf_r+0xa3e>
    74a0:	2300      	movs	r3, #0
    74a2:	ae32      	add	r6, sp, #200	; 0xc8
    74a4:	607b      	str	r3, [r7, #4]
    74a6:	f7ff fbde 	bl	6c66 <_svfprintf_r+0x56>
    74aa:	9b14      	ldr	r3, [sp, #80]	; 0x50
    74ac:	2b01      	cmp	r3, #1
    74ae:	dc00      	bgt.n	74b2 <_svfprintf_r+0x8a2>
    74b0:	e0ae      	b.n	7610 <_svfprintf_r+0xa00>
    74b2:	9b11      	ldr	r3, [sp, #68]	; 0x44
    74b4:	3401      	adds	r4, #1
    74b6:	6033      	str	r3, [r6, #0]
    74b8:	2301      	movs	r3, #1
    74ba:	6073      	str	r3, [r6, #4]
    74bc:	687b      	ldr	r3, [r7, #4]
    74be:	60bc      	str	r4, [r7, #8]
    74c0:	3301      	adds	r3, #1
    74c2:	607b      	str	r3, [r7, #4]
    74c4:	2b07      	cmp	r3, #7
    74c6:	dd00      	ble.n	74ca <_svfprintf_r+0x8ba>
    74c8:	e2df      	b.n	7a8a <_svfprintf_r+0xe7a>
    74ca:	3608      	adds	r6, #8
    74cc:	9a19      	ldr	r2, [sp, #100]	; 0x64
    74ce:	3301      	adds	r3, #1
    74d0:	6032      	str	r2, [r6, #0]
    74d2:	9a18      	ldr	r2, [sp, #96]	; 0x60
    74d4:	4698      	mov	r8, r3
    74d6:	4694      	mov	ip, r2
    74d8:	4464      	add	r4, ip
    74da:	6072      	str	r2, [r6, #4]
    74dc:	60bc      	str	r4, [r7, #8]
    74de:	607b      	str	r3, [r7, #4]
    74e0:	2b07      	cmp	r3, #7
    74e2:	dd00      	ble.n	74e6 <_svfprintf_r+0x8d6>
    74e4:	e2de      	b.n	7aa4 <_svfprintf_r+0xe94>
    74e6:	3608      	adds	r6, #8
    74e8:	2200      	movs	r2, #0
    74ea:	2300      	movs	r3, #0
    74ec:	9816      	ldr	r0, [sp, #88]	; 0x58
    74ee:	9915      	ldr	r1, [sp, #84]	; 0x54
    74f0:	f7fd f894 	bl	461c <__aeabi_dcmpeq>
    74f4:	2800      	cmp	r0, #0
    74f6:	d000      	beq.n	74fa <_svfprintf_r+0x8ea>
    74f8:	e1a4      	b.n	7844 <_svfprintf_r+0xc34>
    74fa:	9d11      	ldr	r5, [sp, #68]	; 0x44
    74fc:	9b14      	ldr	r3, [sp, #80]	; 0x50
    74fe:	3501      	adds	r5, #1
    7500:	3b01      	subs	r3, #1
    7502:	6035      	str	r5, [r6, #0]
    7504:	6073      	str	r3, [r6, #4]
    7506:	18e4      	adds	r4, r4, r3
    7508:	2301      	movs	r3, #1
    750a:	469c      	mov	ip, r3
    750c:	44e0      	add	r8, ip
    750e:	4643      	mov	r3, r8
    7510:	60bc      	str	r4, [r7, #8]
    7512:	607b      	str	r3, [r7, #4]
    7514:	2b07      	cmp	r3, #7
    7516:	dd00      	ble.n	751a <_svfprintf_r+0x90a>
    7518:	e08b      	b.n	7632 <_svfprintf_r+0xa22>
    751a:	3608      	adds	r6, #8
    751c:	ab21      	add	r3, sp, #132	; 0x84
    751e:	6033      	str	r3, [r6, #0]
    7520:	9b1a      	ldr	r3, [sp, #104]	; 0x68
    7522:	469c      	mov	ip, r3
    7524:	6073      	str	r3, [r6, #4]
    7526:	4643      	mov	r3, r8
    7528:	4464      	add	r4, ip
    752a:	3301      	adds	r3, #1
    752c:	60bc      	str	r4, [r7, #8]
    752e:	607b      	str	r3, [r7, #4]
    7530:	2b07      	cmp	r3, #7
    7532:	dc00      	bgt.n	7536 <_svfprintf_r+0x926>
    7534:	e761      	b.n	73fa <_svfprintf_r+0x7ea>
    7536:	003a      	movs	r2, r7
    7538:	9906      	ldr	r1, [sp, #24]
    753a:	9809      	ldr	r0, [sp, #36]	; 0x24
    753c:	f001 f936 	bl	87ac <__ssprint_r>
    7540:	2800      	cmp	r0, #0
    7542:	d001      	beq.n	7548 <_svfprintf_r+0x938>
    7544:	f7ff fbeb 	bl	6d1e <_svfprintf_r+0x10e>
    7548:	68bc      	ldr	r4, [r7, #8]
    754a:	ae32      	add	r6, sp, #200	; 0xc8
    754c:	e756      	b.n	73fc <_svfprintf_r+0x7ec>
    754e:	9b12      	ldr	r3, [sp, #72]	; 0x48
    7550:	2b65      	cmp	r3, #101	; 0x65
    7552:	ddaa      	ble.n	74aa <_svfprintf_r+0x89a>
    7554:	2200      	movs	r2, #0
    7556:	2300      	movs	r3, #0
    7558:	9816      	ldr	r0, [sp, #88]	; 0x58
    755a:	9915      	ldr	r1, [sp, #84]	; 0x54
    755c:	f7fd f85e 	bl	461c <__aeabi_dcmpeq>
    7560:	2800      	cmp	r0, #0
    7562:	d100      	bne.n	7566 <_svfprintf_r+0x956>
    7564:	e0e2      	b.n	772c <_svfprintf_r+0xb1c>
    7566:	4b6f      	ldr	r3, [pc, #444]	; (7724 <_svfprintf_r+0xb14>)
    7568:	3401      	adds	r4, #1
    756a:	6033      	str	r3, [r6, #0]
    756c:	2301      	movs	r3, #1
    756e:	6073      	str	r3, [r6, #4]
    7570:	687b      	ldr	r3, [r7, #4]
    7572:	60bc      	str	r4, [r7, #8]
    7574:	3301      	adds	r3, #1
    7576:	607b      	str	r3, [r7, #4]
    7578:	2b07      	cmp	r3, #7
    757a:	dd00      	ble.n	757e <_svfprintf_r+0x96e>
    757c:	e366      	b.n	7c4c <_svfprintf_r+0x103c>
    757e:	3608      	adds	r6, #8
    7580:	9b1f      	ldr	r3, [sp, #124]	; 0x7c
    7582:	9a14      	ldr	r2, [sp, #80]	; 0x50
    7584:	4293      	cmp	r3, r2
    7586:	da00      	bge.n	758a <_svfprintf_r+0x97a>
    7588:	e1a4      	b.n	78d4 <_svfprintf_r+0xcc4>
    758a:	9b08      	ldr	r3, [sp, #32]
    758c:	07db      	lsls	r3, r3, #31
    758e:	d500      	bpl.n	7592 <_svfprintf_r+0x982>
    7590:	e1a0      	b.n	78d4 <_svfprintf_r+0xcc4>
    7592:	68bc      	ldr	r4, [r7, #8]
    7594:	e732      	b.n	73fc <_svfprintf_r+0x7ec>
    7596:	9b0b      	ldr	r3, [sp, #44]	; 0x2c
    7598:	9a07      	ldr	r2, [sp, #28]
    759a:	1a9d      	subs	r5, r3, r2
    759c:	2d00      	cmp	r5, #0
    759e:	dc00      	bgt.n	75a2 <_svfprintf_r+0x992>
    75a0:	e6d8      	b.n	7354 <_svfprintf_r+0x744>
    75a2:	4a61      	ldr	r2, [pc, #388]	; (7728 <_svfprintf_r+0xb18>)
    75a4:	687b      	ldr	r3, [r7, #4]
    75a6:	4691      	mov	r9, r2
    75a8:	2d10      	cmp	r5, #16
    75aa:	dd25      	ble.n	75f8 <_svfprintf_r+0x9e8>
    75ac:	2210      	movs	r2, #16
    75ae:	0021      	movs	r1, r4
    75b0:	4690      	mov	r8, r2
    75b2:	9c09      	ldr	r4, [sp, #36]	; 0x24
    75b4:	0032      	movs	r2, r6
    75b6:	464e      	mov	r6, r9
    75b8:	e003      	b.n	75c2 <_svfprintf_r+0x9b2>
    75ba:	3d10      	subs	r5, #16
    75bc:	3208      	adds	r2, #8
    75be:	2d10      	cmp	r5, #16
    75c0:	dd17      	ble.n	75f2 <_svfprintf_r+0x9e2>
    75c2:	4640      	mov	r0, r8
    75c4:	3110      	adds	r1, #16
    75c6:	3301      	adds	r3, #1
    75c8:	6016      	str	r6, [r2, #0]
    75ca:	6050      	str	r0, [r2, #4]
    75cc:	60b9      	str	r1, [r7, #8]
    75ce:	607b      	str	r3, [r7, #4]
    75d0:	2b07      	cmp	r3, #7
    75d2:	ddf2      	ble.n	75ba <_svfprintf_r+0x9aa>
    75d4:	003a      	movs	r2, r7
    75d6:	9906      	ldr	r1, [sp, #24]
    75d8:	0020      	movs	r0, r4
    75da:	f001 f8e7 	bl	87ac <__ssprint_r>
    75de:	2800      	cmp	r0, #0
    75e0:	d001      	beq.n	75e6 <_svfprintf_r+0x9d6>
    75e2:	f7ff fb9c 	bl	6d1e <_svfprintf_r+0x10e>
    75e6:	3d10      	subs	r5, #16
    75e8:	68b9      	ldr	r1, [r7, #8]
    75ea:	687b      	ldr	r3, [r7, #4]
    75ec:	aa32      	add	r2, sp, #200	; 0xc8
    75ee:	2d10      	cmp	r5, #16
    75f0:	dce7      	bgt.n	75c2 <_svfprintf_r+0x9b2>
    75f2:	46b1      	mov	r9, r6
    75f4:	000c      	movs	r4, r1
    75f6:	0016      	movs	r6, r2
    75f8:	464a      	mov	r2, r9
    75fa:	1964      	adds	r4, r4, r5
    75fc:	3301      	adds	r3, #1
    75fe:	6032      	str	r2, [r6, #0]
    7600:	6075      	str	r5, [r6, #4]
    7602:	60bc      	str	r4, [r7, #8]
    7604:	607b      	str	r3, [r7, #4]
    7606:	2b07      	cmp	r3, #7
    7608:	dd00      	ble.n	760c <_svfprintf_r+0x9fc>
    760a:	e27e      	b.n	7b0a <_svfprintf_r+0xefa>
    760c:	3608      	adds	r6, #8
    760e:	e6a1      	b.n	7354 <_svfprintf_r+0x744>
    7610:	2301      	movs	r3, #1
    7612:	9a08      	ldr	r2, [sp, #32]
    7614:	4213      	tst	r3, r2
    7616:	d000      	beq.n	761a <_svfprintf_r+0xa0a>
    7618:	e74b      	b.n	74b2 <_svfprintf_r+0x8a2>
    761a:	6073      	str	r3, [r6, #4]
    761c:	687b      	ldr	r3, [r7, #4]
    761e:	9a11      	ldr	r2, [sp, #68]	; 0x44
    7620:	3301      	adds	r3, #1
    7622:	3401      	adds	r4, #1
    7624:	6032      	str	r2, [r6, #0]
    7626:	60bc      	str	r4, [r7, #8]
    7628:	4698      	mov	r8, r3
    762a:	607b      	str	r3, [r7, #4]
    762c:	2b07      	cmp	r3, #7
    762e:	dc00      	bgt.n	7632 <_svfprintf_r+0xa22>
    7630:	e773      	b.n	751a <_svfprintf_r+0x90a>
    7632:	003a      	movs	r2, r7
    7634:	9906      	ldr	r1, [sp, #24]
    7636:	9809      	ldr	r0, [sp, #36]	; 0x24
    7638:	f001 f8b8 	bl	87ac <__ssprint_r>
    763c:	2800      	cmp	r0, #0
    763e:	d001      	beq.n	7644 <_svfprintf_r+0xa34>
    7640:	f7ff fb6d 	bl	6d1e <_svfprintf_r+0x10e>
    7644:	687b      	ldr	r3, [r7, #4]
    7646:	68bc      	ldr	r4, [r7, #8]
    7648:	4698      	mov	r8, r3
    764a:	ae32      	add	r6, sp, #200	; 0xc8
    764c:	e766      	b.n	751c <_svfprintf_r+0x90c>
    764e:	003a      	movs	r2, r7
    7650:	9906      	ldr	r1, [sp, #24]
    7652:	9809      	ldr	r0, [sp, #36]	; 0x24
    7654:	f001 f8aa 	bl	87ac <__ssprint_r>
    7658:	2800      	cmp	r0, #0
    765a:	d100      	bne.n	765e <_svfprintf_r+0xa4e>
    765c:	e720      	b.n	74a0 <_svfprintf_r+0x890>
    765e:	f7ff fb5e 	bl	6d1e <_svfprintf_r+0x10e>
    7662:	9c08      	ldr	r4, [sp, #32]
    7664:	2b01      	cmp	r3, #1
    7666:	d100      	bne.n	766a <_svfprintf_r+0xa5a>
    7668:	e184      	b.n	7974 <_svfprintf_r+0xd64>
    766a:	2b02      	cmp	r3, #2
    766c:	d129      	bne.n	76c2 <_svfprintf_r+0xab2>
    766e:	9408      	str	r4, [sp, #32]
    7670:	2300      	movs	r3, #0
    7672:	2400      	movs	r4, #0
    7674:	930c      	str	r3, [sp, #48]	; 0x30
    7676:	940d      	str	r4, [sp, #52]	; 0x34
    7678:	e4c5      	b.n	7006 <_svfprintf_r+0x3f6>
    767a:	003a      	movs	r2, r7
    767c:	9906      	ldr	r1, [sp, #24]
    767e:	9809      	ldr	r0, [sp, #36]	; 0x24
    7680:	f001 f894 	bl	87ac <__ssprint_r>
    7684:	2800      	cmp	r0, #0
    7686:	d001      	beq.n	768c <_svfprintf_r+0xa7c>
    7688:	f7ff fb49 	bl	6d1e <_svfprintf_r+0x10e>
    768c:	68bc      	ldr	r4, [r7, #8]
    768e:	ae32      	add	r6, sp, #200	; 0xc8
    7690:	e6a2      	b.n	73d8 <_svfprintf_r+0x7c8>
    7692:	003a      	movs	r2, r7
    7694:	9906      	ldr	r1, [sp, #24]
    7696:	9809      	ldr	r0, [sp, #36]	; 0x24
    7698:	f001 f888 	bl	87ac <__ssprint_r>
    769c:	2800      	cmp	r0, #0
    769e:	d001      	beq.n	76a4 <_svfprintf_r+0xa94>
    76a0:	f7ff fb3d 	bl	6d1e <_svfprintf_r+0x10e>
    76a4:	68bc      	ldr	r4, [r7, #8]
    76a6:	ae32      	add	r6, sp, #200	; 0xc8
    76a8:	e640      	b.n	732c <_svfprintf_r+0x71c>
    76aa:	003a      	movs	r2, r7
    76ac:	9906      	ldr	r1, [sp, #24]
    76ae:	9809      	ldr	r0, [sp, #36]	; 0x24
    76b0:	f001 f87c 	bl	87ac <__ssprint_r>
    76b4:	2800      	cmp	r0, #0
    76b6:	d001      	beq.n	76bc <_svfprintf_r+0xaac>
    76b8:	f7ff fb31 	bl	6d1e <_svfprintf_r+0x10e>
    76bc:	68bc      	ldr	r4, [r7, #8]
    76be:	ae32      	add	r6, sp, #200	; 0xc8
    76c0:	e644      	b.n	734c <_svfprintf_r+0x73c>
    76c2:	9408      	str	r4, [sp, #32]
    76c4:	2300      	movs	r3, #0
    76c6:	2400      	movs	r4, #0
    76c8:	930c      	str	r3, [sp, #48]	; 0x30
    76ca:	940d      	str	r4, [sp, #52]	; 0x34
    76cc:	980c      	ldr	r0, [sp, #48]	; 0x30
    76ce:	990d      	ldr	r1, [sp, #52]	; 0x34
    76d0:	465b      	mov	r3, fp
    76d2:	aa32      	add	r2, sp, #200	; 0xc8
    76d4:	9307      	str	r3, [sp, #28]
    76d6:	4691      	mov	r9, r2
    76d8:	46b3      	mov	fp, r6
    76da:	e000      	b.n	76de <_svfprintf_r+0xace>
    76dc:	46a1      	mov	r9, r4
    76de:	074a      	lsls	r2, r1, #29
    76e0:	4694      	mov	ip, r2
    76e2:	464b      	mov	r3, r9
    76e4:	4665      	mov	r5, ip
    76e6:	1e5c      	subs	r4, r3, #1
    76e8:	08c6      	lsrs	r6, r0, #3
    76ea:	2307      	movs	r3, #7
    76ec:	08ca      	lsrs	r2, r1, #3
    76ee:	4335      	orrs	r5, r6
    76f0:	0011      	movs	r1, r2
    76f2:	002a      	movs	r2, r5
    76f4:	4003      	ands	r3, r0
    76f6:	3330      	adds	r3, #48	; 0x30
    76f8:	7023      	strb	r3, [r4, #0]
    76fa:	0028      	movs	r0, r5
    76fc:	430a      	orrs	r2, r1
    76fe:	d1ed      	bne.n	76dc <_svfprintf_r+0xacc>
    7700:	900c      	str	r0, [sp, #48]	; 0x30
    7702:	910d      	str	r1, [sp, #52]	; 0x34
    7704:	9907      	ldr	r1, [sp, #28]
    7706:	465e      	mov	r6, fp
    7708:	468b      	mov	fp, r1
    770a:	9908      	ldr	r1, [sp, #32]
    770c:	464a      	mov	r2, r9
    770e:	9411      	str	r4, [sp, #68]	; 0x44
    7710:	07c9      	lsls	r1, r1, #31
    7712:	d500      	bpl.n	7716 <_svfprintf_r+0xb06>
    7714:	e13d      	b.n	7992 <_svfprintf_r+0xd82>
    7716:	ab32      	add	r3, sp, #200	; 0xc8
    7718:	1b1b      	subs	r3, r3, r4
    771a:	930e      	str	r3, [sp, #56]	; 0x38
    771c:	f7ff fb88 	bl	6e30 <_svfprintf_r+0x220>
    7720:	00009320 	.word	0x00009320
    7724:	00008e78 	.word	0x00008e78
    7728:	00009330 	.word	0x00009330
    772c:	981f      	ldr	r0, [sp, #124]	; 0x7c
    772e:	2800      	cmp	r0, #0
    7730:	dc00      	bgt.n	7734 <_svfprintf_r+0xb24>
    7732:	e296      	b.n	7c62 <_svfprintf_r+0x1052>
    7734:	9a13      	ldr	r2, [sp, #76]	; 0x4c
    7736:	9914      	ldr	r1, [sp, #80]	; 0x50
    7738:	0013      	movs	r3, r2
    773a:	4690      	mov	r8, r2
    773c:	428b      	cmp	r3, r1
    773e:	dd00      	ble.n	7742 <_svfprintf_r+0xb32>
    7740:	4688      	mov	r8, r1
    7742:	4643      	mov	r3, r8
    7744:	2b00      	cmp	r3, #0
    7746:	dd0c      	ble.n	7762 <_svfprintf_r+0xb52>
    7748:	9b11      	ldr	r3, [sp, #68]	; 0x44
    774a:	4444      	add	r4, r8
    774c:	6033      	str	r3, [r6, #0]
    774e:	4643      	mov	r3, r8
    7750:	6073      	str	r3, [r6, #4]
    7752:	687b      	ldr	r3, [r7, #4]
    7754:	60bc      	str	r4, [r7, #8]
    7756:	3301      	adds	r3, #1
    7758:	607b      	str	r3, [r7, #4]
    775a:	2b07      	cmp	r3, #7
    775c:	dd00      	ble.n	7760 <_svfprintf_r+0xb50>
    775e:	e3b7      	b.n	7ed0 <_svfprintf_r+0x12c0>
    7760:	3608      	adds	r6, #8
    7762:	4643      	mov	r3, r8
    7764:	43db      	mvns	r3, r3
    7766:	4642      	mov	r2, r8
    7768:	17db      	asrs	r3, r3, #31
    776a:	4013      	ands	r3, r2
    776c:	9a13      	ldr	r2, [sp, #76]	; 0x4c
    776e:	1ad3      	subs	r3, r2, r3
    7770:	4698      	mov	r8, r3
    7772:	2b00      	cmp	r3, #0
    7774:	dc00      	bgt.n	7778 <_svfprintf_r+0xb68>
    7776:	e128      	b.n	79ca <_svfprintf_r+0xdba>
    7778:	2b10      	cmp	r3, #16
    777a:	dc01      	bgt.n	7780 <_svfprintf_r+0xb70>
    777c:	f000 fce7 	bl	814e <_svfprintf_r+0x153e>
    7780:	4acf      	ldr	r2, [pc, #828]	; (7ac0 <_svfprintf_r+0xeb0>)
    7782:	0021      	movs	r1, r4
    7784:	4691      	mov	r9, r2
    7786:	2210      	movs	r2, #16
    7788:	687b      	ldr	r3, [r7, #4]
    778a:	4692      	mov	sl, r2
    778c:	9d09      	ldr	r5, [sp, #36]	; 0x24
    778e:	0032      	movs	r2, r6
    7790:	464c      	mov	r4, r9
    7792:	4646      	mov	r6, r8
    7794:	e004      	b.n	77a0 <_svfprintf_r+0xb90>
    7796:	3208      	adds	r2, #8
    7798:	3e10      	subs	r6, #16
    779a:	2e10      	cmp	r6, #16
    779c:	dc00      	bgt.n	77a0 <_svfprintf_r+0xb90>
    779e:	e104      	b.n	79aa <_svfprintf_r+0xd9a>
    77a0:	4650      	mov	r0, sl
    77a2:	3110      	adds	r1, #16
    77a4:	3301      	adds	r3, #1
    77a6:	6014      	str	r4, [r2, #0]
    77a8:	6050      	str	r0, [r2, #4]
    77aa:	60b9      	str	r1, [r7, #8]
    77ac:	607b      	str	r3, [r7, #4]
    77ae:	2b07      	cmp	r3, #7
    77b0:	ddf1      	ble.n	7796 <_svfprintf_r+0xb86>
    77b2:	003a      	movs	r2, r7
    77b4:	9906      	ldr	r1, [sp, #24]
    77b6:	0028      	movs	r0, r5
    77b8:	f000 fff8 	bl	87ac <__ssprint_r>
    77bc:	2800      	cmp	r0, #0
    77be:	d001      	beq.n	77c4 <_svfprintf_r+0xbb4>
    77c0:	f7ff faad 	bl	6d1e <_svfprintf_r+0x10e>
    77c4:	68b9      	ldr	r1, [r7, #8]
    77c6:	687b      	ldr	r3, [r7, #4]
    77c8:	aa32      	add	r2, sp, #200	; 0xc8
    77ca:	e7e5      	b.n	7798 <_svfprintf_r+0xb88>
    77cc:	9b0d      	ldr	r3, [sp, #52]	; 0x34
    77ce:	2b00      	cmp	r3, #0
    77d0:	d100      	bne.n	77d4 <_svfprintf_r+0xbc4>
    77d2:	e0ca      	b.n	796a <_svfprintf_r+0xd5a>
    77d4:	9c0c      	ldr	r4, [sp, #48]	; 0x30
    77d6:	9d0d      	ldr	r5, [sp, #52]	; 0x34
    77d8:	ab32      	add	r3, sp, #200	; 0xc8
    77da:	46b1      	mov	r9, r6
    77dc:	001e      	movs	r6, r3
    77de:	0020      	movs	r0, r4
    77e0:	0029      	movs	r1, r5
    77e2:	220a      	movs	r2, #10
    77e4:	2300      	movs	r3, #0
    77e6:	f7fa f9ff 	bl	1be8 <__aeabi_uldivmod>
    77ea:	3e01      	subs	r6, #1
    77ec:	3230      	adds	r2, #48	; 0x30
    77ee:	7032      	strb	r2, [r6, #0]
    77f0:	2300      	movs	r3, #0
    77f2:	0020      	movs	r0, r4
    77f4:	0029      	movs	r1, r5
    77f6:	220a      	movs	r2, #10
    77f8:	f7fa f9f6 	bl	1be8 <__aeabi_uldivmod>
    77fc:	0003      	movs	r3, r0
    77fe:	0004      	movs	r4, r0
    7800:	000d      	movs	r5, r1
    7802:	430b      	orrs	r3, r1
    7804:	d1eb      	bne.n	77de <_svfprintf_r+0xbce>
    7806:	0032      	movs	r2, r6
    7808:	ab32      	add	r3, sp, #200	; 0xc8
    780a:	1a9b      	subs	r3, r3, r2
    780c:	9611      	str	r6, [sp, #68]	; 0x44
    780e:	940c      	str	r4, [sp, #48]	; 0x30
    7810:	950d      	str	r5, [sp, #52]	; 0x34
    7812:	464e      	mov	r6, r9
    7814:	930e      	str	r3, [sp, #56]	; 0x38
    7816:	f7ff fb0b 	bl	6e30 <_svfprintf_r+0x220>
    781a:	2300      	movs	r3, #0
    781c:	930e      	str	r3, [sp, #56]	; 0x38
    781e:	ab32      	add	r3, sp, #200	; 0xc8
    7820:	9311      	str	r3, [sp, #68]	; 0x44
    7822:	f7ff fb05 	bl	6e30 <_svfprintf_r+0x220>
    7826:	003a      	movs	r2, r7
    7828:	9906      	ldr	r1, [sp, #24]
    782a:	9809      	ldr	r0, [sp, #36]	; 0x24
    782c:	f000 ffbe 	bl	87ac <__ssprint_r>
    7830:	2800      	cmp	r0, #0
    7832:	d001      	beq.n	7838 <_svfprintf_r+0xc28>
    7834:	f7ff fa73 	bl	6d1e <_svfprintf_r+0x10e>
    7838:	ab16      	add	r3, sp, #88	; 0x58
    783a:	7fdb      	ldrb	r3, [r3, #31]
    783c:	68bc      	ldr	r4, [r7, #8]
    783e:	4698      	mov	r8, r3
    7840:	ae32      	add	r6, sp, #200	; 0xc8
    7842:	e560      	b.n	7306 <_svfprintf_r+0x6f6>
    7844:	9b14      	ldr	r3, [sp, #80]	; 0x50
    7846:	1e5d      	subs	r5, r3, #1
    7848:	2d00      	cmp	r5, #0
    784a:	dc00      	bgt.n	784e <_svfprintf_r+0xc3e>
    784c:	e666      	b.n	751c <_svfprintf_r+0x90c>
    784e:	4b9c      	ldr	r3, [pc, #624]	; (7ac0 <_svfprintf_r+0xeb0>)
    7850:	4699      	mov	r9, r3
    7852:	2d10      	cmp	r5, #16
    7854:	dd29      	ble.n	78aa <_svfprintf_r+0xc9a>
    7856:	2310      	movs	r3, #16
    7858:	0032      	movs	r2, r6
    785a:	469a      	mov	sl, r3
    785c:	002e      	movs	r6, r5
    785e:	0021      	movs	r1, r4
    7860:	4643      	mov	r3, r8
    7862:	9c09      	ldr	r4, [sp, #36]	; 0x24
    7864:	464d      	mov	r5, r9
    7866:	e003      	b.n	7870 <_svfprintf_r+0xc60>
    7868:	3e10      	subs	r6, #16
    786a:	3208      	adds	r2, #8
    786c:	2e10      	cmp	r6, #16
    786e:	dd17      	ble.n	78a0 <_svfprintf_r+0xc90>
    7870:	4650      	mov	r0, sl
    7872:	3110      	adds	r1, #16
    7874:	3301      	adds	r3, #1
    7876:	6015      	str	r5, [r2, #0]
    7878:	6050      	str	r0, [r2, #4]
    787a:	60b9      	str	r1, [r7, #8]
    787c:	607b      	str	r3, [r7, #4]
    787e:	2b07      	cmp	r3, #7
    7880:	ddf2      	ble.n	7868 <_svfprintf_r+0xc58>
    7882:	003a      	movs	r2, r7
    7884:	9906      	ldr	r1, [sp, #24]
    7886:	0020      	movs	r0, r4
    7888:	f000 ff90 	bl	87ac <__ssprint_r>
    788c:	2800      	cmp	r0, #0
    788e:	d001      	beq.n	7894 <_svfprintf_r+0xc84>
    7890:	f7ff fa45 	bl	6d1e <_svfprintf_r+0x10e>
    7894:	3e10      	subs	r6, #16
    7896:	68b9      	ldr	r1, [r7, #8]
    7898:	687b      	ldr	r3, [r7, #4]
    789a:	aa32      	add	r2, sp, #200	; 0xc8
    789c:	2e10      	cmp	r6, #16
    789e:	dce7      	bgt.n	7870 <_svfprintf_r+0xc60>
    78a0:	46a9      	mov	r9, r5
    78a2:	000c      	movs	r4, r1
    78a4:	0035      	movs	r5, r6
    78a6:	4698      	mov	r8, r3
    78a8:	0016      	movs	r6, r2
    78aa:	464b      	mov	r3, r9
    78ac:	6075      	str	r5, [r6, #4]
    78ae:	6033      	str	r3, [r6, #0]
    78b0:	1964      	adds	r4, r4, r5
    78b2:	e629      	b.n	7508 <_svfprintf_r+0x8f8>
    78b4:	9b0f      	ldr	r3, [sp, #60]	; 0x3c
    78b6:	681a      	ldr	r2, [r3, #0]
    78b8:	f7ff fbfb 	bl	70b2 <_svfprintf_r+0x4a2>
    78bc:	6813      	ldr	r3, [r2, #0]
    78be:	9307      	str	r3, [sp, #28]
    78c0:	f7ff fa82 	bl	6dc8 <_svfprintf_r+0x1b8>
    78c4:	9b0f      	ldr	r3, [sp, #60]	; 0x3c
    78c6:	681a      	ldr	r2, [r3, #0]
    78c8:	f7ff fb84 	bl	6fd4 <_svfprintf_r+0x3c4>
    78cc:	9b0f      	ldr	r3, [sp, #60]	; 0x3c
    78ce:	681a      	ldr	r2, [r3, #0]
    78d0:	f7ff fbd1 	bl	7076 <_svfprintf_r+0x466>
    78d4:	9b19      	ldr	r3, [sp, #100]	; 0x64
    78d6:	68ba      	ldr	r2, [r7, #8]
    78d8:	6033      	str	r3, [r6, #0]
    78da:	9b18      	ldr	r3, [sp, #96]	; 0x60
    78dc:	469c      	mov	ip, r3
    78de:	6073      	str	r3, [r6, #4]
    78e0:	687b      	ldr	r3, [r7, #4]
    78e2:	4462      	add	r2, ip
    78e4:	3301      	adds	r3, #1
    78e6:	0014      	movs	r4, r2
    78e8:	60ba      	str	r2, [r7, #8]
    78ea:	607b      	str	r3, [r7, #4]
    78ec:	2b07      	cmp	r3, #7
    78ee:	dd00      	ble.n	78f2 <_svfprintf_r+0xce2>
    78f0:	e202      	b.n	7cf8 <_svfprintf_r+0x10e8>
    78f2:	3608      	adds	r6, #8
    78f4:	9b14      	ldr	r3, [sp, #80]	; 0x50
    78f6:	1e5d      	subs	r5, r3, #1
    78f8:	2d00      	cmp	r5, #0
    78fa:	dc00      	bgt.n	78fe <_svfprintf_r+0xcee>
    78fc:	e57e      	b.n	73fc <_svfprintf_r+0x7ec>
    78fe:	4a70      	ldr	r2, [pc, #448]	; (7ac0 <_svfprintf_r+0xeb0>)
    7900:	687b      	ldr	r3, [r7, #4]
    7902:	4691      	mov	r9, r2
    7904:	2d10      	cmp	r5, #16
    7906:	dd25      	ble.n	7954 <_svfprintf_r+0xd44>
    7908:	2210      	movs	r2, #16
    790a:	0021      	movs	r1, r4
    790c:	4690      	mov	r8, r2
    790e:	9c09      	ldr	r4, [sp, #36]	; 0x24
    7910:	0032      	movs	r2, r6
    7912:	002e      	movs	r6, r5
    7914:	464d      	mov	r5, r9
    7916:	e003      	b.n	7920 <_svfprintf_r+0xd10>
    7918:	3208      	adds	r2, #8
    791a:	3e10      	subs	r6, #16
    791c:	2e10      	cmp	r6, #16
    791e:	dd15      	ble.n	794c <_svfprintf_r+0xd3c>
    7920:	4640      	mov	r0, r8
    7922:	3110      	adds	r1, #16
    7924:	3301      	adds	r3, #1
    7926:	6015      	str	r5, [r2, #0]
    7928:	6050      	str	r0, [r2, #4]
    792a:	60b9      	str	r1, [r7, #8]
    792c:	607b      	str	r3, [r7, #4]
    792e:	2b07      	cmp	r3, #7
    7930:	ddf2      	ble.n	7918 <_svfprintf_r+0xd08>
    7932:	003a      	movs	r2, r7
    7934:	9906      	ldr	r1, [sp, #24]
    7936:	0020      	movs	r0, r4
    7938:	f000 ff38 	bl	87ac <__ssprint_r>
    793c:	2800      	cmp	r0, #0
    793e:	d001      	beq.n	7944 <_svfprintf_r+0xd34>
    7940:	f7ff f9ed 	bl	6d1e <_svfprintf_r+0x10e>
    7944:	68b9      	ldr	r1, [r7, #8]
    7946:	687b      	ldr	r3, [r7, #4]
    7948:	aa32      	add	r2, sp, #200	; 0xc8
    794a:	e7e6      	b.n	791a <_svfprintf_r+0xd0a>
    794c:	46a9      	mov	r9, r5
    794e:	000c      	movs	r4, r1
    7950:	0035      	movs	r5, r6
    7952:	0016      	movs	r6, r2
    7954:	464a      	mov	r2, r9
    7956:	1964      	adds	r4, r4, r5
    7958:	3301      	adds	r3, #1
    795a:	6032      	str	r2, [r6, #0]
    795c:	6075      	str	r5, [r6, #4]
    795e:	60bc      	str	r4, [r7, #8]
    7960:	607b      	str	r3, [r7, #4]
    7962:	2b07      	cmp	r3, #7
    7964:	dc00      	bgt.n	7968 <_svfprintf_r+0xd58>
    7966:	e548      	b.n	73fa <_svfprintf_r+0x7ea>
    7968:	e5e5      	b.n	7536 <_svfprintf_r+0x926>
    796a:	9b0c      	ldr	r3, [sp, #48]	; 0x30
    796c:	2b09      	cmp	r3, #9
    796e:	d900      	bls.n	7972 <_svfprintf_r+0xd62>
    7970:	e730      	b.n	77d4 <_svfprintf_r+0xbc4>
    7972:	9c08      	ldr	r4, [sp, #32]
    7974:	2227      	movs	r2, #39	; 0x27
    7976:	9b0c      	ldr	r3, [sp, #48]	; 0x30
    7978:	a928      	add	r1, sp, #160	; 0xa0
    797a:	3330      	adds	r3, #48	; 0x30
    797c:	548b      	strb	r3, [r1, r2]
    797e:	2301      	movs	r3, #1
    7980:	aa16      	add	r2, sp, #88	; 0x58
    7982:	4694      	mov	ip, r2
    7984:	930e      	str	r3, [sp, #56]	; 0x38
    7986:	336e      	adds	r3, #110	; 0x6e
    7988:	4463      	add	r3, ip
    798a:	9408      	str	r4, [sp, #32]
    798c:	9311      	str	r3, [sp, #68]	; 0x44
    798e:	f7ff fa4f 	bl	6e30 <_svfprintf_r+0x220>
    7992:	2b30      	cmp	r3, #48	; 0x30
    7994:	d100      	bne.n	7998 <_svfprintf_r+0xd88>
    7996:	e20b      	b.n	7db0 <_svfprintf_r+0x11a0>
    7998:	2330      	movs	r3, #48	; 0x30
    799a:	3a02      	subs	r2, #2
    799c:	7013      	strb	r3, [r2, #0]
    799e:	ab32      	add	r3, sp, #200	; 0xc8
    79a0:	1a9b      	subs	r3, r3, r2
    79a2:	930e      	str	r3, [sp, #56]	; 0x38
    79a4:	9211      	str	r2, [sp, #68]	; 0x44
    79a6:	f7ff fa43 	bl	6e30 <_svfprintf_r+0x220>
    79aa:	46b0      	mov	r8, r6
    79ac:	46a1      	mov	r9, r4
    79ae:	0016      	movs	r6, r2
    79b0:	000c      	movs	r4, r1
    79b2:	464a      	mov	r2, r9
    79b4:	6032      	str	r2, [r6, #0]
    79b6:	4642      	mov	r2, r8
    79b8:	4444      	add	r4, r8
    79ba:	3301      	adds	r3, #1
    79bc:	6072      	str	r2, [r6, #4]
    79be:	60bc      	str	r4, [r7, #8]
    79c0:	607b      	str	r3, [r7, #4]
    79c2:	2b07      	cmp	r3, #7
    79c4:	dd00      	ble.n	79c8 <_svfprintf_r+0xdb8>
    79c6:	e29c      	b.n	7f02 <_svfprintf_r+0x12f2>
    79c8:	3608      	adds	r6, #8
    79ca:	9b1f      	ldr	r3, [sp, #124]	; 0x7c
    79cc:	9a14      	ldr	r2, [sp, #80]	; 0x50
    79ce:	4293      	cmp	r3, r2
    79d0:	db4c      	blt.n	7a6c <_svfprintf_r+0xe5c>
    79d2:	9a08      	ldr	r2, [sp, #32]
    79d4:	07d2      	lsls	r2, r2, #31
    79d6:	d449      	bmi.n	7a6c <_svfprintf_r+0xe5c>
    79d8:	9a14      	ldr	r2, [sp, #80]	; 0x50
    79da:	9913      	ldr	r1, [sp, #76]	; 0x4c
    79dc:	1ad3      	subs	r3, r2, r3
    79de:	1a52      	subs	r2, r2, r1
    79e0:	4690      	mov	r8, r2
    79e2:	429a      	cmp	r2, r3
    79e4:	dd00      	ble.n	79e8 <_svfprintf_r+0xdd8>
    79e6:	4698      	mov	r8, r3
    79e8:	4642      	mov	r2, r8
    79ea:	2a00      	cmp	r2, #0
    79ec:	dd0f      	ble.n	7a0e <_svfprintf_r+0xdfe>
    79ee:	9913      	ldr	r1, [sp, #76]	; 0x4c
    79f0:	9a11      	ldr	r2, [sp, #68]	; 0x44
    79f2:	468c      	mov	ip, r1
    79f4:	4462      	add	r2, ip
    79f6:	6032      	str	r2, [r6, #0]
    79f8:	4642      	mov	r2, r8
    79fa:	6072      	str	r2, [r6, #4]
    79fc:	687a      	ldr	r2, [r7, #4]
    79fe:	4444      	add	r4, r8
    7a00:	3201      	adds	r2, #1
    7a02:	60bc      	str	r4, [r7, #8]
    7a04:	607a      	str	r2, [r7, #4]
    7a06:	2a07      	cmp	r2, #7
    7a08:	dd00      	ble.n	7a0c <_svfprintf_r+0xdfc>
    7a0a:	e286      	b.n	7f1a <_svfprintf_r+0x130a>
    7a0c:	3608      	adds	r6, #8
    7a0e:	4642      	mov	r2, r8
    7a10:	43d5      	mvns	r5, r2
    7a12:	17ed      	asrs	r5, r5, #31
    7a14:	4015      	ands	r5, r2
    7a16:	1b5d      	subs	r5, r3, r5
    7a18:	2d00      	cmp	r5, #0
    7a1a:	dc00      	bgt.n	7a1e <_svfprintf_r+0xe0e>
    7a1c:	e4ee      	b.n	73fc <_svfprintf_r+0x7ec>
    7a1e:	4a28      	ldr	r2, [pc, #160]	; (7ac0 <_svfprintf_r+0xeb0>)
    7a20:	687b      	ldr	r3, [r7, #4]
    7a22:	4691      	mov	r9, r2
    7a24:	2d10      	cmp	r5, #16
    7a26:	dd95      	ble.n	7954 <_svfprintf_r+0xd44>
    7a28:	2210      	movs	r2, #16
    7a2a:	0021      	movs	r1, r4
    7a2c:	4690      	mov	r8, r2
    7a2e:	9c09      	ldr	r4, [sp, #36]	; 0x24
    7a30:	0032      	movs	r2, r6
    7a32:	002e      	movs	r6, r5
    7a34:	464d      	mov	r5, r9
    7a36:	e003      	b.n	7a40 <_svfprintf_r+0xe30>
    7a38:	3208      	adds	r2, #8
    7a3a:	3e10      	subs	r6, #16
    7a3c:	2e10      	cmp	r6, #16
    7a3e:	dd85      	ble.n	794c <_svfprintf_r+0xd3c>
    7a40:	4640      	mov	r0, r8
    7a42:	3110      	adds	r1, #16
    7a44:	3301      	adds	r3, #1
    7a46:	6015      	str	r5, [r2, #0]
    7a48:	6050      	str	r0, [r2, #4]
    7a4a:	60b9      	str	r1, [r7, #8]
    7a4c:	607b      	str	r3, [r7, #4]
    7a4e:	2b07      	cmp	r3, #7
    7a50:	ddf2      	ble.n	7a38 <_svfprintf_r+0xe28>
    7a52:	003a      	movs	r2, r7
    7a54:	9906      	ldr	r1, [sp, #24]
    7a56:	0020      	movs	r0, r4
    7a58:	f000 fea8 	bl	87ac <__ssprint_r>
    7a5c:	2800      	cmp	r0, #0
    7a5e:	d001      	beq.n	7a64 <_svfprintf_r+0xe54>
    7a60:	f7ff f95d 	bl	6d1e <_svfprintf_r+0x10e>
    7a64:	68b9      	ldr	r1, [r7, #8]
    7a66:	687b      	ldr	r3, [r7, #4]
    7a68:	aa32      	add	r2, sp, #200	; 0xc8
    7a6a:	e7e6      	b.n	7a3a <_svfprintf_r+0xe2a>
    7a6c:	9a19      	ldr	r2, [sp, #100]	; 0x64
    7a6e:	6032      	str	r2, [r6, #0]
    7a70:	9a18      	ldr	r2, [sp, #96]	; 0x60
    7a72:	4694      	mov	ip, r2
    7a74:	6072      	str	r2, [r6, #4]
    7a76:	687a      	ldr	r2, [r7, #4]
    7a78:	4464      	add	r4, ip
    7a7a:	3201      	adds	r2, #1
    7a7c:	60bc      	str	r4, [r7, #8]
    7a7e:	607a      	str	r2, [r7, #4]
    7a80:	2a07      	cmp	r2, #7
    7a82:	dd00      	ble.n	7a86 <_svfprintf_r+0xe76>
    7a84:	e230      	b.n	7ee8 <_svfprintf_r+0x12d8>
    7a86:	3608      	adds	r6, #8
    7a88:	e7a6      	b.n	79d8 <_svfprintf_r+0xdc8>
    7a8a:	003a      	movs	r2, r7
    7a8c:	9906      	ldr	r1, [sp, #24]
    7a8e:	9809      	ldr	r0, [sp, #36]	; 0x24
    7a90:	f000 fe8c 	bl	87ac <__ssprint_r>
    7a94:	2800      	cmp	r0, #0
    7a96:	d001      	beq.n	7a9c <_svfprintf_r+0xe8c>
    7a98:	f7ff f941 	bl	6d1e <_svfprintf_r+0x10e>
    7a9c:	68bc      	ldr	r4, [r7, #8]
    7a9e:	687b      	ldr	r3, [r7, #4]
    7aa0:	ae32      	add	r6, sp, #200	; 0xc8
    7aa2:	e513      	b.n	74cc <_svfprintf_r+0x8bc>
    7aa4:	003a      	movs	r2, r7
    7aa6:	9906      	ldr	r1, [sp, #24]
    7aa8:	9809      	ldr	r0, [sp, #36]	; 0x24
    7aaa:	f000 fe7f 	bl	87ac <__ssprint_r>
    7aae:	2800      	cmp	r0, #0
    7ab0:	d001      	beq.n	7ab6 <_svfprintf_r+0xea6>
    7ab2:	f7ff f934 	bl	6d1e <_svfprintf_r+0x10e>
    7ab6:	687b      	ldr	r3, [r7, #4]
    7ab8:	68bc      	ldr	r4, [r7, #8]
    7aba:	4698      	mov	r8, r3
    7abc:	ae32      	add	r6, sp, #200	; 0xc8
    7abe:	e513      	b.n	74e8 <_svfprintf_r+0x8d8>
    7ac0:	00009330 	.word	0x00009330
    7ac4:	2307      	movs	r3, #7
    7ac6:	3207      	adds	r2, #7
    7ac8:	439a      	bics	r2, r3
    7aca:	3301      	adds	r3, #1
    7acc:	469c      	mov	ip, r3
    7ace:	4494      	add	ip, r2
    7ad0:	4663      	mov	r3, ip
    7ad2:	930f      	str	r3, [sp, #60]	; 0x3c
    7ad4:	6853      	ldr	r3, [r2, #4]
    7ad6:	6812      	ldr	r2, [r2, #0]
    7ad8:	930d      	str	r3, [sp, #52]	; 0x34
    7ada:	920c      	str	r2, [sp, #48]	; 0x30
    7adc:	2b00      	cmp	r3, #0
    7ade:	db01      	blt.n	7ae4 <_svfprintf_r+0xed4>
    7ae0:	f7ff f97a 	bl	6dd8 <_svfprintf_r+0x1c8>
    7ae4:	980c      	ldr	r0, [sp, #48]	; 0x30
    7ae6:	990d      	ldr	r1, [sp, #52]	; 0x34
    7ae8:	2300      	movs	r3, #0
    7aea:	4242      	negs	r2, r0
    7aec:	418b      	sbcs	r3, r1
    7aee:	0011      	movs	r1, r2
    7af0:	001a      	movs	r2, r3
    7af2:	232d      	movs	r3, #45	; 0x2d
    7af4:	a816      	add	r0, sp, #88	; 0x58
    7af6:	77c3      	strb	r3, [r0, #31]
    7af8:	0008      	movs	r0, r1
    7afa:	4310      	orrs	r0, r2
    7afc:	910c      	str	r1, [sp, #48]	; 0x30
    7afe:	920d      	str	r2, [sp, #52]	; 0x34
    7b00:	4698      	mov	r8, r3
    7b02:	0002      	movs	r2, r0
    7b04:	3b2c      	subs	r3, #44	; 0x2c
    7b06:	f7ff f970 	bl	6dea <_svfprintf_r+0x1da>
    7b0a:	003a      	movs	r2, r7
    7b0c:	9906      	ldr	r1, [sp, #24]
    7b0e:	9809      	ldr	r0, [sp, #36]	; 0x24
    7b10:	f000 fe4c 	bl	87ac <__ssprint_r>
    7b14:	2800      	cmp	r0, #0
    7b16:	d001      	beq.n	7b1c <_svfprintf_r+0xf0c>
    7b18:	f7ff f901 	bl	6d1e <_svfprintf_r+0x10e>
    7b1c:	68bc      	ldr	r4, [r7, #8]
    7b1e:	ae32      	add	r6, sp, #200	; 0xc8
    7b20:	e418      	b.n	7354 <_svfprintf_r+0x744>
    7b22:	9916      	ldr	r1, [sp, #88]	; 0x58
    7b24:	9d15      	ldr	r5, [sp, #84]	; 0x54
    7b26:	000a      	movs	r2, r1
    7b28:	0008      	movs	r0, r1
    7b2a:	002b      	movs	r3, r5
    7b2c:	0029      	movs	r1, r5
    7b2e:	f000 ffc5 	bl	8abc <__aeabi_dcmpun>
    7b32:	2800      	cmp	r0, #0
    7b34:	d000      	beq.n	7b38 <_svfprintf_r+0xf28>
    7b36:	e2e6      	b.n	8106 <_svfprintf_r+0x14f6>
    7b38:	4653      	mov	r3, sl
    7b3a:	3301      	adds	r3, #1
    7b3c:	d100      	bne.n	7b40 <_svfprintf_r+0xf30>
    7b3e:	e20d      	b.n	7f5c <_svfprintf_r+0x134c>
    7b40:	2320      	movs	r3, #32
    7b42:	9a12      	ldr	r2, [sp, #72]	; 0x48
    7b44:	439a      	bics	r2, r3
    7b46:	920e      	str	r2, [sp, #56]	; 0x38
    7b48:	2a47      	cmp	r2, #71	; 0x47
    7b4a:	d100      	bne.n	7b4e <_svfprintf_r+0xf3e>
    7b4c:	e11c      	b.n	7d88 <_svfprintf_r+0x1178>
    7b4e:	2380      	movs	r3, #128	; 0x80
    7b50:	005b      	lsls	r3, r3, #1
    7b52:	4323      	orrs	r3, r4
    7b54:	9308      	str	r3, [sp, #32]
    7b56:	9b15      	ldr	r3, [sp, #84]	; 0x54
    7b58:	2b00      	cmp	r3, #0
    7b5a:	da00      	bge.n	7b5e <_svfprintf_r+0xf4e>
    7b5c:	e221      	b.n	7fa2 <_svfprintf_r+0x1392>
    7b5e:	9a16      	ldr	r2, [sp, #88]	; 0x58
    7b60:	9307      	str	r3, [sp, #28]
    7b62:	2300      	movs	r3, #0
    7b64:	4691      	mov	r9, r2
    7b66:	9310      	str	r3, [sp, #64]	; 0x40
    7b68:	9b12      	ldr	r3, [sp, #72]	; 0x48
    7b6a:	2b66      	cmp	r3, #102	; 0x66
    7b6c:	d100      	bne.n	7b70 <_svfprintf_r+0xf60>
    7b6e:	e1fc      	b.n	7f6a <_svfprintf_r+0x135a>
    7b70:	2b46      	cmp	r3, #70	; 0x46
    7b72:	d100      	bne.n	7b76 <_svfprintf_r+0xf66>
    7b74:	e0db      	b.n	7d2e <_svfprintf_r+0x111e>
    7b76:	9a0e      	ldr	r2, [sp, #56]	; 0x38
    7b78:	9809      	ldr	r0, [sp, #36]	; 0x24
    7b7a:	3a45      	subs	r2, #69	; 0x45
    7b7c:	0013      	movs	r3, r2
    7b7e:	4259      	negs	r1, r3
    7b80:	4159      	adcs	r1, r3
    7b82:	ab20      	add	r3, sp, #128	; 0x80
    7b84:	000d      	movs	r5, r1
    7b86:	9303      	str	r3, [sp, #12]
    7b88:	ab1f      	add	r3, sp, #124	; 0x7c
    7b8a:	9302      	str	r3, [sp, #8]
    7b8c:	2302      	movs	r3, #2
    7b8e:	aa23      	add	r2, sp, #140	; 0x8c
    7b90:	4455      	add	r5, sl
    7b92:	921b      	str	r2, [sp, #108]	; 0x6c
    7b94:	9204      	str	r2, [sp, #16]
    7b96:	9300      	str	r3, [sp, #0]
    7b98:	9501      	str	r5, [sp, #4]
    7b9a:	9b07      	ldr	r3, [sp, #28]
    7b9c:	464a      	mov	r2, r9
    7b9e:	f7fd f8bb 	bl	4d18 <_dtoa_r>
    7ba2:	9b12      	ldr	r3, [sp, #72]	; 0x48
    7ba4:	9011      	str	r0, [sp, #68]	; 0x44
    7ba6:	2b67      	cmp	r3, #103	; 0x67
    7ba8:	d000      	beq.n	7bac <_svfprintf_r+0xf9c>
    7baa:	e239      	b.n	8020 <_svfprintf_r+0x1410>
    7bac:	9b11      	ldr	r3, [sp, #68]	; 0x44
    7bae:	4698      	mov	r8, r3
    7bb0:	44a8      	add	r8, r5
    7bb2:	07e3      	lsls	r3, r4, #31
    7bb4:	d400      	bmi.n	7bb8 <_svfprintf_r+0xfa8>
    7bb6:	e28b      	b.n	80d0 <_svfprintf_r+0x14c0>
    7bb8:	2300      	movs	r3, #0
    7bba:	2200      	movs	r2, #0
    7bbc:	4648      	mov	r0, r9
    7bbe:	9907      	ldr	r1, [sp, #28]
    7bc0:	f7fc fd2c 	bl	461c <__aeabi_dcmpeq>
    7bc4:	4643      	mov	r3, r8
    7bc6:	2800      	cmp	r0, #0
    7bc8:	d10a      	bne.n	7be0 <_svfprintf_r+0xfd0>
    7bca:	9b23      	ldr	r3, [sp, #140]	; 0x8c
    7bcc:	4543      	cmp	r3, r8
    7bce:	d207      	bcs.n	7be0 <_svfprintf_r+0xfd0>
    7bd0:	2130      	movs	r1, #48	; 0x30
    7bd2:	4640      	mov	r0, r8
    7bd4:	1c5a      	adds	r2, r3, #1
    7bd6:	9223      	str	r2, [sp, #140]	; 0x8c
    7bd8:	7019      	strb	r1, [r3, #0]
    7bda:	9b23      	ldr	r3, [sp, #140]	; 0x8c
    7bdc:	4298      	cmp	r0, r3
    7bde:	d8f9      	bhi.n	7bd4 <_svfprintf_r+0xfc4>
    7be0:	9a11      	ldr	r2, [sp, #68]	; 0x44
    7be2:	1a9b      	subs	r3, r3, r2
    7be4:	9314      	str	r3, [sp, #80]	; 0x50
    7be6:	9b0e      	ldr	r3, [sp, #56]	; 0x38
    7be8:	2b47      	cmp	r3, #71	; 0x47
    7bea:	d100      	bne.n	7bee <_svfprintf_r+0xfde>
    7bec:	e0f6      	b.n	7ddc <_svfprintf_r+0x11cc>
    7bee:	9b12      	ldr	r3, [sp, #72]	; 0x48
    7bf0:	2b65      	cmp	r3, #101	; 0x65
    7bf2:	dc00      	bgt.n	7bf6 <_svfprintf_r+0xfe6>
    7bf4:	e226      	b.n	8044 <_svfprintf_r+0x1434>
    7bf6:	9b12      	ldr	r3, [sp, #72]	; 0x48
    7bf8:	2b66      	cmp	r3, #102	; 0x66
    7bfa:	d100      	bne.n	7bfe <_svfprintf_r+0xfee>
    7bfc:	e1f4      	b.n	7fe8 <_svfprintf_r+0x13d8>
    7bfe:	9b1f      	ldr	r3, [sp, #124]	; 0x7c
    7c00:	9313      	str	r3, [sp, #76]	; 0x4c
    7c02:	9b14      	ldr	r3, [sp, #80]	; 0x50
    7c04:	9a13      	ldr	r2, [sp, #76]	; 0x4c
    7c06:	0019      	movs	r1, r3
    7c08:	4291      	cmp	r1, r2
    7c0a:	dd00      	ble.n	7c0e <_svfprintf_r+0xffe>
    7c0c:	e1d4      	b.n	7fb8 <_svfprintf_r+0x13a8>
    7c0e:	07e3      	lsls	r3, r4, #31
    7c10:	d500      	bpl.n	7c14 <_svfprintf_r+0x1004>
    7c12:	e249      	b.n	80a8 <_svfprintf_r+0x1498>
    7c14:	43d3      	mvns	r3, r2
    7c16:	17db      	asrs	r3, r3, #31
    7c18:	0011      	movs	r1, r2
    7c1a:	401a      	ands	r2, r3
    7c1c:	2367      	movs	r3, #103	; 0x67
    7c1e:	9207      	str	r2, [sp, #28]
    7c20:	910e      	str	r1, [sp, #56]	; 0x38
    7c22:	9312      	str	r3, [sp, #72]	; 0x48
    7c24:	9b10      	ldr	r3, [sp, #64]	; 0x40
    7c26:	2b00      	cmp	r3, #0
    7c28:	d000      	beq.n	7c2c <_svfprintf_r+0x101c>
    7c2a:	e0cf      	b.n	7dcc <_svfprintf_r+0x11bc>
    7c2c:	ab16      	add	r3, sp, #88	; 0x58
    7c2e:	7fdb      	ldrb	r3, [r3, #31]
    7c30:	4698      	mov	r8, r3
    7c32:	2300      	movs	r3, #0
    7c34:	469a      	mov	sl, r3
    7c36:	f7ff f903 	bl	6e40 <_svfprintf_r+0x230>
    7c3a:	9a0f      	ldr	r2, [sp, #60]	; 0x3c
    7c3c:	990a      	ldr	r1, [sp, #40]	; 0x28
    7c3e:	6813      	ldr	r3, [r2, #0]
    7c40:	6019      	str	r1, [r3, #0]
    7c42:	0013      	movs	r3, r2
    7c44:	3304      	adds	r3, #4
    7c46:	930f      	str	r3, [sp, #60]	; 0x3c
    7c48:	f7ff f80d 	bl	6c66 <_svfprintf_r+0x56>
    7c4c:	003a      	movs	r2, r7
    7c4e:	9906      	ldr	r1, [sp, #24]
    7c50:	9809      	ldr	r0, [sp, #36]	; 0x24
    7c52:	f000 fdab 	bl	87ac <__ssprint_r>
    7c56:	2800      	cmp	r0, #0
    7c58:	d001      	beq.n	7c5e <_svfprintf_r+0x104e>
    7c5a:	f7ff f860 	bl	6d1e <_svfprintf_r+0x10e>
    7c5e:	ae32      	add	r6, sp, #200	; 0xc8
    7c60:	e48e      	b.n	7580 <_svfprintf_r+0x970>
    7c62:	4bde      	ldr	r3, [pc, #888]	; (7fdc <_svfprintf_r+0x13cc>)
    7c64:	3401      	adds	r4, #1
    7c66:	6033      	str	r3, [r6, #0]
    7c68:	2301      	movs	r3, #1
    7c6a:	6073      	str	r3, [r6, #4]
    7c6c:	687b      	ldr	r3, [r7, #4]
    7c6e:	60bc      	str	r4, [r7, #8]
    7c70:	3301      	adds	r3, #1
    7c72:	607b      	str	r3, [r7, #4]
    7c74:	2b07      	cmp	r3, #7
    7c76:	dc7a      	bgt.n	7d6e <_svfprintf_r+0x115e>
    7c78:	3608      	adds	r6, #8
    7c7a:	2800      	cmp	r0, #0
    7c7c:	d107      	bne.n	7c8e <_svfprintf_r+0x107e>
    7c7e:	9b14      	ldr	r3, [sp, #80]	; 0x50
    7c80:	2b00      	cmp	r3, #0
    7c82:	d104      	bne.n	7c8e <_svfprintf_r+0x107e>
    7c84:	9b08      	ldr	r3, [sp, #32]
    7c86:	07db      	lsls	r3, r3, #31
    7c88:	d401      	bmi.n	7c8e <_svfprintf_r+0x107e>
    7c8a:	f7ff fbb7 	bl	73fc <_svfprintf_r+0x7ec>
    7c8e:	9b19      	ldr	r3, [sp, #100]	; 0x64
    7c90:	6033      	str	r3, [r6, #0]
    7c92:	9b18      	ldr	r3, [sp, #96]	; 0x60
    7c94:	1919      	adds	r1, r3, r4
    7c96:	6073      	str	r3, [r6, #4]
    7c98:	687b      	ldr	r3, [r7, #4]
    7c9a:	60b9      	str	r1, [r7, #8]
    7c9c:	3301      	adds	r3, #1
    7c9e:	607b      	str	r3, [r7, #4]
    7ca0:	2b07      	cmp	r3, #7
    7ca2:	dd00      	ble.n	7ca6 <_svfprintf_r+0x1096>
    7ca4:	e1f2      	b.n	808c <_svfprintf_r+0x147c>
    7ca6:	0032      	movs	r2, r6
    7ca8:	3208      	adds	r2, #8
    7caa:	2800      	cmp	r0, #0
    7cac:	da00      	bge.n	7cb0 <_svfprintf_r+0x10a0>
    7cae:	e1cc      	b.n	804a <_svfprintf_r+0x143a>
    7cb0:	9811      	ldr	r0, [sp, #68]	; 0x44
    7cb2:	3301      	adds	r3, #1
    7cb4:	6010      	str	r0, [r2, #0]
    7cb6:	9814      	ldr	r0, [sp, #80]	; 0x50
    7cb8:	607b      	str	r3, [r7, #4]
    7cba:	1844      	adds	r4, r0, r1
    7cbc:	6050      	str	r0, [r2, #4]
    7cbe:	60bc      	str	r4, [r7, #8]
    7cc0:	2b07      	cmp	r3, #7
    7cc2:	dd00      	ble.n	7cc6 <_svfprintf_r+0x10b6>
    7cc4:	e437      	b.n	7536 <_svfprintf_r+0x926>
    7cc6:	3208      	adds	r2, #8
    7cc8:	0016      	movs	r6, r2
    7cca:	f7ff fb97 	bl	73fc <_svfprintf_r+0x7ec>
    7cce:	990f      	ldr	r1, [sp, #60]	; 0x3c
    7cd0:	9a0a      	ldr	r2, [sp, #40]	; 0x28
    7cd2:	680b      	ldr	r3, [r1, #0]
    7cd4:	601a      	str	r2, [r3, #0]
    7cd6:	17d2      	asrs	r2, r2, #31
    7cd8:	605a      	str	r2, [r3, #4]
    7cda:	000b      	movs	r3, r1
    7cdc:	3304      	adds	r3, #4
    7cde:	930f      	str	r3, [sp, #60]	; 0x3c
    7ce0:	f7fe ffc1 	bl	6c66 <_svfprintf_r+0x56>
    7ce4:	464b      	mov	r3, r9
    7ce6:	3101      	adds	r1, #1
    7ce8:	431c      	orrs	r4, r3
    7cea:	780b      	ldrb	r3, [r1, #0]
    7cec:	f7fe fff4 	bl	6cd8 <_svfprintf_r+0xc8>
    7cf0:	4bbb      	ldr	r3, [pc, #748]	; (7fe0 <_svfprintf_r+0x13d0>)
    7cf2:	9311      	str	r3, [sp, #68]	; 0x44
    7cf4:	f7ff f937 	bl	6f66 <_svfprintf_r+0x356>
    7cf8:	003a      	movs	r2, r7
    7cfa:	9906      	ldr	r1, [sp, #24]
    7cfc:	9809      	ldr	r0, [sp, #36]	; 0x24
    7cfe:	f000 fd55 	bl	87ac <__ssprint_r>
    7d02:	2800      	cmp	r0, #0
    7d04:	d001      	beq.n	7d0a <_svfprintf_r+0x10fa>
    7d06:	f7ff f80a 	bl	6d1e <_svfprintf_r+0x10e>
    7d0a:	68bc      	ldr	r4, [r7, #8]
    7d0c:	ae32      	add	r6, sp, #200	; 0xc8
    7d0e:	e5f1      	b.n	78f4 <_svfprintf_r+0xce4>
    7d10:	2140      	movs	r1, #64	; 0x40
    7d12:	9809      	ldr	r0, [sp, #36]	; 0x24
    7d14:	f7fe f91e 	bl	5f54 <_malloc_r>
    7d18:	9b06      	ldr	r3, [sp, #24]
    7d1a:	6018      	str	r0, [r3, #0]
    7d1c:	6118      	str	r0, [r3, #16]
    7d1e:	2800      	cmp	r0, #0
    7d20:	d100      	bne.n	7d24 <_svfprintf_r+0x1114>
    7d22:	e24f      	b.n	81c4 <_svfprintf_r+0x15b4>
    7d24:	2340      	movs	r3, #64	; 0x40
    7d26:	9a06      	ldr	r2, [sp, #24]
    7d28:	6153      	str	r3, [r2, #20]
    7d2a:	f7fe ff8e 	bl	6c4a <_svfprintf_r+0x3a>
    7d2e:	ab23      	add	r3, sp, #140	; 0x8c
    7d30:	931b      	str	r3, [sp, #108]	; 0x6c
    7d32:	9304      	str	r3, [sp, #16]
    7d34:	ab20      	add	r3, sp, #128	; 0x80
    7d36:	9303      	str	r3, [sp, #12]
    7d38:	ab1f      	add	r3, sp, #124	; 0x7c
    7d3a:	9302      	str	r3, [sp, #8]
    7d3c:	4653      	mov	r3, sl
    7d3e:	9301      	str	r3, [sp, #4]
    7d40:	2303      	movs	r3, #3
    7d42:	464a      	mov	r2, r9
    7d44:	9300      	str	r3, [sp, #0]
    7d46:	9809      	ldr	r0, [sp, #36]	; 0x24
    7d48:	9b07      	ldr	r3, [sp, #28]
    7d4a:	f7fc ffe5 	bl	4d18 <_dtoa_r>
    7d4e:	4655      	mov	r5, sl
    7d50:	9011      	str	r0, [sp, #68]	; 0x44
    7d52:	9b11      	ldr	r3, [sp, #68]	; 0x44
    7d54:	4698      	mov	r8, r3
    7d56:	9b12      	ldr	r3, [sp, #72]	; 0x48
    7d58:	44a8      	add	r8, r5
    7d5a:	2b46      	cmp	r3, #70	; 0x46
    7d5c:	d000      	beq.n	7d60 <_svfprintf_r+0x1150>
    7d5e:	e72b      	b.n	7bb8 <_svfprintf_r+0xfa8>
    7d60:	9b11      	ldr	r3, [sp, #68]	; 0x44
    7d62:	781b      	ldrb	r3, [r3, #0]
    7d64:	2b30      	cmp	r3, #48	; 0x30
    7d66:	d016      	beq.n	7d96 <_svfprintf_r+0x1186>
    7d68:	9b1f      	ldr	r3, [sp, #124]	; 0x7c
    7d6a:	4498      	add	r8, r3
    7d6c:	e724      	b.n	7bb8 <_svfprintf_r+0xfa8>
    7d6e:	003a      	movs	r2, r7
    7d70:	9906      	ldr	r1, [sp, #24]
    7d72:	9809      	ldr	r0, [sp, #36]	; 0x24
    7d74:	f000 fd1a 	bl	87ac <__ssprint_r>
    7d78:	2800      	cmp	r0, #0
    7d7a:	d001      	beq.n	7d80 <_svfprintf_r+0x1170>
    7d7c:	f7fe ffcf 	bl	6d1e <_svfprintf_r+0x10e>
    7d80:	981f      	ldr	r0, [sp, #124]	; 0x7c
    7d82:	68bc      	ldr	r4, [r7, #8]
    7d84:	ae32      	add	r6, sp, #200	; 0xc8
    7d86:	e778      	b.n	7c7a <_svfprintf_r+0x106a>
    7d88:	4653      	mov	r3, sl
    7d8a:	2b00      	cmp	r3, #0
    7d8c:	d000      	beq.n	7d90 <_svfprintf_r+0x1180>
    7d8e:	e6de      	b.n	7b4e <_svfprintf_r+0xf3e>
    7d90:	3301      	adds	r3, #1
    7d92:	469a      	mov	sl, r3
    7d94:	e6db      	b.n	7b4e <_svfprintf_r+0xf3e>
    7d96:	2200      	movs	r2, #0
    7d98:	2300      	movs	r3, #0
    7d9a:	4648      	mov	r0, r9
    7d9c:	9907      	ldr	r1, [sp, #28]
    7d9e:	f7fc fc3d 	bl	461c <__aeabi_dcmpeq>
    7da2:	2800      	cmp	r0, #0
    7da4:	d1e0      	bne.n	7d68 <_svfprintf_r+0x1158>
    7da6:	2301      	movs	r3, #1
    7da8:	1b5b      	subs	r3, r3, r5
    7daa:	931f      	str	r3, [sp, #124]	; 0x7c
    7dac:	4498      	add	r8, r3
    7dae:	e703      	b.n	7bb8 <_svfprintf_r+0xfa8>
    7db0:	9a11      	ldr	r2, [sp, #68]	; 0x44
    7db2:	ab32      	add	r3, sp, #200	; 0xc8
    7db4:	1a9b      	subs	r3, r3, r2
    7db6:	930e      	str	r3, [sp, #56]	; 0x38
    7db8:	f7ff f83a 	bl	6e30 <_svfprintf_r+0x220>
    7dbc:	9811      	ldr	r0, [sp, #68]	; 0x44
    7dbe:	f7fc fe35 	bl	4a2c <strlen>
    7dc2:	0002      	movs	r2, r0
    7dc4:	900e      	str	r0, [sp, #56]	; 0x38
    7dc6:	0003      	movs	r3, r0
    7dc8:	f7ff f9cd 	bl	7166 <_svfprintf_r+0x556>
    7dcc:	232d      	movs	r3, #45	; 0x2d
    7dce:	aa16      	add	r2, sp, #88	; 0x58
    7dd0:	77d3      	strb	r3, [r2, #31]
    7dd2:	4698      	mov	r8, r3
    7dd4:	2300      	movs	r3, #0
    7dd6:	469a      	mov	sl, r3
    7dd8:	f7ff f835 	bl	6e46 <_svfprintf_r+0x236>
    7ddc:	9b1f      	ldr	r3, [sp, #124]	; 0x7c
    7dde:	9313      	str	r3, [sp, #76]	; 0x4c
    7de0:	1cda      	adds	r2, r3, #3
    7de2:	db02      	blt.n	7dea <_svfprintf_r+0x11da>
    7de4:	459a      	cmp	sl, r3
    7de6:	db00      	blt.n	7dea <_svfprintf_r+0x11da>
    7de8:	e70b      	b.n	7c02 <_svfprintf_r+0xff2>
    7dea:	9b12      	ldr	r3, [sp, #72]	; 0x48
    7dec:	3b02      	subs	r3, #2
    7dee:	9312      	str	r3, [sp, #72]	; 0x48
    7df0:	222c      	movs	r2, #44	; 0x2c
    7df2:	9b13      	ldr	r3, [sp, #76]	; 0x4c
    7df4:	2148      	movs	r1, #72	; 0x48
    7df6:	1e5d      	subs	r5, r3, #1
    7df8:	ab16      	add	r3, sp, #88	; 0x58
    7dfa:	189b      	adds	r3, r3, r2
    7dfc:	466a      	mov	r2, sp
    7dfe:	1852      	adds	r2, r2, r1
    7e00:	7812      	ldrb	r2, [r2, #0]
    7e02:	951f      	str	r5, [sp, #124]	; 0x7c
    7e04:	701a      	strb	r2, [r3, #0]
    7e06:	2d00      	cmp	r5, #0
    7e08:	da00      	bge.n	7e0c <_svfprintf_r+0x11fc>
    7e0a:	e1a4      	b.n	8156 <_svfprintf_r+0x1546>
    7e0c:	212d      	movs	r1, #45	; 0x2d
    7e0e:	232b      	movs	r3, #43	; 0x2b
    7e10:	aa16      	add	r2, sp, #88	; 0x58
    7e12:	1852      	adds	r2, r2, r1
    7e14:	7013      	strb	r3, [r2, #0]
    7e16:	2d09      	cmp	r5, #9
    7e18:	dc00      	bgt.n	7e1c <_svfprintf_r+0x120c>
    7e1a:	e14c      	b.n	80b6 <_svfprintf_r+0x14a6>
    7e1c:	aa16      	add	r2, sp, #88	; 0x58
    7e1e:	233b      	movs	r3, #59	; 0x3b
    7e20:	4694      	mov	ip, r2
    7e22:	4463      	add	r3, ip
    7e24:	469a      	mov	sl, r3
    7e26:	46b1      	mov	r9, r6
    7e28:	46a0      	mov	r8, r4
    7e2a:	4656      	mov	r6, sl
    7e2c:	e000      	b.n	7e30 <_svfprintf_r+0x1220>
    7e2e:	0026      	movs	r6, r4
    7e30:	0028      	movs	r0, r5
    7e32:	210a      	movs	r1, #10
    7e34:	f000 fe3e 	bl	8ab4 <__aeabi_idivmod>
    7e38:	1e74      	subs	r4, r6, #1
    7e3a:	3130      	adds	r1, #48	; 0x30
    7e3c:	7021      	strb	r1, [r4, #0]
    7e3e:	0028      	movs	r0, r5
    7e40:	210a      	movs	r1, #10
    7e42:	f000 fd51 	bl	88e8 <__divsi3>
    7e46:	0005      	movs	r5, r0
    7e48:	2809      	cmp	r0, #9
    7e4a:	dcf0      	bgt.n	7e2e <_svfprintf_r+0x121e>
    7e4c:	0023      	movs	r3, r4
    7e4e:	4644      	mov	r4, r8
    7e50:	46b0      	mov	r8, r6
    7e52:	464e      	mov	r6, r9
    7e54:	4699      	mov	r9, r3
    7e56:	0003      	movs	r3, r0
    7e58:	3330      	adds	r3, #48	; 0x30
    7e5a:	b2d8      	uxtb	r0, r3
    7e5c:	4643      	mov	r3, r8
    7e5e:	3b02      	subs	r3, #2
    7e60:	7018      	strb	r0, [r3, #0]
    7e62:	459a      	cmp	sl, r3
    7e64:	d800      	bhi.n	7e68 <_svfprintf_r+0x1258>
    7e66:	e1b4      	b.n	81d2 <_svfprintf_r+0x15c2>
    7e68:	4642      	mov	r2, r8
    7e6a:	9b1b      	ldr	r3, [sp, #108]	; 0x6c
    7e6c:	4645      	mov	r5, r8
    7e6e:	1a99      	subs	r1, r3, r2
    7e70:	2301      	movs	r3, #1
    7e72:	3107      	adds	r1, #7
    7e74:	425b      	negs	r3, r3
    7e76:	e001      	b.n	7e7c <_svfprintf_r+0x126c>
    7e78:	5ce8      	ldrb	r0, [r5, r3]
    7e7a:	3301      	adds	r3, #1
    7e7c:	aa21      	add	r2, sp, #132	; 0x84
    7e7e:	18d2      	adds	r2, r2, r3
    7e80:	70d0      	strb	r0, [r2, #3]
    7e82:	428b      	cmp	r3, r1
    7e84:	d1f8      	bne.n	7e78 <_svfprintf_r+0x1268>
    7e86:	a916      	add	r1, sp, #88	; 0x58
    7e88:	468c      	mov	ip, r1
    7e8a:	222e      	movs	r2, #46	; 0x2e
    7e8c:	464b      	mov	r3, r9
    7e8e:	4462      	add	r2, ip
    7e90:	4694      	mov	ip, r2
    7e92:	1afb      	subs	r3, r7, r3
    7e94:	4463      	add	r3, ip
    7e96:	aa21      	add	r2, sp, #132	; 0x84
    7e98:	9914      	ldr	r1, [sp, #80]	; 0x50
    7e9a:	1a9b      	subs	r3, r3, r2
    7e9c:	469c      	mov	ip, r3
    7e9e:	000a      	movs	r2, r1
    7ea0:	4462      	add	r2, ip
    7ea2:	931a      	str	r3, [sp, #104]	; 0x68
    7ea4:	920e      	str	r2, [sp, #56]	; 0x38
    7ea6:	2901      	cmp	r1, #1
    7ea8:	dc00      	bgt.n	7eac <_svfprintf_r+0x129c>
    7eaa:	e145      	b.n	8138 <_svfprintf_r+0x1528>
    7eac:	9a18      	ldr	r2, [sp, #96]	; 0x60
    7eae:	9b0e      	ldr	r3, [sp, #56]	; 0x38
    7eb0:	4694      	mov	ip, r2
    7eb2:	4463      	add	r3, ip
    7eb4:	001a      	movs	r2, r3
    7eb6:	930e      	str	r3, [sp, #56]	; 0x38
    7eb8:	43db      	mvns	r3, r3
    7eba:	17db      	asrs	r3, r3, #31
    7ebc:	401a      	ands	r2, r3
    7ebe:	2300      	movs	r3, #0
    7ec0:	9207      	str	r2, [sp, #28]
    7ec2:	9313      	str	r3, [sp, #76]	; 0x4c
    7ec4:	e6ae      	b.n	7c24 <_svfprintf_r+0x1014>
    7ec6:	2301      	movs	r3, #1
    7ec8:	425b      	negs	r3, r3
    7eca:	930a      	str	r3, [sp, #40]	; 0x28
    7ecc:	f7fe ff2d 	bl	6d2a <_svfprintf_r+0x11a>
    7ed0:	003a      	movs	r2, r7
    7ed2:	9906      	ldr	r1, [sp, #24]
    7ed4:	9809      	ldr	r0, [sp, #36]	; 0x24
    7ed6:	f000 fc69 	bl	87ac <__ssprint_r>
    7eda:	2800      	cmp	r0, #0
    7edc:	d001      	beq.n	7ee2 <_svfprintf_r+0x12d2>
    7ede:	f7fe ff1e 	bl	6d1e <_svfprintf_r+0x10e>
    7ee2:	68bc      	ldr	r4, [r7, #8]
    7ee4:	ae32      	add	r6, sp, #200	; 0xc8
    7ee6:	e43c      	b.n	7762 <_svfprintf_r+0xb52>
    7ee8:	003a      	movs	r2, r7
    7eea:	9906      	ldr	r1, [sp, #24]
    7eec:	9809      	ldr	r0, [sp, #36]	; 0x24
    7eee:	f000 fc5d 	bl	87ac <__ssprint_r>
    7ef2:	2800      	cmp	r0, #0
    7ef4:	d001      	beq.n	7efa <_svfprintf_r+0x12ea>
    7ef6:	f7fe ff12 	bl	6d1e <_svfprintf_r+0x10e>
    7efa:	9b1f      	ldr	r3, [sp, #124]	; 0x7c
    7efc:	68bc      	ldr	r4, [r7, #8]
    7efe:	ae32      	add	r6, sp, #200	; 0xc8
    7f00:	e56a      	b.n	79d8 <_svfprintf_r+0xdc8>
    7f02:	003a      	movs	r2, r7
    7f04:	9906      	ldr	r1, [sp, #24]
    7f06:	9809      	ldr	r0, [sp, #36]	; 0x24
    7f08:	f000 fc50 	bl	87ac <__ssprint_r>
    7f0c:	2800      	cmp	r0, #0
    7f0e:	d001      	beq.n	7f14 <_svfprintf_r+0x1304>
    7f10:	f7fe ff05 	bl	6d1e <_svfprintf_r+0x10e>
    7f14:	68bc      	ldr	r4, [r7, #8]
    7f16:	ae32      	add	r6, sp, #200	; 0xc8
    7f18:	e557      	b.n	79ca <_svfprintf_r+0xdba>
    7f1a:	003a      	movs	r2, r7
    7f1c:	9906      	ldr	r1, [sp, #24]
    7f1e:	9809      	ldr	r0, [sp, #36]	; 0x24
    7f20:	f000 fc44 	bl	87ac <__ssprint_r>
    7f24:	2800      	cmp	r0, #0
    7f26:	d001      	beq.n	7f2c <_svfprintf_r+0x131c>
    7f28:	f7fe fef9 	bl	6d1e <_svfprintf_r+0x10e>
    7f2c:	9b14      	ldr	r3, [sp, #80]	; 0x50
    7f2e:	9a1f      	ldr	r2, [sp, #124]	; 0x7c
    7f30:	68bc      	ldr	r4, [r7, #8]
    7f32:	1a9b      	subs	r3, r3, r2
    7f34:	ae32      	add	r6, sp, #200	; 0xc8
    7f36:	e56a      	b.n	7a0e <_svfprintf_r+0xdfe>
    7f38:	4653      	mov	r3, sl
    7f3a:	9307      	str	r3, [sp, #28]
    7f3c:	2b06      	cmp	r3, #6
    7f3e:	d901      	bls.n	7f44 <_svfprintf_r+0x1334>
    7f40:	2306      	movs	r3, #6
    7f42:	9307      	str	r3, [sp, #28]
    7f44:	9b07      	ldr	r3, [sp, #28]
    7f46:	950f      	str	r5, [sp, #60]	; 0x3c
    7f48:	930e      	str	r3, [sp, #56]	; 0x38
    7f4a:	2300      	movs	r3, #0
    7f4c:	4698      	mov	r8, r3
    7f4e:	469a      	mov	sl, r3
    7f50:	9313      	str	r3, [sp, #76]	; 0x4c
    7f52:	4b24      	ldr	r3, [pc, #144]	; (7fe4 <_svfprintf_r+0x13d4>)
    7f54:	9408      	str	r4, [sp, #32]
    7f56:	9311      	str	r3, [sp, #68]	; 0x44
    7f58:	f7fe ff78 	bl	6e4c <_svfprintf_r+0x23c>
    7f5c:	2320      	movs	r3, #32
    7f5e:	9a12      	ldr	r2, [sp, #72]	; 0x48
    7f60:	439a      	bics	r2, r3
    7f62:	3b1a      	subs	r3, #26
    7f64:	920e      	str	r2, [sp, #56]	; 0x38
    7f66:	469a      	mov	sl, r3
    7f68:	e5f1      	b.n	7b4e <_svfprintf_r+0xf3e>
    7f6a:	ab23      	add	r3, sp, #140	; 0x8c
    7f6c:	931b      	str	r3, [sp, #108]	; 0x6c
    7f6e:	9304      	str	r3, [sp, #16]
    7f70:	ab20      	add	r3, sp, #128	; 0x80
    7f72:	9303      	str	r3, [sp, #12]
    7f74:	ab1f      	add	r3, sp, #124	; 0x7c
    7f76:	9302      	str	r3, [sp, #8]
    7f78:	4653      	mov	r3, sl
    7f7a:	9301      	str	r3, [sp, #4]
    7f7c:	2303      	movs	r3, #3
    7f7e:	464a      	mov	r2, r9
    7f80:	9300      	str	r3, [sp, #0]
    7f82:	9809      	ldr	r0, [sp, #36]	; 0x24
    7f84:	9b07      	ldr	r3, [sp, #28]
    7f86:	f7fc fec7 	bl	4d18 <_dtoa_r>
    7f8a:	0003      	movs	r3, r0
    7f8c:	4453      	add	r3, sl
    7f8e:	9011      	str	r0, [sp, #68]	; 0x44
    7f90:	4698      	mov	r8, r3
    7f92:	4655      	mov	r5, sl
    7f94:	e6e4      	b.n	7d60 <_svfprintf_r+0x1150>
    7f96:	232d      	movs	r3, #45	; 0x2d
    7f98:	aa16      	add	r2, sp, #88	; 0x58
    7f9a:	77d3      	strb	r3, [r2, #31]
    7f9c:	4698      	mov	r8, r3
    7f9e:	f7fe ffdb 	bl	6f58 <_svfprintf_r+0x348>
    7fa2:	2280      	movs	r2, #128	; 0x80
    7fa4:	0612      	lsls	r2, r2, #24
    7fa6:	4694      	mov	ip, r2
    7fa8:	9b16      	ldr	r3, [sp, #88]	; 0x58
    7faa:	4699      	mov	r9, r3
    7fac:	9b15      	ldr	r3, [sp, #84]	; 0x54
    7fae:	4463      	add	r3, ip
    7fb0:	9307      	str	r3, [sp, #28]
    7fb2:	232d      	movs	r3, #45	; 0x2d
    7fb4:	9310      	str	r3, [sp, #64]	; 0x40
    7fb6:	e5d7      	b.n	7b68 <_svfprintf_r+0xf58>
    7fb8:	9a18      	ldr	r2, [sp, #96]	; 0x60
    7fba:	9b14      	ldr	r3, [sp, #80]	; 0x50
    7fbc:	4694      	mov	ip, r2
    7fbe:	9a13      	ldr	r2, [sp, #76]	; 0x4c
    7fc0:	4463      	add	r3, ip
    7fc2:	930e      	str	r3, [sp, #56]	; 0x38
    7fc4:	2a00      	cmp	r2, #0
    7fc6:	dc00      	bgt.n	7fca <_svfprintf_r+0x13ba>
    7fc8:	e0ce      	b.n	8168 <_svfprintf_r+0x1558>
    7fca:	001a      	movs	r2, r3
    7fcc:	43db      	mvns	r3, r3
    7fce:	17db      	asrs	r3, r3, #31
    7fd0:	401a      	ands	r2, r3
    7fd2:	2367      	movs	r3, #103	; 0x67
    7fd4:	9207      	str	r2, [sp, #28]
    7fd6:	9312      	str	r3, [sp, #72]	; 0x48
    7fd8:	e624      	b.n	7c24 <_svfprintf_r+0x1014>
    7fda:	46c0      	nop			; (mov r8, r8)
    7fdc:	00008e78 	.word	0x00008e78
    7fe0:	000092e4 	.word	0x000092e4
    7fe4:	00009318 	.word	0x00009318
    7fe8:	9b1f      	ldr	r3, [sp, #124]	; 0x7c
    7fea:	9313      	str	r3, [sp, #76]	; 0x4c
    7fec:	2b00      	cmp	r3, #0
    7fee:	dc00      	bgt.n	7ff2 <_svfprintf_r+0x13e2>
    7ff0:	e0d5      	b.n	819e <_svfprintf_r+0x158e>
    7ff2:	4652      	mov	r2, sl
    7ff4:	2a00      	cmp	r2, #0
    7ff6:	d000      	beq.n	7ffa <_svfprintf_r+0x13ea>
    7ff8:	e092      	b.n	8120 <_svfprintf_r+0x1510>
    7ffa:	07e2      	lsls	r2, r4, #31
    7ffc:	d500      	bpl.n	8000 <_svfprintf_r+0x13f0>
    7ffe:	e08f      	b.n	8120 <_svfprintf_r+0x1510>
    8000:	9307      	str	r3, [sp, #28]
    8002:	930e      	str	r3, [sp, #56]	; 0x38
    8004:	e60e      	b.n	7c24 <_svfprintf_r+0x1014>
    8006:	ab16      	add	r3, sp, #88	; 0x58
    8008:	7fdb      	ldrb	r3, [r3, #31]
    800a:	950f      	str	r5, [sp, #60]	; 0x3c
    800c:	4698      	mov	r8, r3
    800e:	4653      	mov	r3, sl
    8010:	9307      	str	r3, [sp, #28]
    8012:	930e      	str	r3, [sp, #56]	; 0x38
    8014:	2300      	movs	r3, #0
    8016:	9408      	str	r4, [sp, #32]
    8018:	469a      	mov	sl, r3
    801a:	9313      	str	r3, [sp, #76]	; 0x4c
    801c:	f7fe ff10 	bl	6e40 <_svfprintf_r+0x230>
    8020:	9b11      	ldr	r3, [sp, #68]	; 0x44
    8022:	4698      	mov	r8, r3
    8024:	9b12      	ldr	r3, [sp, #72]	; 0x48
    8026:	44a8      	add	r8, r5
    8028:	2b47      	cmp	r3, #71	; 0x47
    802a:	d000      	beq.n	802e <_svfprintf_r+0x141e>
    802c:	e5c4      	b.n	7bb8 <_svfprintf_r+0xfa8>
    802e:	07e3      	lsls	r3, r4, #31
    8030:	d500      	bpl.n	8034 <_svfprintf_r+0x1424>
    8032:	e68e      	b.n	7d52 <_svfprintf_r+0x1142>
    8034:	9b23      	ldr	r3, [sp, #140]	; 0x8c
    8036:	9a11      	ldr	r2, [sp, #68]	; 0x44
    8038:	1a9b      	subs	r3, r3, r2
    803a:	9314      	str	r3, [sp, #80]	; 0x50
    803c:	9b0e      	ldr	r3, [sp, #56]	; 0x38
    803e:	2b47      	cmp	r3, #71	; 0x47
    8040:	d100      	bne.n	8044 <_svfprintf_r+0x1434>
    8042:	e6cb      	b.n	7ddc <_svfprintf_r+0x11cc>
    8044:	9b1f      	ldr	r3, [sp, #124]	; 0x7c
    8046:	9313      	str	r3, [sp, #76]	; 0x4c
    8048:	e6d2      	b.n	7df0 <_svfprintf_r+0x11e0>
    804a:	4244      	negs	r4, r0
    804c:	3010      	adds	r0, #16
    804e:	db00      	blt.n	8052 <_svfprintf_r+0x1442>
    8050:	e0d0      	b.n	81f4 <_svfprintf_r+0x15e4>
    8052:	486e      	ldr	r0, [pc, #440]	; (820c <_svfprintf_r+0x15fc>)
    8054:	2610      	movs	r6, #16
    8056:	0005      	movs	r5, r0
    8058:	e003      	b.n	8062 <_svfprintf_r+0x1452>
    805a:	3208      	adds	r2, #8
    805c:	3c10      	subs	r4, #16
    805e:	2c10      	cmp	r4, #16
    8060:	dd38      	ble.n	80d4 <_svfprintf_r+0x14c4>
    8062:	3110      	adds	r1, #16
    8064:	3301      	adds	r3, #1
    8066:	6015      	str	r5, [r2, #0]
    8068:	6056      	str	r6, [r2, #4]
    806a:	60b9      	str	r1, [r7, #8]
    806c:	607b      	str	r3, [r7, #4]
    806e:	2b07      	cmp	r3, #7
    8070:	ddf3      	ble.n	805a <_svfprintf_r+0x144a>
    8072:	003a      	movs	r2, r7
    8074:	9906      	ldr	r1, [sp, #24]
    8076:	9809      	ldr	r0, [sp, #36]	; 0x24
    8078:	f000 fb98 	bl	87ac <__ssprint_r>
    807c:	2800      	cmp	r0, #0
    807e:	d001      	beq.n	8084 <_svfprintf_r+0x1474>
    8080:	f7fe fe4d 	bl	6d1e <_svfprintf_r+0x10e>
    8084:	68b9      	ldr	r1, [r7, #8]
    8086:	687b      	ldr	r3, [r7, #4]
    8088:	aa32      	add	r2, sp, #200	; 0xc8
    808a:	e7e7      	b.n	805c <_svfprintf_r+0x144c>
    808c:	003a      	movs	r2, r7
    808e:	9906      	ldr	r1, [sp, #24]
    8090:	9809      	ldr	r0, [sp, #36]	; 0x24
    8092:	f000 fb8b 	bl	87ac <__ssprint_r>
    8096:	2800      	cmp	r0, #0
    8098:	d001      	beq.n	809e <_svfprintf_r+0x148e>
    809a:	f7fe fe40 	bl	6d1e <_svfprintf_r+0x10e>
    809e:	981f      	ldr	r0, [sp, #124]	; 0x7c
    80a0:	68b9      	ldr	r1, [r7, #8]
    80a2:	687b      	ldr	r3, [r7, #4]
    80a4:	aa32      	add	r2, sp, #200	; 0xc8
    80a6:	e600      	b.n	7caa <_svfprintf_r+0x109a>
    80a8:	9a18      	ldr	r2, [sp, #96]	; 0x60
    80aa:	9b13      	ldr	r3, [sp, #76]	; 0x4c
    80ac:	4694      	mov	ip, r2
    80ae:	4463      	add	r3, ip
    80b0:	001a      	movs	r2, r3
    80b2:	930e      	str	r3, [sp, #56]	; 0x38
    80b4:	e78a      	b.n	7fcc <_svfprintf_r+0x13bc>
    80b6:	212e      	movs	r1, #46	; 0x2e
    80b8:	2330      	movs	r3, #48	; 0x30
    80ba:	aa16      	add	r2, sp, #88	; 0x58
    80bc:	1852      	adds	r2, r2, r1
    80be:	7013      	strb	r3, [r2, #0]
    80c0:	002b      	movs	r3, r5
    80c2:	aa16      	add	r2, sp, #88	; 0x58
    80c4:	3101      	adds	r1, #1
    80c6:	3330      	adds	r3, #48	; 0x30
    80c8:	1852      	adds	r2, r2, r1
    80ca:	7013      	strb	r3, [r2, #0]
    80cc:	ab22      	add	r3, sp, #136	; 0x88
    80ce:	e6e2      	b.n	7e96 <_svfprintf_r+0x1286>
    80d0:	9b23      	ldr	r3, [sp, #140]	; 0x8c
    80d2:	e585      	b.n	7be0 <_svfprintf_r+0xfd0>
    80d4:	46a9      	mov	r9, r5
    80d6:	4648      	mov	r0, r9
    80d8:	1909      	adds	r1, r1, r4
    80da:	3301      	adds	r3, #1
    80dc:	6010      	str	r0, [r2, #0]
    80de:	6054      	str	r4, [r2, #4]
    80e0:	60b9      	str	r1, [r7, #8]
    80e2:	3208      	adds	r2, #8
    80e4:	607b      	str	r3, [r7, #4]
    80e6:	2b07      	cmp	r3, #7
    80e8:	dc00      	bgt.n	80ec <_svfprintf_r+0x14dc>
    80ea:	e5e1      	b.n	7cb0 <_svfprintf_r+0x10a0>
    80ec:	003a      	movs	r2, r7
    80ee:	9906      	ldr	r1, [sp, #24]
    80f0:	9809      	ldr	r0, [sp, #36]	; 0x24
    80f2:	f000 fb5b 	bl	87ac <__ssprint_r>
    80f6:	2800      	cmp	r0, #0
    80f8:	d001      	beq.n	80fe <_svfprintf_r+0x14ee>
    80fa:	f7fe fe10 	bl	6d1e <_svfprintf_r+0x10e>
    80fe:	68b9      	ldr	r1, [r7, #8]
    8100:	687b      	ldr	r3, [r7, #4]
    8102:	aa32      	add	r2, sp, #200	; 0xc8
    8104:	e5d4      	b.n	7cb0 <_svfprintf_r+0x10a0>
    8106:	9b15      	ldr	r3, [sp, #84]	; 0x54
    8108:	2b00      	cmp	r3, #0
    810a:	db38      	blt.n	817e <_svfprintf_r+0x156e>
    810c:	ab16      	add	r3, sp, #88	; 0x58
    810e:	7fdb      	ldrb	r3, [r3, #31]
    8110:	4698      	mov	r8, r3
    8112:	9b12      	ldr	r3, [sp, #72]	; 0x48
    8114:	2b47      	cmp	r3, #71	; 0x47
    8116:	dc2e      	bgt.n	8176 <_svfprintf_r+0x1566>
    8118:	4b3d      	ldr	r3, [pc, #244]	; (8210 <_svfprintf_r+0x1600>)
    811a:	9311      	str	r3, [sp, #68]	; 0x44
    811c:	f7fe ff23 	bl	6f66 <_svfprintf_r+0x356>
    8120:	9a18      	ldr	r2, [sp, #96]	; 0x60
    8122:	9b13      	ldr	r3, [sp, #76]	; 0x4c
    8124:	4694      	mov	ip, r2
    8126:	4463      	add	r3, ip
    8128:	4453      	add	r3, sl
    812a:	001a      	movs	r2, r3
    812c:	930e      	str	r3, [sp, #56]	; 0x38
    812e:	43db      	mvns	r3, r3
    8130:	17db      	asrs	r3, r3, #31
    8132:	401a      	ands	r2, r3
    8134:	9207      	str	r2, [sp, #28]
    8136:	e575      	b.n	7c24 <_svfprintf_r+0x1014>
    8138:	2301      	movs	r3, #1
    813a:	4023      	ands	r3, r4
    813c:	9313      	str	r3, [sp, #76]	; 0x4c
    813e:	d000      	beq.n	8142 <_svfprintf_r+0x1532>
    8140:	e6b4      	b.n	7eac <_svfprintf_r+0x129c>
    8142:	9a0e      	ldr	r2, [sp, #56]	; 0x38
    8144:	43d3      	mvns	r3, r2
    8146:	17db      	asrs	r3, r3, #31
    8148:	401a      	ands	r2, r3
    814a:	9207      	str	r2, [sp, #28]
    814c:	e56a      	b.n	7c24 <_svfprintf_r+0x1014>
    814e:	4a2f      	ldr	r2, [pc, #188]	; (820c <_svfprintf_r+0x15fc>)
    8150:	687b      	ldr	r3, [r7, #4]
    8152:	4691      	mov	r9, r2
    8154:	e42d      	b.n	79b2 <_svfprintf_r+0xda2>
    8156:	2301      	movs	r3, #1
    8158:	9a13      	ldr	r2, [sp, #76]	; 0x4c
    815a:	391b      	subs	r1, #27
    815c:	1a9d      	subs	r5, r3, r2
    815e:	aa16      	add	r2, sp, #88	; 0x58
    8160:	332c      	adds	r3, #44	; 0x2c
    8162:	1852      	adds	r2, r2, r1
    8164:	7013      	strb	r3, [r2, #0]
    8166:	e656      	b.n	7e16 <_svfprintf_r+0x1206>
    8168:	9b0e      	ldr	r3, [sp, #56]	; 0x38
    816a:	9a13      	ldr	r2, [sp, #76]	; 0x4c
    816c:	1a98      	subs	r0, r3, r2
    816e:	1c43      	adds	r3, r0, #1
    8170:	001a      	movs	r2, r3
    8172:	930e      	str	r3, [sp, #56]	; 0x38
    8174:	e72a      	b.n	7fcc <_svfprintf_r+0x13bc>
    8176:	4b27      	ldr	r3, [pc, #156]	; (8214 <_svfprintf_r+0x1604>)
    8178:	9311      	str	r3, [sp, #68]	; 0x44
    817a:	f7fe fef4 	bl	6f66 <_svfprintf_r+0x356>
    817e:	232d      	movs	r3, #45	; 0x2d
    8180:	aa16      	add	r2, sp, #88	; 0x58
    8182:	77d3      	strb	r3, [r2, #31]
    8184:	4698      	mov	r8, r3
    8186:	e7c4      	b.n	8112 <_svfprintf_r+0x1502>
    8188:	9b0f      	ldr	r3, [sp, #60]	; 0x3c
    818a:	1d1a      	adds	r2, r3, #4
    818c:	681b      	ldr	r3, [r3, #0]
    818e:	469a      	mov	sl, r3
    8190:	2b00      	cmp	r3, #0
    8192:	db36      	blt.n	8202 <_svfprintf_r+0x15f2>
    8194:	784b      	ldrb	r3, [r1, #1]
    8196:	920f      	str	r2, [sp, #60]	; 0x3c
    8198:	4659      	mov	r1, fp
    819a:	f7fe fd9d 	bl	6cd8 <_svfprintf_r+0xc8>
    819e:	4653      	mov	r3, sl
    81a0:	2b00      	cmp	r3, #0
    81a2:	d101      	bne.n	81a8 <_svfprintf_r+0x1598>
    81a4:	07e3      	lsls	r3, r4, #31
    81a6:	d503      	bpl.n	81b0 <_svfprintf_r+0x15a0>
    81a8:	9b18      	ldr	r3, [sp, #96]	; 0x60
    81aa:	1c58      	adds	r0, r3, #1
    81ac:	0003      	movs	r3, r0
    81ae:	e7bb      	b.n	8128 <_svfprintf_r+0x1518>
    81b0:	2301      	movs	r3, #1
    81b2:	e725      	b.n	8000 <_svfprintf_r+0x13f0>
    81b4:	ab16      	add	r3, sp, #88	; 0x58
    81b6:	77d8      	strb	r0, [r3, #31]
    81b8:	f7fe ff6c 	bl	7094 <_svfprintf_r+0x484>
    81bc:	ab16      	add	r3, sp, #88	; 0x58
    81be:	77d8      	strb	r0, [r3, #31]
    81c0:	f7ff f814 	bl	71ec <_svfprintf_r+0x5dc>
    81c4:	230c      	movs	r3, #12
    81c6:	9a09      	ldr	r2, [sp, #36]	; 0x24
    81c8:	6013      	str	r3, [r2, #0]
    81ca:	3b0d      	subs	r3, #13
    81cc:	930a      	str	r3, [sp, #40]	; 0x28
    81ce:	f7fe fdac 	bl	6d2a <_svfprintf_r+0x11a>
    81d2:	aa16      	add	r2, sp, #88	; 0x58
    81d4:	232e      	movs	r3, #46	; 0x2e
    81d6:	4694      	mov	ip, r2
    81d8:	4463      	add	r3, ip
    81da:	e65c      	b.n	7e96 <_svfprintf_r+0x1286>
    81dc:	ab16      	add	r3, sp, #88	; 0x58
    81de:	77d8      	strb	r0, [r3, #31]
    81e0:	f7fe fe85 	bl	6eee <_svfprintf_r+0x2de>
    81e4:	ab16      	add	r3, sp, #88	; 0x58
    81e6:	77d8      	strb	r0, [r3, #31]
    81e8:	f7fe fddd 	bl	6da6 <_svfprintf_r+0x196>
    81ec:	ab16      	add	r3, sp, #88	; 0x58
    81ee:	77d8      	strb	r0, [r3, #31]
    81f0:	f7ff f87d 	bl	72ee <_svfprintf_r+0x6de>
    81f4:	4805      	ldr	r0, [pc, #20]	; (820c <_svfprintf_r+0x15fc>)
    81f6:	4681      	mov	r9, r0
    81f8:	e76d      	b.n	80d6 <_svfprintf_r+0x14c6>
    81fa:	ab16      	add	r3, sp, #88	; 0x58
    81fc:	77d8      	strb	r0, [r3, #31]
    81fe:	f7fe ff79 	bl	70f4 <_svfprintf_r+0x4e4>
    8202:	2301      	movs	r3, #1
    8204:	425b      	negs	r3, r3
    8206:	469a      	mov	sl, r3
    8208:	e7c4      	b.n	8194 <_svfprintf_r+0x1584>
    820a:	46c0      	nop			; (mov r8, r8)
    820c:	00009330 	.word	0x00009330
    8210:	000092e8 	.word	0x000092e8
    8214:	000092ec 	.word	0x000092ec

00008218 <__register_exitproc>:
    8218:	b5f0      	push	{r4, r5, r6, r7, lr}
    821a:	464e      	mov	r6, r9
    821c:	4645      	mov	r5, r8
    821e:	46de      	mov	lr, fp
    8220:	4657      	mov	r7, sl
    8222:	b5e0      	push	{r5, r6, r7, lr}
    8224:	4d36      	ldr	r5, [pc, #216]	; (8300 <__register_exitproc+0xe8>)
    8226:	b083      	sub	sp, #12
    8228:	0006      	movs	r6, r0
    822a:	6828      	ldr	r0, [r5, #0]
    822c:	4698      	mov	r8, r3
    822e:	000f      	movs	r7, r1
    8230:	4691      	mov	r9, r2
    8232:	f7fd fe8b 	bl	5f4c <__retarget_lock_acquire_recursive>
    8236:	4b33      	ldr	r3, [pc, #204]	; (8304 <__register_exitproc+0xec>)
    8238:	681c      	ldr	r4, [r3, #0]
    823a:	23a4      	movs	r3, #164	; 0xa4
    823c:	005b      	lsls	r3, r3, #1
    823e:	58e0      	ldr	r0, [r4, r3]
    8240:	2800      	cmp	r0, #0
    8242:	d052      	beq.n	82ea <__register_exitproc+0xd2>
    8244:	6843      	ldr	r3, [r0, #4]
    8246:	2b1f      	cmp	r3, #31
    8248:	dc13      	bgt.n	8272 <__register_exitproc+0x5a>
    824a:	1c5a      	adds	r2, r3, #1
    824c:	9201      	str	r2, [sp, #4]
    824e:	2e00      	cmp	r6, #0
    8250:	d128      	bne.n	82a4 <__register_exitproc+0x8c>
    8252:	9a01      	ldr	r2, [sp, #4]
    8254:	3302      	adds	r3, #2
    8256:	009b      	lsls	r3, r3, #2
    8258:	6042      	str	r2, [r0, #4]
    825a:	501f      	str	r7, [r3, r0]
    825c:	6828      	ldr	r0, [r5, #0]
    825e:	f7fd fe77 	bl	5f50 <__retarget_lock_release_recursive>
    8262:	2000      	movs	r0, #0
    8264:	b003      	add	sp, #12
    8266:	bc3c      	pop	{r2, r3, r4, r5}
    8268:	4690      	mov	r8, r2
    826a:	4699      	mov	r9, r3
    826c:	46a2      	mov	sl, r4
    826e:	46ab      	mov	fp, r5
    8270:	bdf0      	pop	{r4, r5, r6, r7, pc}
    8272:	4b25      	ldr	r3, [pc, #148]	; (8308 <__register_exitproc+0xf0>)
    8274:	2b00      	cmp	r3, #0
    8276:	d03d      	beq.n	82f4 <__register_exitproc+0xdc>
    8278:	20c8      	movs	r0, #200	; 0xc8
    827a:	0040      	lsls	r0, r0, #1
    827c:	e000      	b.n	8280 <__register_exitproc+0x68>
    827e:	bf00      	nop
    8280:	2800      	cmp	r0, #0
    8282:	d037      	beq.n	82f4 <__register_exitproc+0xdc>
    8284:	22a4      	movs	r2, #164	; 0xa4
    8286:	2300      	movs	r3, #0
    8288:	0052      	lsls	r2, r2, #1
    828a:	58a1      	ldr	r1, [r4, r2]
    828c:	6043      	str	r3, [r0, #4]
    828e:	6001      	str	r1, [r0, #0]
    8290:	50a0      	str	r0, [r4, r2]
    8292:	3240      	adds	r2, #64	; 0x40
    8294:	5083      	str	r3, [r0, r2]
    8296:	3204      	adds	r2, #4
    8298:	5083      	str	r3, [r0, r2]
    829a:	3301      	adds	r3, #1
    829c:	9301      	str	r3, [sp, #4]
    829e:	2300      	movs	r3, #0
    82a0:	2e00      	cmp	r6, #0
    82a2:	d0d6      	beq.n	8252 <__register_exitproc+0x3a>
    82a4:	009a      	lsls	r2, r3, #2
    82a6:	4692      	mov	sl, r2
    82a8:	4482      	add	sl, r0
    82aa:	464a      	mov	r2, r9
    82ac:	2188      	movs	r1, #136	; 0x88
    82ae:	4654      	mov	r4, sl
    82b0:	5062      	str	r2, [r4, r1]
    82b2:	22c4      	movs	r2, #196	; 0xc4
    82b4:	0052      	lsls	r2, r2, #1
    82b6:	4691      	mov	r9, r2
    82b8:	4481      	add	r9, r0
    82ba:	464a      	mov	r2, r9
    82bc:	3987      	subs	r1, #135	; 0x87
    82be:	4099      	lsls	r1, r3
    82c0:	6812      	ldr	r2, [r2, #0]
    82c2:	468b      	mov	fp, r1
    82c4:	430a      	orrs	r2, r1
    82c6:	4694      	mov	ip, r2
    82c8:	464a      	mov	r2, r9
    82ca:	4661      	mov	r1, ip
    82cc:	6011      	str	r1, [r2, #0]
    82ce:	2284      	movs	r2, #132	; 0x84
    82d0:	4641      	mov	r1, r8
    82d2:	0052      	lsls	r2, r2, #1
    82d4:	50a1      	str	r1, [r4, r2]
    82d6:	2e02      	cmp	r6, #2
    82d8:	d1bb      	bne.n	8252 <__register_exitproc+0x3a>
    82da:	0002      	movs	r2, r0
    82dc:	465c      	mov	r4, fp
    82de:	328d      	adds	r2, #141	; 0x8d
    82e0:	32ff      	adds	r2, #255	; 0xff
    82e2:	6811      	ldr	r1, [r2, #0]
    82e4:	430c      	orrs	r4, r1
    82e6:	6014      	str	r4, [r2, #0]
    82e8:	e7b3      	b.n	8252 <__register_exitproc+0x3a>
    82ea:	0020      	movs	r0, r4
    82ec:	304d      	adds	r0, #77	; 0x4d
    82ee:	30ff      	adds	r0, #255	; 0xff
    82f0:	50e0      	str	r0, [r4, r3]
    82f2:	e7a7      	b.n	8244 <__register_exitproc+0x2c>
    82f4:	6828      	ldr	r0, [r5, #0]
    82f6:	f7fd fe2b 	bl	5f50 <__retarget_lock_release_recursive>
    82fa:	2001      	movs	r0, #1
    82fc:	4240      	negs	r0, r0
    82fe:	e7b1      	b.n	8264 <__register_exitproc+0x4c>
    8300:	20000430 	.word	0x20000430
    8304:	00009068 	.word	0x00009068
    8308:	00000000 	.word	0x00000000

0000830c <_calloc_r>:
    830c:	b510      	push	{r4, lr}
    830e:	4351      	muls	r1, r2
    8310:	f7fd fe20 	bl	5f54 <_malloc_r>
    8314:	1e04      	subs	r4, r0, #0
    8316:	d01c      	beq.n	8352 <_calloc_r+0x46>
    8318:	0003      	movs	r3, r0
    831a:	3b08      	subs	r3, #8
    831c:	685a      	ldr	r2, [r3, #4]
    831e:	2303      	movs	r3, #3
    8320:	439a      	bics	r2, r3
    8322:	3a04      	subs	r2, #4
    8324:	2a24      	cmp	r2, #36	; 0x24
    8326:	d816      	bhi.n	8356 <_calloc_r+0x4a>
    8328:	0003      	movs	r3, r0
    832a:	2a13      	cmp	r2, #19
    832c:	d90d      	bls.n	834a <_calloc_r+0x3e>
    832e:	2100      	movs	r1, #0
    8330:	3308      	adds	r3, #8
    8332:	6001      	str	r1, [r0, #0]
    8334:	6041      	str	r1, [r0, #4]
    8336:	2a1b      	cmp	r2, #27
    8338:	d907      	bls.n	834a <_calloc_r+0x3e>
    833a:	6081      	str	r1, [r0, #8]
    833c:	60c1      	str	r1, [r0, #12]
    833e:	2a24      	cmp	r2, #36	; 0x24
    8340:	d10d      	bne.n	835e <_calloc_r+0x52>
    8342:	0003      	movs	r3, r0
    8344:	6101      	str	r1, [r0, #16]
    8346:	3318      	adds	r3, #24
    8348:	6141      	str	r1, [r0, #20]
    834a:	2200      	movs	r2, #0
    834c:	601a      	str	r2, [r3, #0]
    834e:	605a      	str	r2, [r3, #4]
    8350:	609a      	str	r2, [r3, #8]
    8352:	0020      	movs	r0, r4
    8354:	bd10      	pop	{r4, pc}
    8356:	2100      	movs	r1, #0
    8358:	f7fc fb1e 	bl	4998 <memset>
    835c:	e7f9      	b.n	8352 <_calloc_r+0x46>
    835e:	0003      	movs	r3, r0
    8360:	3310      	adds	r3, #16
    8362:	e7f2      	b.n	834a <_calloc_r+0x3e>

00008364 <__ascii_mbtowc>:
    8364:	b082      	sub	sp, #8
    8366:	2900      	cmp	r1, #0
    8368:	d00a      	beq.n	8380 <__ascii_mbtowc+0x1c>
    836a:	2a00      	cmp	r2, #0
    836c:	d00b      	beq.n	8386 <__ascii_mbtowc+0x22>
    836e:	2b00      	cmp	r3, #0
    8370:	d00b      	beq.n	838a <__ascii_mbtowc+0x26>
    8372:	7813      	ldrb	r3, [r2, #0]
    8374:	600b      	str	r3, [r1, #0]
    8376:	7810      	ldrb	r0, [r2, #0]
    8378:	1e43      	subs	r3, r0, #1
    837a:	4198      	sbcs	r0, r3
    837c:	b002      	add	sp, #8
    837e:	4770      	bx	lr
    8380:	a901      	add	r1, sp, #4
    8382:	2a00      	cmp	r2, #0
    8384:	d1f3      	bne.n	836e <__ascii_mbtowc+0xa>
    8386:	2000      	movs	r0, #0
    8388:	e7f8      	b.n	837c <__ascii_mbtowc+0x18>
    838a:	2002      	movs	r0, #2
    838c:	4240      	negs	r0, r0
    838e:	e7f5      	b.n	837c <__ascii_mbtowc+0x18>

00008390 <memmove>:
    8390:	b5f0      	push	{r4, r5, r6, r7, lr}
    8392:	4288      	cmp	r0, r1
    8394:	d90a      	bls.n	83ac <memmove+0x1c>
    8396:	188b      	adds	r3, r1, r2
    8398:	4298      	cmp	r0, r3
    839a:	d207      	bcs.n	83ac <memmove+0x1c>
    839c:	1e53      	subs	r3, r2, #1
    839e:	2a00      	cmp	r2, #0
    83a0:	d003      	beq.n	83aa <memmove+0x1a>
    83a2:	5cca      	ldrb	r2, [r1, r3]
    83a4:	54c2      	strb	r2, [r0, r3]
    83a6:	3b01      	subs	r3, #1
    83a8:	d2fb      	bcs.n	83a2 <memmove+0x12>
    83aa:	bdf0      	pop	{r4, r5, r6, r7, pc}
    83ac:	0005      	movs	r5, r0
    83ae:	2a0f      	cmp	r2, #15
    83b0:	d808      	bhi.n	83c4 <memmove+0x34>
    83b2:	2a00      	cmp	r2, #0
    83b4:	d0f9      	beq.n	83aa <memmove+0x1a>
    83b6:	2300      	movs	r3, #0
    83b8:	5ccc      	ldrb	r4, [r1, r3]
    83ba:	54ec      	strb	r4, [r5, r3]
    83bc:	3301      	adds	r3, #1
    83be:	4293      	cmp	r3, r2
    83c0:	d1fa      	bne.n	83b8 <memmove+0x28>
    83c2:	e7f2      	b.n	83aa <memmove+0x1a>
    83c4:	000b      	movs	r3, r1
    83c6:	4303      	orrs	r3, r0
    83c8:	079b      	lsls	r3, r3, #30
    83ca:	d12d      	bne.n	8428 <memmove+0x98>
    83cc:	0015      	movs	r5, r2
    83ce:	000c      	movs	r4, r1
    83d0:	0003      	movs	r3, r0
    83d2:	3d10      	subs	r5, #16
    83d4:	092f      	lsrs	r7, r5, #4
    83d6:	3701      	adds	r7, #1
    83d8:	013f      	lsls	r7, r7, #4
    83da:	19c7      	adds	r7, r0, r7
    83dc:	6826      	ldr	r6, [r4, #0]
    83de:	601e      	str	r6, [r3, #0]
    83e0:	6866      	ldr	r6, [r4, #4]
    83e2:	605e      	str	r6, [r3, #4]
    83e4:	68a6      	ldr	r6, [r4, #8]
    83e6:	609e      	str	r6, [r3, #8]
    83e8:	68e6      	ldr	r6, [r4, #12]
    83ea:	3410      	adds	r4, #16
    83ec:	60de      	str	r6, [r3, #12]
    83ee:	3310      	adds	r3, #16
    83f0:	429f      	cmp	r7, r3
    83f2:	d1f3      	bne.n	83dc <memmove+0x4c>
    83f4:	240f      	movs	r4, #15
    83f6:	43a5      	bics	r5, r4
    83f8:	3510      	adds	r5, #16
    83fa:	1949      	adds	r1, r1, r5
    83fc:	4014      	ands	r4, r2
    83fe:	1945      	adds	r5, r0, r5
    8400:	2c03      	cmp	r4, #3
    8402:	d913      	bls.n	842c <memmove+0x9c>
    8404:	2300      	movs	r3, #0
    8406:	1f27      	subs	r7, r4, #4
    8408:	08be      	lsrs	r6, r7, #2
    840a:	3601      	adds	r6, #1
    840c:	00b6      	lsls	r6, r6, #2
    840e:	58cc      	ldr	r4, [r1, r3]
    8410:	50ec      	str	r4, [r5, r3]
    8412:	3304      	adds	r3, #4
    8414:	42b3      	cmp	r3, r6
    8416:	d1fa      	bne.n	840e <memmove+0x7e>
    8418:	2603      	movs	r6, #3
    841a:	43b7      	bics	r7, r6
    841c:	1d3c      	adds	r4, r7, #4
    841e:	1909      	adds	r1, r1, r4
    8420:	192d      	adds	r5, r5, r4
    8422:	4032      	ands	r2, r6
    8424:	d1c7      	bne.n	83b6 <memmove+0x26>
    8426:	e7c0      	b.n	83aa <memmove+0x1a>
    8428:	0005      	movs	r5, r0
    842a:	e7c4      	b.n	83b6 <memmove+0x26>
    842c:	0022      	movs	r2, r4
    842e:	e7c0      	b.n	83b2 <memmove+0x22>

00008430 <_realloc_r>:
    8430:	b5f0      	push	{r4, r5, r6, r7, lr}
    8432:	464e      	mov	r6, r9
    8434:	4645      	mov	r5, r8
    8436:	46de      	mov	lr, fp
    8438:	4657      	mov	r7, sl
    843a:	b5e0      	push	{r5, r6, r7, lr}
    843c:	b085      	sub	sp, #20
    843e:	9001      	str	r0, [sp, #4]
    8440:	000e      	movs	r6, r1
    8442:	0015      	movs	r5, r2
    8444:	2900      	cmp	r1, #0
    8446:	d100      	bne.n	844a <_realloc_r+0x1a>
    8448:	e09e      	b.n	8588 <_realloc_r+0x158>
    844a:	0037      	movs	r7, r6
    844c:	9801      	ldr	r0, [sp, #4]
    844e:	3f08      	subs	r7, #8
    8450:	f7fe f874 	bl	653c <__malloc_lock>
    8454:	687a      	ldr	r2, [r7, #4]
    8456:	2303      	movs	r3, #3
    8458:	0014      	movs	r4, r2
    845a:	439c      	bics	r4, r3
    845c:	002b      	movs	r3, r5
    845e:	330b      	adds	r3, #11
    8460:	46b9      	mov	r9, r7
    8462:	2b16      	cmp	r3, #22
    8464:	d847      	bhi.n	84f6 <_realloc_r+0xc6>
    8466:	2110      	movs	r1, #16
    8468:	2310      	movs	r3, #16
    846a:	4688      	mov	r8, r1
    846c:	4545      	cmp	r5, r8
    846e:	d846      	bhi.n	84fe <_realloc_r+0xce>
    8470:	429c      	cmp	r4, r3
    8472:	da49      	bge.n	8508 <_realloc_r+0xd8>
    8474:	49cc      	ldr	r1, [pc, #816]	; (87a8 <_realloc_r+0x378>)
    8476:	1938      	adds	r0, r7, r4
    8478:	468b      	mov	fp, r1
    847a:	6889      	ldr	r1, [r1, #8]
    847c:	9002      	str	r0, [sp, #8]
    847e:	4288      	cmp	r0, r1
    8480:	d100      	bne.n	8484 <_realloc_r+0x54>
    8482:	e0c2      	b.n	860a <_realloc_r+0x1da>
    8484:	2101      	movs	r1, #1
    8486:	468a      	mov	sl, r1
    8488:	6840      	ldr	r0, [r0, #4]
    848a:	0001      	movs	r1, r0
    848c:	9003      	str	r0, [sp, #12]
    848e:	4650      	mov	r0, sl
    8490:	4381      	bics	r1, r0
    8492:	468c      	mov	ip, r1
    8494:	9902      	ldr	r1, [sp, #8]
    8496:	468b      	mov	fp, r1
    8498:	44dc      	add	ip, fp
    849a:	4661      	mov	r1, ip
    849c:	6849      	ldr	r1, [r1, #4]
    849e:	4201      	tst	r1, r0
    84a0:	d04d      	beq.n	853e <_realloc_r+0x10e>
    84a2:	4210      	tst	r0, r2
    84a4:	d100      	bne.n	84a8 <_realloc_r+0x78>
    84a6:	e0a2      	b.n	85ee <_realloc_r+0x1be>
    84a8:	0029      	movs	r1, r5
    84aa:	9801      	ldr	r0, [sp, #4]
    84ac:	f7fd fd52 	bl	5f54 <_malloc_r>
    84b0:	1e05      	subs	r5, r0, #0
    84b2:	d039      	beq.n	8528 <_realloc_r+0xf8>
    84b4:	2301      	movs	r3, #1
    84b6:	0002      	movs	r2, r0
    84b8:	6879      	ldr	r1, [r7, #4]
    84ba:	3a08      	subs	r2, #8
    84bc:	4399      	bics	r1, r3
    84be:	187f      	adds	r7, r7, r1
    84c0:	42ba      	cmp	r2, r7
    84c2:	d100      	bne.n	84c6 <_realloc_r+0x96>
    84c4:	e12e      	b.n	8724 <_realloc_r+0x2f4>
    84c6:	1f22      	subs	r2, r4, #4
    84c8:	2a24      	cmp	r2, #36	; 0x24
    84ca:	d900      	bls.n	84ce <_realloc_r+0x9e>
    84cc:	e114      	b.n	86f8 <_realloc_r+0x2c8>
    84ce:	2a13      	cmp	r2, #19
    84d0:	d900      	bls.n	84d4 <_realloc_r+0xa4>
    84d2:	e0e8      	b.n	86a6 <_realloc_r+0x276>
    84d4:	0003      	movs	r3, r0
    84d6:	0032      	movs	r2, r6
    84d8:	6811      	ldr	r1, [r2, #0]
    84da:	6019      	str	r1, [r3, #0]
    84dc:	6851      	ldr	r1, [r2, #4]
    84de:	6059      	str	r1, [r3, #4]
    84e0:	6892      	ldr	r2, [r2, #8]
    84e2:	609a      	str	r2, [r3, #8]
    84e4:	9c01      	ldr	r4, [sp, #4]
    84e6:	0031      	movs	r1, r6
    84e8:	0020      	movs	r0, r4
    84ea:	f7fd fc43 	bl	5d74 <_free_r>
    84ee:	0020      	movs	r0, r4
    84f0:	f7fe f82c 	bl	654c <__malloc_unlock>
    84f4:	e01b      	b.n	852e <_realloc_r+0xfe>
    84f6:	2107      	movs	r1, #7
    84f8:	438b      	bics	r3, r1
    84fa:	4698      	mov	r8, r3
    84fc:	d5b6      	bpl.n	846c <_realloc_r+0x3c>
    84fe:	230c      	movs	r3, #12
    8500:	9a01      	ldr	r2, [sp, #4]
    8502:	2500      	movs	r5, #0
    8504:	6013      	str	r3, [r2, #0]
    8506:	e012      	b.n	852e <_realloc_r+0xfe>
    8508:	0035      	movs	r5, r6
    850a:	4643      	mov	r3, r8
    850c:	1ae3      	subs	r3, r4, r3
    850e:	2b0f      	cmp	r3, #15
    8510:	d825      	bhi.n	855e <_realloc_r+0x12e>
    8512:	464b      	mov	r3, r9
    8514:	2201      	movs	r2, #1
    8516:	4649      	mov	r1, r9
    8518:	685b      	ldr	r3, [r3, #4]
    851a:	4013      	ands	r3, r2
    851c:	4323      	orrs	r3, r4
    851e:	604b      	str	r3, [r1, #4]
    8520:	444c      	add	r4, r9
    8522:	6863      	ldr	r3, [r4, #4]
    8524:	431a      	orrs	r2, r3
    8526:	6062      	str	r2, [r4, #4]
    8528:	9801      	ldr	r0, [sp, #4]
    852a:	f7fe f80f 	bl	654c <__malloc_unlock>
    852e:	0028      	movs	r0, r5
    8530:	b005      	add	sp, #20
    8532:	bc3c      	pop	{r2, r3, r4, r5}
    8534:	4690      	mov	r8, r2
    8536:	4699      	mov	r9, r3
    8538:	46a2      	mov	sl, r4
    853a:	46ab      	mov	fp, r5
    853c:	bdf0      	pop	{r4, r5, r6, r7, pc}
    853e:	2103      	movs	r1, #3
    8540:	9803      	ldr	r0, [sp, #12]
    8542:	468c      	mov	ip, r1
    8544:	4388      	bics	r0, r1
    8546:	1821      	adds	r1, r4, r0
    8548:	468b      	mov	fp, r1
    854a:	4299      	cmp	r1, r3
    854c:	db21      	blt.n	8592 <_realloc_r+0x162>
    854e:	9a02      	ldr	r2, [sp, #8]
    8550:	0035      	movs	r5, r6
    8552:	68d3      	ldr	r3, [r2, #12]
    8554:	6892      	ldr	r2, [r2, #8]
    8556:	465c      	mov	r4, fp
    8558:	60d3      	str	r3, [r2, #12]
    855a:	609a      	str	r2, [r3, #8]
    855c:	e7d5      	b.n	850a <_realloc_r+0xda>
    855e:	464a      	mov	r2, r9
    8560:	2001      	movs	r0, #1
    8562:	4646      	mov	r6, r8
    8564:	6852      	ldr	r2, [r2, #4]
    8566:	4649      	mov	r1, r9
    8568:	4002      	ands	r2, r0
    856a:	4332      	orrs	r2, r6
    856c:	464e      	mov	r6, r9
    856e:	4441      	add	r1, r8
    8570:	4303      	orrs	r3, r0
    8572:	6072      	str	r2, [r6, #4]
    8574:	444c      	add	r4, r9
    8576:	604b      	str	r3, [r1, #4]
    8578:	6863      	ldr	r3, [r4, #4]
    857a:	3108      	adds	r1, #8
    857c:	4318      	orrs	r0, r3
    857e:	6060      	str	r0, [r4, #4]
    8580:	9801      	ldr	r0, [sp, #4]
    8582:	f7fd fbf7 	bl	5d74 <_free_r>
    8586:	e7cf      	b.n	8528 <_realloc_r+0xf8>
    8588:	0011      	movs	r1, r2
    858a:	f7fd fce3 	bl	5f54 <_malloc_r>
    858e:	0005      	movs	r5, r0
    8590:	e7cd      	b.n	852e <_realloc_r+0xfe>
    8592:	4651      	mov	r1, sl
    8594:	4211      	tst	r1, r2
    8596:	d000      	beq.n	859a <_realloc_r+0x16a>
    8598:	e786      	b.n	84a8 <_realloc_r+0x78>
    859a:	4661      	mov	r1, ip
    859c:	683a      	ldr	r2, [r7, #0]
    859e:	1aba      	subs	r2, r7, r2
    85a0:	4692      	mov	sl, r2
    85a2:	6852      	ldr	r2, [r2, #4]
    85a4:	438a      	bics	r2, r1
    85a6:	1880      	adds	r0, r0, r2
    85a8:	4683      	mov	fp, r0
    85aa:	44a3      	add	fp, r4
    85ac:	459b      	cmp	fp, r3
    85ae:	db26      	blt.n	85fe <_realloc_r+0x1ce>
    85b0:	9a02      	ldr	r2, [sp, #8]
    85b2:	68d3      	ldr	r3, [r2, #12]
    85b4:	6892      	ldr	r2, [r2, #8]
    85b6:	60d3      	str	r3, [r2, #12]
    85b8:	609a      	str	r2, [r3, #8]
    85ba:	4653      	mov	r3, sl
    85bc:	4652      	mov	r2, sl
    85be:	4655      	mov	r5, sl
    85c0:	6892      	ldr	r2, [r2, #8]
    85c2:	68db      	ldr	r3, [r3, #12]
    85c4:	3508      	adds	r5, #8
    85c6:	60d3      	str	r3, [r2, #12]
    85c8:	609a      	str	r2, [r3, #8]
    85ca:	1f22      	subs	r2, r4, #4
    85cc:	2a24      	cmp	r2, #36	; 0x24
    85ce:	d900      	bls.n	85d2 <_realloc_r+0x1a2>
    85d0:	e096      	b.n	8700 <_realloc_r+0x2d0>
    85d2:	2a13      	cmp	r2, #19
    85d4:	d972      	bls.n	86bc <_realloc_r+0x28c>
    85d6:	4653      	mov	r3, sl
    85d8:	6831      	ldr	r1, [r6, #0]
    85da:	6099      	str	r1, [r3, #8]
    85dc:	6871      	ldr	r1, [r6, #4]
    85de:	60d9      	str	r1, [r3, #12]
    85e0:	2a1b      	cmp	r2, #27
    85e2:	d900      	bls.n	85e6 <_realloc_r+0x1b6>
    85e4:	e0a4      	b.n	8730 <_realloc_r+0x300>
    85e6:	0032      	movs	r2, r6
    85e8:	3310      	adds	r3, #16
    85ea:	3208      	adds	r2, #8
    85ec:	e068      	b.n	86c0 <_realloc_r+0x290>
    85ee:	683a      	ldr	r2, [r7, #0]
    85f0:	1aba      	subs	r2, r7, r2
    85f2:	4692      	mov	sl, r2
    85f4:	4651      	mov	r1, sl
    85f6:	2203      	movs	r2, #3
    85f8:	6849      	ldr	r1, [r1, #4]
    85fa:	4391      	bics	r1, r2
    85fc:	000a      	movs	r2, r1
    85fe:	4693      	mov	fp, r2
    8600:	44a3      	add	fp, r4
    8602:	459b      	cmp	fp, r3
    8604:	da00      	bge.n	8608 <_realloc_r+0x1d8>
    8606:	e74f      	b.n	84a8 <_realloc_r+0x78>
    8608:	e7d7      	b.n	85ba <_realloc_r+0x18a>
    860a:	2003      	movs	r0, #3
    860c:	9902      	ldr	r1, [sp, #8]
    860e:	4684      	mov	ip, r0
    8610:	6849      	ldr	r1, [r1, #4]
    8612:	4381      	bics	r1, r0
    8614:	4640      	mov	r0, r8
    8616:	1909      	adds	r1, r1, r4
    8618:	3010      	adds	r0, #16
    861a:	9002      	str	r0, [sp, #8]
    861c:	4281      	cmp	r1, r0
    861e:	da58      	bge.n	86d2 <_realloc_r+0x2a2>
    8620:	07d2      	lsls	r2, r2, #31
    8622:	d500      	bpl.n	8626 <_realloc_r+0x1f6>
    8624:	e740      	b.n	84a8 <_realloc_r+0x78>
    8626:	4660      	mov	r0, ip
    8628:	683a      	ldr	r2, [r7, #0]
    862a:	1aba      	subs	r2, r7, r2
    862c:	4692      	mov	sl, r2
    862e:	6852      	ldr	r2, [r2, #4]
    8630:	4382      	bics	r2, r0
    8632:	9802      	ldr	r0, [sp, #8]
    8634:	1851      	adds	r1, r2, r1
    8636:	9103      	str	r1, [sp, #12]
    8638:	4288      	cmp	r0, r1
    863a:	dce0      	bgt.n	85fe <_realloc_r+0x1ce>
    863c:	4653      	mov	r3, sl
    863e:	4652      	mov	r2, sl
    8640:	4655      	mov	r5, sl
    8642:	6892      	ldr	r2, [r2, #8]
    8644:	68db      	ldr	r3, [r3, #12]
    8646:	3508      	adds	r5, #8
    8648:	60d3      	str	r3, [r2, #12]
    864a:	609a      	str	r2, [r3, #8]
    864c:	1f22      	subs	r2, r4, #4
    864e:	2a24      	cmp	r2, #36	; 0x24
    8650:	d900      	bls.n	8654 <_realloc_r+0x224>
    8652:	e08e      	b.n	8772 <_realloc_r+0x342>
    8654:	2a13      	cmp	r2, #19
    8656:	d800      	bhi.n	865a <_realloc_r+0x22a>
    8658:	e088      	b.n	876c <_realloc_r+0x33c>
    865a:	4653      	mov	r3, sl
    865c:	6831      	ldr	r1, [r6, #0]
    865e:	6099      	str	r1, [r3, #8]
    8660:	6871      	ldr	r1, [r6, #4]
    8662:	60d9      	str	r1, [r3, #12]
    8664:	2a1b      	cmp	r2, #27
    8666:	d900      	bls.n	866a <_realloc_r+0x23a>
    8668:	e088      	b.n	877c <_realloc_r+0x34c>
    866a:	0032      	movs	r2, r6
    866c:	3310      	adds	r3, #16
    866e:	3208      	adds	r2, #8
    8670:	6811      	ldr	r1, [r2, #0]
    8672:	6019      	str	r1, [r3, #0]
    8674:	6851      	ldr	r1, [r2, #4]
    8676:	6059      	str	r1, [r3, #4]
    8678:	6892      	ldr	r2, [r2, #8]
    867a:	609a      	str	r2, [r3, #8]
    867c:	4651      	mov	r1, sl
    867e:	465b      	mov	r3, fp
    8680:	4642      	mov	r2, r8
    8682:	4441      	add	r1, r8
    8684:	6099      	str	r1, [r3, #8]
    8686:	9b03      	ldr	r3, [sp, #12]
    8688:	9801      	ldr	r0, [sp, #4]
    868a:	1a9a      	subs	r2, r3, r2
    868c:	2301      	movs	r3, #1
    868e:	431a      	orrs	r2, r3
    8690:	604a      	str	r2, [r1, #4]
    8692:	4652      	mov	r2, sl
    8694:	6852      	ldr	r2, [r2, #4]
    8696:	4013      	ands	r3, r2
    8698:	4642      	mov	r2, r8
    869a:	4313      	orrs	r3, r2
    869c:	4652      	mov	r2, sl
    869e:	6053      	str	r3, [r2, #4]
    86a0:	f7fd ff54 	bl	654c <__malloc_unlock>
    86a4:	e743      	b.n	852e <_realloc_r+0xfe>
    86a6:	6833      	ldr	r3, [r6, #0]
    86a8:	6003      	str	r3, [r0, #0]
    86aa:	6873      	ldr	r3, [r6, #4]
    86ac:	6043      	str	r3, [r0, #4]
    86ae:	2a1b      	cmp	r2, #27
    86b0:	d82d      	bhi.n	870e <_realloc_r+0x2de>
    86b2:	0003      	movs	r3, r0
    86b4:	0032      	movs	r2, r6
    86b6:	3308      	adds	r3, #8
    86b8:	3208      	adds	r2, #8
    86ba:	e70d      	b.n	84d8 <_realloc_r+0xa8>
    86bc:	002b      	movs	r3, r5
    86be:	0032      	movs	r2, r6
    86c0:	6811      	ldr	r1, [r2, #0]
    86c2:	465c      	mov	r4, fp
    86c4:	6019      	str	r1, [r3, #0]
    86c6:	6851      	ldr	r1, [r2, #4]
    86c8:	46d1      	mov	r9, sl
    86ca:	6059      	str	r1, [r3, #4]
    86cc:	6892      	ldr	r2, [r2, #8]
    86ce:	609a      	str	r2, [r3, #8]
    86d0:	e71b      	b.n	850a <_realloc_r+0xda>
    86d2:	4643      	mov	r3, r8
    86d4:	18fa      	adds	r2, r7, r3
    86d6:	465b      	mov	r3, fp
    86d8:	609a      	str	r2, [r3, #8]
    86da:	4643      	mov	r3, r8
    86dc:	1ac9      	subs	r1, r1, r3
    86de:	2301      	movs	r3, #1
    86e0:	4319      	orrs	r1, r3
    86e2:	6051      	str	r1, [r2, #4]
    86e4:	687a      	ldr	r2, [r7, #4]
    86e6:	9801      	ldr	r0, [sp, #4]
    86e8:	4013      	ands	r3, r2
    86ea:	4642      	mov	r2, r8
    86ec:	4313      	orrs	r3, r2
    86ee:	607b      	str	r3, [r7, #4]
    86f0:	f7fd ff2c 	bl	654c <__malloc_unlock>
    86f4:	0035      	movs	r5, r6
    86f6:	e71a      	b.n	852e <_realloc_r+0xfe>
    86f8:	0031      	movs	r1, r6
    86fa:	f7ff fe49 	bl	8390 <memmove>
    86fe:	e6f1      	b.n	84e4 <_realloc_r+0xb4>
    8700:	0031      	movs	r1, r6
    8702:	0028      	movs	r0, r5
    8704:	f7ff fe44 	bl	8390 <memmove>
    8708:	465c      	mov	r4, fp
    870a:	46d1      	mov	r9, sl
    870c:	e6fd      	b.n	850a <_realloc_r+0xda>
    870e:	68b3      	ldr	r3, [r6, #8]
    8710:	6083      	str	r3, [r0, #8]
    8712:	68f3      	ldr	r3, [r6, #12]
    8714:	60c3      	str	r3, [r0, #12]
    8716:	2a24      	cmp	r2, #36	; 0x24
    8718:	d015      	beq.n	8746 <_realloc_r+0x316>
    871a:	0003      	movs	r3, r0
    871c:	0032      	movs	r2, r6
    871e:	3310      	adds	r3, #16
    8720:	3210      	adds	r2, #16
    8722:	e6d9      	b.n	84d8 <_realloc_r+0xa8>
    8724:	6853      	ldr	r3, [r2, #4]
    8726:	2203      	movs	r2, #3
    8728:	4393      	bics	r3, r2
    872a:	18e4      	adds	r4, r4, r3
    872c:	0035      	movs	r5, r6
    872e:	e6ec      	b.n	850a <_realloc_r+0xda>
    8730:	4653      	mov	r3, sl
    8732:	68b1      	ldr	r1, [r6, #8]
    8734:	6119      	str	r1, [r3, #16]
    8736:	68f1      	ldr	r1, [r6, #12]
    8738:	6159      	str	r1, [r3, #20]
    873a:	2a24      	cmp	r2, #36	; 0x24
    873c:	d00c      	beq.n	8758 <_realloc_r+0x328>
    873e:	0032      	movs	r2, r6
    8740:	3318      	adds	r3, #24
    8742:	3210      	adds	r2, #16
    8744:	e7bc      	b.n	86c0 <_realloc_r+0x290>
    8746:	6933      	ldr	r3, [r6, #16]
    8748:	0032      	movs	r2, r6
    874a:	6103      	str	r3, [r0, #16]
    874c:	0003      	movs	r3, r0
    874e:	6971      	ldr	r1, [r6, #20]
    8750:	3318      	adds	r3, #24
    8752:	3218      	adds	r2, #24
    8754:	6141      	str	r1, [r0, #20]
    8756:	e6bf      	b.n	84d8 <_realloc_r+0xa8>
    8758:	4653      	mov	r3, sl
    875a:	6932      	ldr	r2, [r6, #16]
    875c:	4651      	mov	r1, sl
    875e:	619a      	str	r2, [r3, #24]
    8760:	0032      	movs	r2, r6
    8762:	6970      	ldr	r0, [r6, #20]
    8764:	3320      	adds	r3, #32
    8766:	3218      	adds	r2, #24
    8768:	61c8      	str	r0, [r1, #28]
    876a:	e7a9      	b.n	86c0 <_realloc_r+0x290>
    876c:	002b      	movs	r3, r5
    876e:	0032      	movs	r2, r6
    8770:	e77e      	b.n	8670 <_realloc_r+0x240>
    8772:	0031      	movs	r1, r6
    8774:	0028      	movs	r0, r5
    8776:	f7ff fe0b 	bl	8390 <memmove>
    877a:	e77f      	b.n	867c <_realloc_r+0x24c>
    877c:	4653      	mov	r3, sl
    877e:	68b1      	ldr	r1, [r6, #8]
    8780:	6119      	str	r1, [r3, #16]
    8782:	68f1      	ldr	r1, [r6, #12]
    8784:	6159      	str	r1, [r3, #20]
    8786:	2a24      	cmp	r2, #36	; 0x24
    8788:	d003      	beq.n	8792 <_realloc_r+0x362>
    878a:	0032      	movs	r2, r6
    878c:	3318      	adds	r3, #24
    878e:	3210      	adds	r2, #16
    8790:	e76e      	b.n	8670 <_realloc_r+0x240>
    8792:	4653      	mov	r3, sl
    8794:	6932      	ldr	r2, [r6, #16]
    8796:	4651      	mov	r1, sl
    8798:	619a      	str	r2, [r3, #24]
    879a:	0032      	movs	r2, r6
    879c:	6970      	ldr	r0, [r6, #20]
    879e:	3320      	adds	r3, #32
    87a0:	3218      	adds	r2, #24
    87a2:	61c8      	str	r0, [r1, #28]
    87a4:	e764      	b.n	8670 <_realloc_r+0x240>
    87a6:	46c0      	nop			; (mov r8, r8)
    87a8:	20000434 	.word	0x20000434

000087ac <__ssprint_r>:
    87ac:	b5f0      	push	{r4, r5, r6, r7, lr}
    87ae:	4657      	mov	r7, sl
    87b0:	464e      	mov	r6, r9
    87b2:	46de      	mov	lr, fp
    87b4:	4645      	mov	r5, r8
    87b6:	b5e0      	push	{r5, r6, r7, lr}
    87b8:	6893      	ldr	r3, [r2, #8]
    87ba:	b083      	sub	sp, #12
    87bc:	9001      	str	r0, [sp, #4]
    87be:	000e      	movs	r6, r1
    87c0:	4692      	mov	sl, r2
    87c2:	2b00      	cmp	r3, #0
    87c4:	d070      	beq.n	88a8 <__ssprint_r+0xfc>
    87c6:	688d      	ldr	r5, [r1, #8]
    87c8:	6813      	ldr	r3, [r2, #0]
    87ca:	002c      	movs	r4, r5
    87cc:	6808      	ldr	r0, [r1, #0]
    87ce:	001d      	movs	r5, r3
    87d0:	e046      	b.n	8860 <__ssprint_r+0xb4>
    87d2:	2290      	movs	r2, #144	; 0x90
    87d4:	89b3      	ldrh	r3, [r6, #12]
    87d6:	00d2      	lsls	r2, r2, #3
    87d8:	4213      	tst	r3, r2
    87da:	d030      	beq.n	883e <__ssprint_r+0x92>
    87dc:	6931      	ldr	r1, [r6, #16]
    87de:	1a42      	subs	r2, r0, r1
    87e0:	4693      	mov	fp, r2
    87e2:	6970      	ldr	r0, [r6, #20]
    87e4:	0042      	lsls	r2, r0, #1
    87e6:	1812      	adds	r2, r2, r0
    87e8:	0fd0      	lsrs	r0, r2, #31
    87ea:	1882      	adds	r2, r0, r2
    87ec:	1052      	asrs	r2, r2, #1
    87ee:	4690      	mov	r8, r2
    87f0:	465a      	mov	r2, fp
    87f2:	1c50      	adds	r0, r2, #1
    87f4:	19c0      	adds	r0, r0, r7
    87f6:	4642      	mov	r2, r8
    87f8:	4540      	cmp	r0, r8
    87fa:	d901      	bls.n	8800 <__ssprint_r+0x54>
    87fc:	4680      	mov	r8, r0
    87fe:	0002      	movs	r2, r0
    8800:	2080      	movs	r0, #128	; 0x80
    8802:	00c0      	lsls	r0, r0, #3
    8804:	4203      	tst	r3, r0
    8806:	d038      	beq.n	887a <__ssprint_r+0xce>
    8808:	0011      	movs	r1, r2
    880a:	9801      	ldr	r0, [sp, #4]
    880c:	f7fd fba2 	bl	5f54 <_malloc_r>
    8810:	1e04      	subs	r4, r0, #0
    8812:	d054      	beq.n	88be <__ssprint_r+0x112>
    8814:	465a      	mov	r2, fp
    8816:	6931      	ldr	r1, [r6, #16]
    8818:	f7fc f87c 	bl	4914 <memcpy>
    881c:	89b3      	ldrh	r3, [r6, #12]
    881e:	4a2a      	ldr	r2, [pc, #168]	; (88c8 <__ssprint_r+0x11c>)
    8820:	4013      	ands	r3, r2
    8822:	2280      	movs	r2, #128	; 0x80
    8824:	4313      	orrs	r3, r2
    8826:	81b3      	strh	r3, [r6, #12]
    8828:	4643      	mov	r3, r8
    882a:	0020      	movs	r0, r4
    882c:	465a      	mov	r2, fp
    882e:	6134      	str	r4, [r6, #16]
    8830:	46b8      	mov	r8, r7
    8832:	003c      	movs	r4, r7
    8834:	4458      	add	r0, fp
    8836:	6173      	str	r3, [r6, #20]
    8838:	1a9b      	subs	r3, r3, r2
    883a:	6030      	str	r0, [r6, #0]
    883c:	60b3      	str	r3, [r6, #8]
    883e:	4642      	mov	r2, r8
    8840:	4649      	mov	r1, r9
    8842:	f7ff fda5 	bl	8390 <memmove>
    8846:	68b3      	ldr	r3, [r6, #8]
    8848:	1b1c      	subs	r4, r3, r4
    884a:	6833      	ldr	r3, [r6, #0]
    884c:	60b4      	str	r4, [r6, #8]
    884e:	4443      	add	r3, r8
    8850:	6033      	str	r3, [r6, #0]
    8852:	0018      	movs	r0, r3
    8854:	4653      	mov	r3, sl
    8856:	689b      	ldr	r3, [r3, #8]
    8858:	1bdf      	subs	r7, r3, r7
    885a:	4653      	mov	r3, sl
    885c:	609f      	str	r7, [r3, #8]
    885e:	d023      	beq.n	88a8 <__ssprint_r+0xfc>
    8860:	686f      	ldr	r7, [r5, #4]
    8862:	002b      	movs	r3, r5
    8864:	3508      	adds	r5, #8
    8866:	2f00      	cmp	r7, #0
    8868:	d0fa      	beq.n	8860 <__ssprint_r+0xb4>
    886a:	681b      	ldr	r3, [r3, #0]
    886c:	46a0      	mov	r8, r4
    886e:	4699      	mov	r9, r3
    8870:	42a7      	cmp	r7, r4
    8872:	d2ae      	bcs.n	87d2 <__ssprint_r+0x26>
    8874:	003c      	movs	r4, r7
    8876:	46b8      	mov	r8, r7
    8878:	e7e1      	b.n	883e <__ssprint_r+0x92>
    887a:	9801      	ldr	r0, [sp, #4]
    887c:	f7ff fdd8 	bl	8430 <_realloc_r>
    8880:	1e04      	subs	r4, r0, #0
    8882:	d1d1      	bne.n	8828 <__ssprint_r+0x7c>
    8884:	9c01      	ldr	r4, [sp, #4]
    8886:	6931      	ldr	r1, [r6, #16]
    8888:	0020      	movs	r0, r4
    888a:	f7fd fa73 	bl	5d74 <_free_r>
    888e:	230c      	movs	r3, #12
    8890:	6023      	str	r3, [r4, #0]
    8892:	2240      	movs	r2, #64	; 0x40
    8894:	89b3      	ldrh	r3, [r6, #12]
    8896:	2001      	movs	r0, #1
    8898:	4313      	orrs	r3, r2
    889a:	81b3      	strh	r3, [r6, #12]
    889c:	4652      	mov	r2, sl
    889e:	2300      	movs	r3, #0
    88a0:	4240      	negs	r0, r0
    88a2:	6093      	str	r3, [r2, #8]
    88a4:	6053      	str	r3, [r2, #4]
    88a6:	e003      	b.n	88b0 <__ssprint_r+0x104>
    88a8:	2300      	movs	r3, #0
    88aa:	4652      	mov	r2, sl
    88ac:	2000      	movs	r0, #0
    88ae:	6053      	str	r3, [r2, #4]
    88b0:	b003      	add	sp, #12
    88b2:	bc3c      	pop	{r2, r3, r4, r5}
    88b4:	4690      	mov	r8, r2
    88b6:	4699      	mov	r9, r3
    88b8:	46a2      	mov	sl, r4
    88ba:	46ab      	mov	fp, r5
    88bc:	bdf0      	pop	{r4, r5, r6, r7, pc}
    88be:	230c      	movs	r3, #12
    88c0:	9a01      	ldr	r2, [sp, #4]
    88c2:	6013      	str	r3, [r2, #0]
    88c4:	e7e5      	b.n	8892 <__ssprint_r+0xe6>
    88c6:	46c0      	nop			; (mov r8, r8)
    88c8:	fffffb7f 	.word	0xfffffb7f

000088cc <__ascii_wctomb>:
    88cc:	2900      	cmp	r1, #0
    88ce:	d004      	beq.n	88da <__ascii_wctomb+0xe>
    88d0:	2aff      	cmp	r2, #255	; 0xff
    88d2:	d804      	bhi.n	88de <__ascii_wctomb+0x12>
    88d4:	2001      	movs	r0, #1
    88d6:	700a      	strb	r2, [r1, #0]
    88d8:	4770      	bx	lr
    88da:	2000      	movs	r0, #0
    88dc:	e7fc      	b.n	88d8 <__ascii_wctomb+0xc>
    88de:	238a      	movs	r3, #138	; 0x8a
    88e0:	6003      	str	r3, [r0, #0]
    88e2:	2001      	movs	r0, #1
    88e4:	4240      	negs	r0, r0
    88e6:	e7f7      	b.n	88d8 <__ascii_wctomb+0xc>

000088e8 <__divsi3>:
    88e8:	4603      	mov	r3, r0
    88ea:	430b      	orrs	r3, r1
    88ec:	d47f      	bmi.n	89ee <__divsi3+0x106>
    88ee:	2200      	movs	r2, #0
    88f0:	0843      	lsrs	r3, r0, #1
    88f2:	428b      	cmp	r3, r1
    88f4:	d374      	bcc.n	89e0 <__divsi3+0xf8>
    88f6:	0903      	lsrs	r3, r0, #4
    88f8:	428b      	cmp	r3, r1
    88fa:	d35f      	bcc.n	89bc <__divsi3+0xd4>
    88fc:	0a03      	lsrs	r3, r0, #8
    88fe:	428b      	cmp	r3, r1
    8900:	d344      	bcc.n	898c <__divsi3+0xa4>
    8902:	0b03      	lsrs	r3, r0, #12
    8904:	428b      	cmp	r3, r1
    8906:	d328      	bcc.n	895a <__divsi3+0x72>
    8908:	0c03      	lsrs	r3, r0, #16
    890a:	428b      	cmp	r3, r1
    890c:	d30d      	bcc.n	892a <__divsi3+0x42>
    890e:	22ff      	movs	r2, #255	; 0xff
    8910:	0209      	lsls	r1, r1, #8
    8912:	ba12      	rev	r2, r2
    8914:	0c03      	lsrs	r3, r0, #16
    8916:	428b      	cmp	r3, r1
    8918:	d302      	bcc.n	8920 <__divsi3+0x38>
    891a:	1212      	asrs	r2, r2, #8
    891c:	0209      	lsls	r1, r1, #8
    891e:	d065      	beq.n	89ec <__divsi3+0x104>
    8920:	0b03      	lsrs	r3, r0, #12
    8922:	428b      	cmp	r3, r1
    8924:	d319      	bcc.n	895a <__divsi3+0x72>
    8926:	e000      	b.n	892a <__divsi3+0x42>
    8928:	0a09      	lsrs	r1, r1, #8
    892a:	0bc3      	lsrs	r3, r0, #15
    892c:	428b      	cmp	r3, r1
    892e:	d301      	bcc.n	8934 <__divsi3+0x4c>
    8930:	03cb      	lsls	r3, r1, #15
    8932:	1ac0      	subs	r0, r0, r3
    8934:	4152      	adcs	r2, r2
    8936:	0b83      	lsrs	r3, r0, #14
    8938:	428b      	cmp	r3, r1
    893a:	d301      	bcc.n	8940 <__divsi3+0x58>
    893c:	038b      	lsls	r3, r1, #14
    893e:	1ac0      	subs	r0, r0, r3
    8940:	4152      	adcs	r2, r2
    8942:	0b43      	lsrs	r3, r0, #13
    8944:	428b      	cmp	r3, r1
    8946:	d301      	bcc.n	894c <__divsi3+0x64>
    8948:	034b      	lsls	r3, r1, #13
    894a:	1ac0      	subs	r0, r0, r3
    894c:	4152      	adcs	r2, r2
    894e:	0b03      	lsrs	r3, r0, #12
    8950:	428b      	cmp	r3, r1
    8952:	d301      	bcc.n	8958 <__divsi3+0x70>
    8954:	030b      	lsls	r3, r1, #12
    8956:	1ac0      	subs	r0, r0, r3
    8958:	4152      	adcs	r2, r2
    895a:	0ac3      	lsrs	r3, r0, #11
    895c:	428b      	cmp	r3, r1
    895e:	d301      	bcc.n	8964 <__divsi3+0x7c>
    8960:	02cb      	lsls	r3, r1, #11
    8962:	1ac0      	subs	r0, r0, r3
    8964:	4152      	adcs	r2, r2
    8966:	0a83      	lsrs	r3, r0, #10
    8968:	428b      	cmp	r3, r1
    896a:	d301      	bcc.n	8970 <__divsi3+0x88>
    896c:	028b      	lsls	r3, r1, #10
    896e:	1ac0      	subs	r0, r0, r3
    8970:	4152      	adcs	r2, r2
    8972:	0a43      	lsrs	r3, r0, #9
    8974:	428b      	cmp	r3, r1
    8976:	d301      	bcc.n	897c <__divsi3+0x94>
    8978:	024b      	lsls	r3, r1, #9
    897a:	1ac0      	subs	r0, r0, r3
    897c:	4152      	adcs	r2, r2
    897e:	0a03      	lsrs	r3, r0, #8
    8980:	428b      	cmp	r3, r1
    8982:	d301      	bcc.n	8988 <__divsi3+0xa0>
    8984:	020b      	lsls	r3, r1, #8
    8986:	1ac0      	subs	r0, r0, r3
    8988:	4152      	adcs	r2, r2
    898a:	d2cd      	bcs.n	8928 <__divsi3+0x40>
    898c:	09c3      	lsrs	r3, r0, #7
    898e:	428b      	cmp	r3, r1
    8990:	d301      	bcc.n	8996 <__divsi3+0xae>
    8992:	01cb      	lsls	r3, r1, #7
    8994:	1ac0      	subs	r0, r0, r3
    8996:	4152      	adcs	r2, r2
    8998:	0983      	lsrs	r3, r0, #6
    899a:	428b      	cmp	r3, r1
    899c:	d301      	bcc.n	89a2 <__divsi3+0xba>
    899e:	018b      	lsls	r3, r1, #6
    89a0:	1ac0      	subs	r0, r0, r3
    89a2:	4152      	adcs	r2, r2
    89a4:	0943      	lsrs	r3, r0, #5
    89a6:	428b      	cmp	r3, r1
    89a8:	d301      	bcc.n	89ae <__divsi3+0xc6>
    89aa:	014b      	lsls	r3, r1, #5
    89ac:	1ac0      	subs	r0, r0, r3
    89ae:	4152      	adcs	r2, r2
    89b0:	0903      	lsrs	r3, r0, #4
    89b2:	428b      	cmp	r3, r1
    89b4:	d301      	bcc.n	89ba <__divsi3+0xd2>
    89b6:	010b      	lsls	r3, r1, #4
    89b8:	1ac0      	subs	r0, r0, r3
    89ba:	4152      	adcs	r2, r2
    89bc:	08c3      	lsrs	r3, r0, #3
    89be:	428b      	cmp	r3, r1
    89c0:	d301      	bcc.n	89c6 <__divsi3+0xde>
    89c2:	00cb      	lsls	r3, r1, #3
    89c4:	1ac0      	subs	r0, r0, r3
    89c6:	4152      	adcs	r2, r2
    89c8:	0883      	lsrs	r3, r0, #2
    89ca:	428b      	cmp	r3, r1
    89cc:	d301      	bcc.n	89d2 <__divsi3+0xea>
    89ce:	008b      	lsls	r3, r1, #2
    89d0:	1ac0      	subs	r0, r0, r3
    89d2:	4152      	adcs	r2, r2
    89d4:	0843      	lsrs	r3, r0, #1
    89d6:	428b      	cmp	r3, r1
    89d8:	d301      	bcc.n	89de <__divsi3+0xf6>
    89da:	004b      	lsls	r3, r1, #1
    89dc:	1ac0      	subs	r0, r0, r3
    89de:	4152      	adcs	r2, r2
    89e0:	1a41      	subs	r1, r0, r1
    89e2:	d200      	bcs.n	89e6 <__divsi3+0xfe>
    89e4:	4601      	mov	r1, r0
    89e6:	4152      	adcs	r2, r2
    89e8:	4610      	mov	r0, r2
    89ea:	4770      	bx	lr
    89ec:	e05d      	b.n	8aaa <__divsi3+0x1c2>
    89ee:	0fca      	lsrs	r2, r1, #31
    89f0:	d000      	beq.n	89f4 <__divsi3+0x10c>
    89f2:	4249      	negs	r1, r1
    89f4:	1003      	asrs	r3, r0, #32
    89f6:	d300      	bcc.n	89fa <__divsi3+0x112>
    89f8:	4240      	negs	r0, r0
    89fa:	4053      	eors	r3, r2
    89fc:	2200      	movs	r2, #0
    89fe:	469c      	mov	ip, r3
    8a00:	0903      	lsrs	r3, r0, #4
    8a02:	428b      	cmp	r3, r1
    8a04:	d32d      	bcc.n	8a62 <__divsi3+0x17a>
    8a06:	0a03      	lsrs	r3, r0, #8
    8a08:	428b      	cmp	r3, r1
    8a0a:	d312      	bcc.n	8a32 <__divsi3+0x14a>
    8a0c:	22fc      	movs	r2, #252	; 0xfc
    8a0e:	0189      	lsls	r1, r1, #6
    8a10:	ba12      	rev	r2, r2
    8a12:	0a03      	lsrs	r3, r0, #8
    8a14:	428b      	cmp	r3, r1
    8a16:	d30c      	bcc.n	8a32 <__divsi3+0x14a>
    8a18:	0189      	lsls	r1, r1, #6
    8a1a:	1192      	asrs	r2, r2, #6
    8a1c:	428b      	cmp	r3, r1
    8a1e:	d308      	bcc.n	8a32 <__divsi3+0x14a>
    8a20:	0189      	lsls	r1, r1, #6
    8a22:	1192      	asrs	r2, r2, #6
    8a24:	428b      	cmp	r3, r1
    8a26:	d304      	bcc.n	8a32 <__divsi3+0x14a>
    8a28:	0189      	lsls	r1, r1, #6
    8a2a:	d03a      	beq.n	8aa2 <__divsi3+0x1ba>
    8a2c:	1192      	asrs	r2, r2, #6
    8a2e:	e000      	b.n	8a32 <__divsi3+0x14a>
    8a30:	0989      	lsrs	r1, r1, #6
    8a32:	09c3      	lsrs	r3, r0, #7
    8a34:	428b      	cmp	r3, r1
    8a36:	d301      	bcc.n	8a3c <__divsi3+0x154>
    8a38:	01cb      	lsls	r3, r1, #7
    8a3a:	1ac0      	subs	r0, r0, r3
    8a3c:	4152      	adcs	r2, r2
    8a3e:	0983      	lsrs	r3, r0, #6
    8a40:	428b      	cmp	r3, r1
    8a42:	d301      	bcc.n	8a48 <__divsi3+0x160>
    8a44:	018b      	lsls	r3, r1, #6
    8a46:	1ac0      	subs	r0, r0, r3
    8a48:	4152      	adcs	r2, r2
    8a4a:	0943      	lsrs	r3, r0, #5
    8a4c:	428b      	cmp	r3, r1
    8a4e:	d301      	bcc.n	8a54 <__divsi3+0x16c>
    8a50:	014b      	lsls	r3, r1, #5
    8a52:	1ac0      	subs	r0, r0, r3
    8a54:	4152      	adcs	r2, r2
    8a56:	0903      	lsrs	r3, r0, #4
    8a58:	428b      	cmp	r3, r1
    8a5a:	d301      	bcc.n	8a60 <__divsi3+0x178>
    8a5c:	010b      	lsls	r3, r1, #4
    8a5e:	1ac0      	subs	r0, r0, r3
    8a60:	4152      	adcs	r2, r2
    8a62:	08c3      	lsrs	r3, r0, #3
    8a64:	428b      	cmp	r3, r1
    8a66:	d301      	bcc.n	8a6c <__divsi3+0x184>
    8a68:	00cb      	lsls	r3, r1, #3
    8a6a:	1ac0      	subs	r0, r0, r3
    8a6c:	4152      	adcs	r2, r2
    8a6e:	0883      	lsrs	r3, r0, #2
    8a70:	428b      	cmp	r3, r1
    8a72:	d301      	bcc.n	8a78 <__divsi3+0x190>
    8a74:	008b      	lsls	r3, r1, #2
    8a76:	1ac0      	subs	r0, r0, r3
    8a78:	4152      	adcs	r2, r2
    8a7a:	d2d9      	bcs.n	8a30 <__divsi3+0x148>
    8a7c:	0843      	lsrs	r3, r0, #1
    8a7e:	428b      	cmp	r3, r1
    8a80:	d301      	bcc.n	8a86 <__divsi3+0x19e>
    8a82:	004b      	lsls	r3, r1, #1
    8a84:	1ac0      	subs	r0, r0, r3
    8a86:	4152      	adcs	r2, r2
    8a88:	1a41      	subs	r1, r0, r1
    8a8a:	d200      	bcs.n	8a8e <__divsi3+0x1a6>
    8a8c:	4601      	mov	r1, r0
    8a8e:	4663      	mov	r3, ip
    8a90:	4152      	adcs	r2, r2
    8a92:	105b      	asrs	r3, r3, #1
    8a94:	4610      	mov	r0, r2
    8a96:	d301      	bcc.n	8a9c <__divsi3+0x1b4>
    8a98:	4240      	negs	r0, r0
    8a9a:	2b00      	cmp	r3, #0
    8a9c:	d500      	bpl.n	8aa0 <__divsi3+0x1b8>
    8a9e:	4249      	negs	r1, r1
    8aa0:	4770      	bx	lr
    8aa2:	4663      	mov	r3, ip
    8aa4:	105b      	asrs	r3, r3, #1
    8aa6:	d300      	bcc.n	8aaa <__divsi3+0x1c2>
    8aa8:	4240      	negs	r0, r0
    8aaa:	b501      	push	{r0, lr}
    8aac:	2000      	movs	r0, #0
    8aae:	f7f9 f85f 	bl	1b70 <__aeabi_idiv0>
    8ab2:	bd02      	pop	{r1, pc}

00008ab4 <__aeabi_idivmod>:
    8ab4:	2900      	cmp	r1, #0
    8ab6:	d0f8      	beq.n	8aaa <__divsi3+0x1c2>
    8ab8:	e716      	b.n	88e8 <__divsi3>
    8aba:	4770      	bx	lr

00008abc <__aeabi_dcmpun>:
    8abc:	b570      	push	{r4, r5, r6, lr}
    8abe:	4e0e      	ldr	r6, [pc, #56]	; (8af8 <__aeabi_dcmpun+0x3c>)
    8ac0:	030d      	lsls	r5, r1, #12
    8ac2:	031c      	lsls	r4, r3, #12
    8ac4:	0049      	lsls	r1, r1, #1
    8ac6:	005b      	lsls	r3, r3, #1
    8ac8:	0b2d      	lsrs	r5, r5, #12
    8aca:	0d49      	lsrs	r1, r1, #21
    8acc:	0b24      	lsrs	r4, r4, #12
    8ace:	0d5b      	lsrs	r3, r3, #21
    8ad0:	42b1      	cmp	r1, r6
    8ad2:	d004      	beq.n	8ade <__aeabi_dcmpun+0x22>
    8ad4:	4908      	ldr	r1, [pc, #32]	; (8af8 <__aeabi_dcmpun+0x3c>)
    8ad6:	2000      	movs	r0, #0
    8ad8:	428b      	cmp	r3, r1
    8ada:	d008      	beq.n	8aee <__aeabi_dcmpun+0x32>
    8adc:	bd70      	pop	{r4, r5, r6, pc}
    8ade:	4305      	orrs	r5, r0
    8ae0:	2001      	movs	r0, #1
    8ae2:	2d00      	cmp	r5, #0
    8ae4:	d1fa      	bne.n	8adc <__aeabi_dcmpun+0x20>
    8ae6:	4904      	ldr	r1, [pc, #16]	; (8af8 <__aeabi_dcmpun+0x3c>)
    8ae8:	2000      	movs	r0, #0
    8aea:	428b      	cmp	r3, r1
    8aec:	d1f6      	bne.n	8adc <__aeabi_dcmpun+0x20>
    8aee:	4314      	orrs	r4, r2
    8af0:	0020      	movs	r0, r4
    8af2:	1e44      	subs	r4, r0, #1
    8af4:	41a0      	sbcs	r0, r4
    8af6:	e7f1      	b.n	8adc <__aeabi_dcmpun+0x20>
    8af8:	000007ff 	.word	0x000007ff
    8afc:	682f2e2e 	.word	0x682f2e2e
    8b00:	732f6c61 	.word	0x732f6c61
    8b04:	682f6372 	.word	0x682f6372
    8b08:	695f6c61 	.word	0x695f6c61
    8b0c:	6d5f6332 	.word	0x6d5f6332
    8b10:	6e79735f 	.word	0x6e79735f
    8b14:	00632e63 	.word	0x00632e63
    8b18:	682f2e2e 	.word	0x682f2e2e
    8b1c:	732f6c61 	.word	0x732f6c61
    8b20:	682f6372 	.word	0x682f6372
    8b24:	695f6c61 	.word	0x695f6c61
    8b28:	00632e6f 	.word	0x00632e6f
    8b2c:	682f2e2e 	.word	0x682f2e2e
    8b30:	732f6c61 	.word	0x732f6c61
    8b34:	682f6372 	.word	0x682f6372
    8b38:	755f6c61 	.word	0x755f6c61
    8b3c:	74726173 	.word	0x74726173
    8b40:	7973615f 	.word	0x7973615f
    8b44:	632e636e 	.word	0x632e636e
    8b48:	00000000 	.word	0x00000000
    8b4c:	682f2e2e 	.word	0x682f2e2e
    8b50:	752f6c61 	.word	0x752f6c61
    8b54:	736c6974 	.word	0x736c6974
    8b58:	6372732f 	.word	0x6372732f
    8b5c:	6974752f 	.word	0x6974752f
    8b60:	725f736c 	.word	0x725f736c
    8b64:	62676e69 	.word	0x62676e69
    8b68:	65666675 	.word	0x65666675
    8b6c:	00632e72 	.word	0x00632e72

00008b70 <_usarts>:
    8b70:	00000005 40100004 00030000 0000c504     .......@........
    8b80:	00000000                                ....

00008b84 <_i2cms>:
    8b84:	00000001 00200014 00000100 00000022     ...... ....."...
    8b94:	00d70000 007a1200                       ......z.

00008b9c <_i2css>:
	...

00008bac <sercomspi_regs>:
	...
    8bc0:	682f2e2e 732f6c70 6f637265 70682f6d     ../hpl/sercom/hp
    8bd0:	65735f6c 6d6f6372 0000632e 70696843     l_sercom.c..Chip
    8be0:	6d614e20 09203a65 0a0d7325 00000000      Name: .%s......
    8bf0:	756e614d 74636166 72657275 2509203a     Manufacturer: .%
    8c00:	000a0d73 65746e49 63616672 72502065     s...Interface Pr
    8c10:	636f746f 203a6c6f 0d732509 0000000a     otocol: .%s.....
    8c20:	70707553 5620796c 20746c6f 3a78614d     Supply Volt Max:
    8c30:	2e250920 56206631 00000a0d 70707553      .%.1f V....Supp
    8c40:	5620796c 20746c6f 3a6e694d 2e250920     ly Volt Min: .%.
    8c50:	56206631 00000a0d 6978614d 206d756d     1f V....Maximum 
    8c60:	72727543 3a746e65 2e250920 75206631     Current: .%.1f u
    8c70:	000a0d41 2078614d 706d6554 74617265     A...Max Temperat
    8c80:	3a657275 2e250920 43206631 00000a0d     ure: .%.1f C....
    8c90:	65766944 65562072 6f697372 09203a6e     Diver Version: .
    8ca0:	2e255609 252e6631 0d64322e 0000000a     .V%.1f.%.2d.....
    8cb0:	6d65540a 3a432070 322e2520 00000a66     .Temp C: %.2f...
    8cc0:	706d6554 203a4620 66322e25 0000000a     Temp F: %.2f....
    8cd0:	696d7548 79746964 2e25203a 000a6632     Humidity: %.2f..
    8ce0:	20776172 61746164 7830203a 78322e25     raw data: 0x%.2x
    8cf0:	0000000a 7265730a 206c6169 626d756e     .....serial numb
    8d00:	3a207265 756c2520 0000000a              er : %lu....

00008d0c <READ_PRECISION>:
    8d0c:	00e0f6fd                                ....

00008d10 <HEATER_POWER>:
    8d10:	242f3239 0000151e 34746873 203a7830     92/$....sht40x: 
    8d20:	6c696166 74206465 7325206f 000a0d2e     failed to %s....
    8d30:	34746873 203a7830 616c6564 736d5f79     sht40x: delay_ms
    8d40:	20736920 6c6c756e 00000a0d 34746873      is null....sht4
    8d50:	203a7830 5f633269 74696e69 20736920     0x: i2c_init is 
    8d60:	6c6c756e 00000a0d 34746873 203a7830     null....sht40x: 
    8d70:	5f633269 6e696564 69207469 756e2073     i2c_deinit is nu
    8d80:	0a0d6c6c 00000000 34746873 203a7830     ll......sht40x: 
    8d90:	5f633269 64616572 20736920 6c6c756e     i2c_read is null
    8da0:	00000a0d 34746873 203a7830 5f633269     ....sht40x: i2c_
    8db0:	74697277 73692065 6c756e20 000a0d6c     write is null...
    8dc0:	74696e69 696c6169 6920657a 00006332     initialize i2c..
    8dd0:	692d6564 6974696e 7a696c61 32692065     de-initialize i2
    8de0:	00000063 20746567 20633269 72646461     c...get i2c addr
    8df0:	00737365 20746567 69766564 76206563     ess.get device v
    8e00:	61697261 0000746e 74697277 65742065     ariant..write te
    8e10:	6120706d 6820646e 64696d75 20797469     mp and humidity 
    8e20:	00646d63 64616572 6d657420 6e612070     cmd.read temp an
    8e30:	75682064 6964696d 00007974 74697277     d humidity..writ
    8e40:	49552065 6d632044 00000064 20746567     e UID cmd...get 
    8e50:	00444955 74697277 65682065 72657461     UID.write heater
    8e60:	646d6320 00000000 72206f74 74657365      cmd....to reset
    8e70:	00000000 34544853 00000030 00433249     ....SHT40...I2C.
    8e80:	736e6553 6f697269 0000006e 74696e69     Sensirion...init
    8e90:	696c6169 0000657a 20746573 69766564     ialize..set devi
    8ea0:	76206563 61697261 0000746e 20746573     ce variant..set 
    8eb0:	69766564 69206563 61206332 65726464     device i2c addre
    8ec0:	00007373 64616572 74616420 00000061     ss..read data...
    8ed0:	64616572 6d617320 20656c70 61746164     read sample data
    8ee0:	00000000 64616572 72657320 206c6169     ....read serial 
    8ef0:	626d756e 00007265 69746361 65746176     number..activate
    8f00:	61656820 00726574 74666f73 73657220      heater.soft res
    8f10:	73207465 6f736e65 00000072 20746567     et sensor...get 
    8f20:	72646461 00737365 00002288 00002258     address.."..X"..
    8f30:	0000226a 000021ac 0000226a 0000224e     j"...!..j"..N"..
    8f40:	0000226a 000021ac 00002258 00002258     j"...!..X"..X"..
    8f50:	0000224e 000021ac 000021b4 000021b4     N"...!...!...!..
    8f60:	000021b4 00002270 00002258 00002258     .!..p"..X"..X"..
    8f70:	0000222c 00002310 0000222c 0000224e     ,"...#..,"..N"..
    8f80:	0000222c 00002310 00002258 00002258     ,"...#..X"..X"..
    8f90:	0000224e 00002310 000021b4 000021b4     N"...#...!...!..
    8fa0:	000021b4 0000231a 00002608 00002558     .!...#...&..X%..
    8fb0:	00002558 00002556 000025fa 000025fa     X%..V%...%...%..
    8fc0:	000025f0 00002556 000025fa 000025f0     .%..V%...%...%..
    8fd0:	000025fa 00002556 00002600 00002600     .%..V%...&...&..
    8fe0:	00002600 00002690 0000334c 0000332e     .&...&..L3...3..
    8ff0:	000032e8 00003206 000032e8 00003320     .2...2...2.. 3..
    9000:	000032e8 00003206 0000332e 0000332e     .2...2...3...3..
    9010:	00003320 00003206 000031fe 000031fe      3...2...1...1..
    9020:	000031fe 00003564 000039ac 0000386c     .1..d5...9..l8..
    9030:	0000386c 00003868 00003984 00003984     l8..h8...9...9..
    9040:	00003976 00003868 00003984 00003976     v9..h8...9..v9..
    9050:	00003984 00003868 0000398c 0000398c     .9..h8...9...9..
    9060:	0000398c 00003b90                       .9...;..

00009068 <_global_impure_ptr>:
    9068:	20000008 69666e49 7974696e 00000000     ... Infinity....
    9078:	004e614e 00000000                       NaN.....

00009080 <__mprec_bigtens>:
    9080:	37e08000 4341c379 b5056e17 4693b8b5     ...7y.AC.n.....F
    9090:	e93ff9f5 4d384f03 f9301d32 5a827748     ..?..O8M2.0.Hw.Z
    90a0:	7f73bf3c 75154fdd                       <.s..O.u

000090a8 <__mprec_tens>:
    90a8:	00000000 3ff00000 00000000 40240000     .......?......$@
    90b8:	00000000 40590000 00000000 408f4000     ......Y@.....@.@
    90c8:	00000000 40c38800 00000000 40f86a00     .......@.....j.@
    90d8:	00000000 412e8480 00000000 416312d0     .......A......cA
    90e8:	00000000 4197d784 00000000 41cdcd65     .......A....e..A
    90f8:	20000000 4202a05f e8000000 42374876     ... _..B....vH7B
    9108:	a2000000 426d1a94 e5400000 42a2309c     ......mB..@..0.B
    9118:	1e900000 42d6bcc4 26340000 430c6bf5     .......B..4&.k.C
    9128:	37e08000 4341c379 85d8a000 43763457     ...7y.AC....W4vC
    9138:	674ec800 43abc16d 60913d00 43e158e4     ..Ngm..C.=.`.X.C
    9148:	78b58c40 4415af1d d6e2ef50 444b1ae4     @..x...DP.....KD
    9158:	064dd592 4480f0cf c7e14af6 44b52d02     ..M....D.J...-.D
    9168:	79d99db4 44ea7843                       ...yCx.D

00009170 <p05.6055>:
    9170:	00000005 00000019 0000007d 0000726c     ........}...lr..
    9180:	000072e0 000072e0 00007250 000072e0     .r...r..Pr...r..
    9190:	000072e0 000072e0 000072e0 000072e0     .r...r...r...r..
    91a0:	000072e0 00007258 00006d3a 000072e0     .r..Xr..:m...r..
    91b0:	00006cf4 00006d44 000072e0 00006d90     .l..Dm...r...m..
    91c0:	00006f7a 00006f7a 00006f7a 00006f7a     zo..zo..zo..zo..
    91d0:	00006f7a 00006f7a 00006f7a 00006f7a     zo..zo..zo..zo..
    91e0:	00006f7a 000072e0 000072e0 000072e0     zo...r...r...r..
    91f0:	000072e0 000072e0 000072e0 000072e0     .r...r...r...r..
    9200:	000072e0 000072e0 000072e0 00006d98     .r...r...r...m..
    9210:	00006ee0 000072e0 00006ee0 000072e0     .n...r...n...r..
    9220:	000072e0 000072e0 000072e0 00006faa     .r...r...r...o..
    9230:	000072e0 000072e0 00006fb2 000072e0     .r...r...o...r..
    9240:	000072e0 000072e0 000072e0 000072e0     .r...r...r...r..
    9250:	00007054 000072e0 000072e0 00007086     Tp...r...r...p..
    9260:	000072e0 000072e0 000072e0 000072e0     .r...r...r...r..
    9270:	000072e0 000072e0 000072e0 000072e0     .r...r...r...r..
    9280:	000072e0 000072e0 00007180 000071b4     .r...r...q...q..
    9290:	00006ee0 00006ee0 00006ee0 000071c6     .n...n...n...q..
    92a0:	000071b4 000072e0 000072e0 000071ce     .q...r...r...q..
    92b0:	000072e0 000070e8 000072ae 00007224     .r...p...r..$r..
    92c0:	0000711e 000072e0 00007126 000072e0     .q...r..&q...r..
    92d0:	0000727c 000072e0 000072e0 000071de     |r...r...r...q..
    92e0:	00464e49 00666e69 004e414e 006e616e     INF.inf.NAN.nan.
    92f0:	33323130 37363534 42413938 46454443     0123456789ABCDEF
    9300:	00000000 33323130 37363534 62613938     ....0123456789ab
    9310:	66656463 00000000 6c756e28 0000296c     cdef....(null)..

00009320 <blanks.7223>:
    9320:	20202020 20202020 20202020 20202020                     

00009330 <zeroes.7224>:
    9330:	30303030 30303030 30303030 30303030     0000000000000000
    9340:	00000043 49534f50 00000058 0000002e     C...POSIX.......

00009350 <_ctype_>:
    9350:	20202000 20202020 28282020 20282828     .         ((((( 
    9360:	20202020 20202020 20202020 20202020                     
    9370:	10108820 10101010 10101010 10101010      ...............
    9380:	04040410 04040404 10040404 10101010     ................
    9390:	41411010 41414141 01010101 01010101     ..AAAAAA........
    93a0:	01010101 01010101 01010101 10101010     ................
    93b0:	42421010 42424242 02020202 02020202     ..BBBBBB........
    93c0:	02020202 02020202 02020202 10101010     ................
    93d0:	00000020 00000000 00000000 00000000      ...............
	...

00009454 <_init>:
    9454:	b5f8      	push	{r3, r4, r5, r6, r7, lr}
    9456:	46c0      	nop			; (mov r8, r8)
    9458:	bcf8      	pop	{r3, r4, r5, r6, r7}
    945a:	bc08      	pop	{r3}
    945c:	469e      	mov	lr, r3
    945e:	4770      	bx	lr

00009460 <__init_array_start>:
    9460:	00004b9d 	.word	0x00004b9d

00009464 <__frame_dummy_init_array_entry>:
    9464:	000000dd                                ....

00009468 <_fini>:
    9468:	b5f8      	push	{r3, r4, r5, r6, r7, lr}
    946a:	46c0      	nop			; (mov r8, r8)
    946c:	bcf8      	pop	{r3, r4, r5, r6, r7}
    946e:	bc08      	pop	{r3}
    9470:	469e      	mov	lr, r3
    9472:	4770      	bx	lr

00009474 <__fini_array_start>:
    9474:	000000b5 	.word	0x000000b5
